
 Start         Length     Name                   Class
 0000:0000000000000000 000000000003C5938H .text                  CODE
 0000:0000000000000000 00000000000018780H .plt                   CODE
 0000:0000000000000000 00000000000000010H .rodata                CONST
 0000:0000000000000000 00000000000085BF0H .rela.dyn              CONST
 0000:0000000000000000 00000000000024B40H .rela.plt              CONST
 0000:0000000000000000 0000000000004AD88H .rodata.1              CONST
 0000:0000000000000000 00000000000074670H .dynsym                CONST
 0000:0000000000000000 000000000001E8B18H .dynstr                CONST
 0000:0000000000000000 0000000000019B985H .rodata.2              CONST
 0000:0000000000000000 00000000000044748H .data                  DATA
 0000:0000000000000000 00000000000000150H .dynamic               DATA
 0000:0000000000000000 00000000000000040H .data.1                DATA
 0000:0000000000000000 0000000000000C3D8H .got.plt               CONST
 0000:0000000000000000 00000000000002640H .got                   CONST
 0000:0000000000000000 000000000000061B0H .data.2                DATA
 0000:0000000000000000 00000000000000338H .init_array            DATA
 0000:0000000000000000 00000000000000010H .fini_array            DATA
 0000:0000000000000000 00000000000000008H .data.3                DATA
 0000:0000000000000000 000000000000EA2E8H .bss                   BSS


  Address         Publics by Value

 00000000:0000007100000024       _init
 00000000:0000007100000160       _fini
 00000000:00000071000001AC       __nnDetailNintendoSdkRuntimeObjectFileRefer
 00000000:00000071000001B0       _ZN2nn6crypto16DecryptAes128CbcEPvmPKvmS3_mS3_m
 00000000:00000071000002BC       _ZN2nn6crypto16EncryptAes128CbcEPvmPKvmS3_mS3_m
 00000000:00000071000003D4       _ZN2nn6crypto16DecryptAes128CcmEPvmS1_mPKvmS3_mS3_mS3_mm
 00000000:00000071000005A8       _ZN2nn6crypto6detail11CcmModeImplINS0_12AesEncryptorILm16EEEE10InitializeEPKS4_PKvmllm
 00000000:0000007100000804       _ZN2nn6crypto6detail11CtrModeImplINS0_12AesEncryptorILm16EEEE16IncrementCounterEv
 00000000:0000007100000940       _ZN2nn6crypto6detail10CbcMacImplINS0_12AesEncryptorILm16EEEE6UpdateEPKvm
 00000000:0000007100000C50       _ZN2nn6crypto6detail10CbcMacImplINS0_12AesEncryptorILm16EEEE12ProcessBlockEPKv
 00000000:0000007100000D84       _ZN2nn6crypto6detail11CtrModeImplINS0_12AesEncryptorILm16EEEE6UpdateEPvmPKvm
 00000000:00000071000010D8       _ZN2nn6crypto6detail11CcmModeImplINS0_12AesEncryptorILm16EEEE11GenerateMacEv
 00000000:000000710000123C       _ZN2nn6crypto16EncryptAes128CcmEPvmS1_mPKvmS3_mS3_mS3_mm
 00000000:0000007100001410       _ZN2nn6crypto16DecryptAes128CtrEPvmPKvmS3_mS3_m
 00000000:00000071000014C4       _ZN2nn6crypto16EncryptAes128CtrEPvmPKvmS3_mS3_m
 00000000:0000007100001578       _ZN2nn6crypto11IsSameBytesEPKvS2_m
 00000000:000000710000157C       _ZN2nn6crypto19GenerateHmacSha1MacEPvmPKvmS3_m
 00000000:00000071000015F4       _ZN2nn6crypto6detail8HmacImplINS0_13Sha1GeneratorEE10InitializeEPKvm
 00000000:0000007100001740       _ZN2nn6crypto6detail8HmacImplINS0_13Sha1GeneratorEE6GetMacEPvm
 00000000:0000007100001888       _ZN2nn6crypto21GenerateHmacSha256MacEPvmPKvmS3_m
 00000000:0000007100001900       _ZN2nn6crypto6detail8HmacImplINS0_15Sha256GeneratorEE10InitializeEPKvm
 00000000:0000007100001A4C       _ZN2nn6crypto6detail8HmacImplINS0_15Sha256GeneratorEE6GetMacEPvm
 00000000:0000007100001B90       _ZN2nn6crypto16GenerateSha1HashEPvmPKvm
 00000000:0000007100001BF4       _ZN2nn6crypto18GenerateSha256HashEPvmPKvm
 00000000:0000007100001C58       _ZN2nn6crypto15GenerateMd5HashEPvmPKvm
 00000000:0000007100001CBC       _ZN2nn6crypto6detail6BigNumC2Ev
 00000000:0000007100001CC8       _ZN2nn6crypto6detail6BigNum3SetEPKvm
 00000000:0000007100001D38       _ZNK2nn6crypto6detail6BigNum3GetEPvm
 00000000:0000007100001D4C       _ZNK2nn6crypto6detail6BigNum7GetSizeEv
 00000000:0000007100001DA0       _ZN2nn6crypto6detail6BigNum13ReserveStaticEPji
 00000000:0000007100001DB0       _ZNK2nn6crypto6detail6BigNum6ModExpEPvPKvRKS2_m
 00000000:0000007100001E90       _ZN2nn6crypto6detail6BigNumD2Ev
 00000000:0000007100001E94       _ZN2nn6crypto6detail6BigNum7CleanseEv
 00000000:0000007100001EA4       _ZN2nn6crypto6detail17bigint_digit_multEPjjj
 00000000:0000007100001EB4       _ZN2nn6crypto6detail11bigint_copyEPjPKji
 00000000:0000007100001F14       _ZN2nn6crypto6detail11bigint_zeroEPji
 00000000:0000007100001F3C       _ZN2nn6crypto6detail13bigint_digitsEPKji
 00000000:0000007100001F60       _ZN2nn6crypto6detail11bigint_multEPjPKjS4_i
 00000000:000000710000206C       _ZN2nn6crypto6detail10bigint_cmpEPKjS3_i
 00000000:00000071000020BC       _ZN2nn6crypto6detail10bigint_divEPjS2_PKjiS4_i
 00000000:0000007100002680       _ZN2nn6crypto6detail10bigint_modEPjPKjiS4_i
 00000000:00000071000026D0       _ZN2nn6crypto6detail15bigint_mod_multEPjPKjS4_S4_i
 00000000:0000007100002810       _ZN2nn6crypto6detail14bigint_mod_expEPjPKjS4_iS4_i
 00000000:0000007100002AF0       _ZN2nn6crypto6detail13bigint_iszeroEPKji
 00000000:0000007100002B2C       _ZN2nn6crypto6detail14bigint_mod_invEPjPKjS4_i
 00000000:0000007100002DE0       _ZN2nn6crypto6detail14bigint_add_modEPjPKjS4_S4_i
 00000000:0000007100002E70       _ZN2nn6crypto6detail14bigint_sub_modEPjPKjS4_S4_i
 00000000:0000007100002F28       _ZN2nn6crypto6detail21OctetStringFromDigitsEPvmPKjm
 00000000:0000007100002F98       _ZN2nn6crypto6detail21DigitsFromOctetStringEPjmPKvm
 00000000:0000007100003028       _ZNK2nn6crypto6detail10EccP256Key8SignHashEPvmPKvmS5_m
 00000000:00000071000030D4       _ZNK2nn6crypto6detail10EccP256Key10VerifyHashEPKvmS4_m
 00000000:0000007100003164       _ZNK2nn6crypto6detail10EccP256Key20GenerateSharedSecretEPvmRKS2_
 00000000:00000071000031CC       _ZN2nn6crypto6detail28alg_p256_generate_public_keyEPNS1_10p256_pointEPNS1_10p256_curveEPjS3_
 00000000:0000007100003224       _ZN2nn6crypto6detail28alg_p256_generate_shared_keyEPjPKNS1_10p256_pointEPKNS1_10p256_curveES5_PKj
 00000000:00000071000032A4       _ZN2nn6crypto6detail29alg_p256_generate_private_keyEPKjiPKNS1_17p256_ec_parameterEPj
 00000000:0000007100003380       _ZN2nn6crypto6detail26loc_p256_key_gen_primitiveEPNS1_15p256_ec_keypairEPKNS1_17p256_ec_parameterEPKji
 00000000:00000071000033D4       _ZN2nn6crypto6detail32alg_p256_generate_shared_key_preEPNS1_10p256_pointEPNS1_10p256_curveES3_PjS6_
 00000000:0000007100003454       _ZN2nn6crypto6detail19alg_init_p256_ECDSAEPNS1_17p256_ec_parameterE
 00000000:0000007100003464       _ZN2nn6crypto6detail19alg_p256_ECDSA_signEPNS1_17p256_ec_signatureEPKvmPKNS1_17p256_ec_parameterEPKjSA_m
 00000000:0000007100003658       _ZN2nn6crypto6detail21alg_p256_ECDSA_verifyEPKNS1_17p256_ec_signatureEPKvmPKNS1_17p256_ec_parameterEPKNS1_10p256_pointE
 00000000:00000071000038C4       _ZN2nn6crypto6detail8p256_addEPNS1_10p256_pointEPKS2_S5_PKNS1_10p256_curveE
 00000000:0000007100003E94       _ZN2nn6crypto6detail8p256_mulEPNS1_10p256_pointEPKjiPKS2_PKNS1_10p256_curveE
 00000000:0000007100003FD8       _ZN2nn6crypto6detail13p256_validateEPKNS1_10p256_pointEPKNS1_10p256_curveE
 00000000:0000007100004100       _ZN2nn6crypto6detail7Md5Impl10InitializeEv
 00000000:0000007100004138       _ZN2nn6crypto6detail7Md5Impl6UpdateEPKvm
 00000000:0000007100004224       _ZN2nn6crypto6detail7Md5Impl12ProcessBlockEv
 00000000:0000007100004564       _ZN2nn6crypto6detail7Md5Impl7GetHashEPvm
 00000000:00000071000045B0       _ZN2nn6crypto6detail7Md5Impl16ProcessLastBlockEv
 00000000:00000071000046F8       nndetailCryptoBignumMulAddWords
 00000000:00000071000047A4       nndetailCryptoBignumMulWords
 00000000:0000007100004838       nndetailCryptoBignumAddWords
 00000000:0000007100004908       nndetailCryptoBignumSubWords
 00000000:00000071000049DC       nndetailCryptoBignum_mul_comba8
 00000000:0000007100004D50       nndetailCryptoBignum_sqr_comba8
 00000000:0000007100005054       _ZN2nn6crypto6detail11IsSameBytesEPKvS3_m
 00000000:0000007100005094       _ZN2nn6crypto6detail7AesImplILm16EE10InitializeEPKvmb
 00000000:0000007100005208       aXN
 00000000:0000007100005268       _ZN2nn6crypto6detail7AesImplILm24EE10InitializeEPKvmb
 00000000:00000071000053DC       aXN_0
 00000000:0000007100005450       _ZNK2nn6crypto6detail7AesImplILm24EE12EncryptBlockEPvmPKvm
 00000000:0000007100005458       aHN
 00000000:000000710000545D       aHNHN
 00000000:00000071000054D8       _ZNK2nn6crypto6detail7AesImplILm24EE12DecryptBlockEPvmPKvm
 00000000:0000007100005560       _ZN2nn6crypto6detail7AesImplILm32EE10InitializeEPKvmb
 00000000:00000071000056D4       aXN_1
 00000000:000000710000575C       _ZNK2nn6crypto6detail7AesImplILm32EE12EncryptBlockEPvmPKvm
 00000000:0000007100005764       aHN_0
 00000000:0000007100005769       aHNHN_0
 00000000:0000007100005778       aHN_1
 00000000:00000071000057F8       _ZNK2nn6crypto6detail7AesImplILm32EE12DecryptBlockEPvmPKvm
 00000000:0000007100005894       _ZNK2nn6crypto6detail7AesImplILm16EE12EncryptBlockEPvmPKvm
 00000000:000000710000589C       aHN_2
 00000000:00000071000058A8       aHN_3
 00000000:000000710000591C       _ZNK2nn6crypto6detail7AesImplILm16EE12DecryptBlockEPvmPKvm
 00000000:0000007100005924       aXN_2
 00000000:0000007100005930       aXN_3
 00000000:00000071000059A4       _ZN2nn6crypto6detail19CbcModeAes128Helper13EncryptBlocksEPvS3_PKviPKNS0_12AesEncryptorILm16EEE
 00000000:0000007100005A3C       _ZN2nn6crypto6detail19CbcModeAes128Helper13DecryptBlocksEPvS3_PKviPKNS0_12AesDecryptorILm16EEE
 00000000:0000007100005C20       _ZN2nn6crypto6detail11CtrModeImplINS0_12AesEncryptorILm16EEEE21ProcessBlocksUnrolledEPvPKvm
 00000000:0000007100005CA0       aHN_4
 00000000:0000007100005E34       _ZN2nn6crypto6detail8Sha1Impl10InitializeEv
 00000000:0000007100005E74       _ZN2nn6crypto6detail8Sha1Impl6UpdateEPKvm
 00000000:0000007100006318       _ZN2nn6crypto6detail8Sha1Impl12ProcessBlockEPKv
 00000000:0000007100006580       _ZN2nn6crypto6detail8Sha1Impl7GetHashEPvm
 00000000:000000710000665C       _ZN2nn6crypto6detail8Sha1Impl16ProcessLastBlockEv
 00000000:0000007100006B2C       _ZN2nn6crypto6detail10Sha256Impl10InitializeEv
 00000000:0000007100006B84       _ZN2nn6crypto6detail10Sha256Impl6UpdateEPKvm
 00000000:0000007100006FF0       _ZN2nn6crypto6detail10Sha256Impl13ProcessBlocksEPKhm
 00000000:00000071000071C4       _ZN2nn6crypto6detail10Sha256Impl7GetHashEPvm
 00000000:0000007100007704       _ZN2nn6crypto6detail10Sha256Impl16ProcessLastBlockEv
 00000000:0000007100007B24       _ZN2nn6crypto6detail10Sha256Impl21InitializeWithContextEPKNS0_13Sha256ContextE
 00000000:0000007100007B58       _ZNK2nn6crypto6detail10Sha256Impl10GetContextEPNS0_13Sha256ContextE
 00000000:0000007100007B88       _ZN2nn6crypto6detail11XtsModeImplINS1_20XtsModeGenericHelperEEC2Ev
 00000000:0000007100007B90       _ZN2nn6crypto6detail11XtsModeImplINS1_20XtsModeGenericHelperEE6UpdateEPvmPKvm
 00000000:0000007100007C6C       _ZN2nn6crypto6detail11XtsModeImplINS1_20XtsModeGenericHelperEE8FinalizeEPvm
 00000000:0000007100007CA0       _ZN2nn6crypto6detail11XtsModeImplINS1_19XtsModeAes128HelperEEC2Ev
 00000000:0000007100007CA8       _ZN2nn6crypto6detail11XtsModeImplINS1_19XtsModeAes128HelperEE6UpdateEPvmPKvm
 00000000:0000007100007DB0       _ZN2nn6crypto6detail19XtsModeAes128Helper15ProcessUnrolledE12__Uint8x16_tRPhRPKhRiPKvb
 00000000:000000710000818C       _ZN2nn6crypto6detail11XtsModeImplINS1_19XtsModeAes128HelperEE8FinalizeEPvm
 00000000:00000071000081C0       _ZN2nn6crypto6detail11GcmModeImplINS1_20GcmModeGenericHelperEEC2Ev
 00000000:00000071000081C8       _ZN2nn6crypto6detail11GcmModeImplINS1_20GcmModeGenericHelperEED2Ev
 00000000:00000071000081D4       _ZN2nn6crypto6detail11GcmModeImplINS1_20GcmModeGenericHelperEE5ResetEPKvm
 00000000:00000071000082D0       _ZN2nn6crypto6detail11GcmModeImplINS1_20GcmModeGenericHelperEE8Block1284ZeroEv
 00000000:00000071000082D8       _ZN2nn6crypto6detail11GcmModeImplINS1_20GcmModeGenericHelperEE9UpdateAadEPKvm
 00000000:0000007100008608       _ZN2nn6crypto6detail11GcmModeImplINS1_20GcmModeGenericHelperEE10ComputeMacEb
 00000000:0000007100008754       _ZN2nn6crypto6detail11GcmModeImplINS1_20GcmModeGenericHelperEE13EncryptUpdateEPvmPKvm
 00000000:0000007100008A10       _ZN2nn6crypto6detail11GcmModeImplINS1_20GcmModeGenericHelperEE13DecryptUpdateEPvmPKvm
 00000000:0000007100008CC8       _ZN2nn6crypto6detail11GcmModeImplINS1_20GcmModeGenericHelperEE6GetMacEPvm
 00000000:0000007100008DA4       _ZN2nn6crypto6detail11GcmModeImplINS1_20GcmModeGenericHelperEE17InitializeHashKeyEv
 00000000:0000007100008E1C       _ZN2nn6crypto6detail11GcmModeImplINS1_20GcmModeGenericHelperEE7GfMultHEPNS4_5BlockE
 00000000:0000007100008E20       _ZN2nn6crypto6detail11GcmModeImplINS1_19GcmModeAes128HelperEEC2Ev
 00000000:0000007100008E28       _ZN2nn6crypto6detail11GcmModeImplINS1_19GcmModeAes128HelperEED2Ev
 00000000:0000007100008E34       _ZN2nn6crypto6detail11GcmModeImplINS1_19GcmModeAes128HelperEE5ResetEPKvm
 00000000:0000007100008F30       _ZN2nn6crypto6detail11GcmModeImplINS1_19GcmModeAes128HelperEE8Block1284ZeroEv
 00000000:0000007100008F38       _ZN2nn6crypto6detail11GcmModeImplINS1_19GcmModeAes128HelperEE9UpdateAadEPKvm
 00000000:0000007100009268       _ZN2nn6crypto6detail11GcmModeImplINS1_19GcmModeAes128HelperEE10ComputeMacEb
 00000000:0000007100009308       _ZN2nn6crypto6detail11GcmModeImplINS1_19GcmModeAes128HelperEE13EncryptUpdateEPvmPKvm
 00000000:0000007100009838       _ZN2nn6crypto6detail19GcmModeAes128Helper7EncryptE12__Uint8x16_tPNS1_11GcmModeImplIS2_EE
 00000000:0000007100009840       aHN_5
 00000000:00000071000098BC       _ZN2nn6crypto6detail11GcmModeImplINS1_19GcmModeAes128HelperEE13DecryptUpdateEPvmPKvm
 00000000:0000007100009E2C       _ZN2nn6crypto6detail11GcmModeImplINS1_19GcmModeAes128HelperEE6GetMacEPvm
 00000000:0000007100009EF8       _ZN2nn6crypto6detail11GcmModeImplINS1_19GcmModeAes128HelperEE17InitializeHashKeyEv
 00000000:0000007100009F5C       _ZN2nn6crypto6detail11GcmModeImplINS1_19GcmModeAes128HelperEE7GfMultHEPNS4_5BlockE
 00000000:0000007100009F60       _ZN2nn4cstd5IsNanEe
 00000000:0000007100009F7C       _ZN2nn4cstd5IsNanEd
 00000000:0000007100009F94       _ZN2nn4cstd5IsNanEf
 00000000:0000007100009FAC       _ZN2nn4cstd5IsInfEe
 00000000:0000007100009FC8       _ZN2nn4cstd5IsInfEd
 00000000:0000007100009FE0       _ZN2nn4cstd5IsInfEf
 00000000:0000007100009FF8       _ZN2nn5image6detail4jpeg19jpeg_CreateCompressEPNS2_20jpeg_compress_structEim
 00000000:000000710000A124       _ZN2nn5image6detail4jpeg21jpeg_destroy_compressEPNS2_20jpeg_compress_structE
 00000000:000000710000A128       _ZN2nn5image6detail4jpeg19jpeg_abort_compressEPNS2_20jpeg_compress_structE
 00000000:000000710000A12C       _ZN2nn5image6detail4jpeg20jpeg_suppress_tablesEPNS2_20jpeg_compress_structEb
 00000000:000000710000A1C4       _ZN2nn5image6detail4jpeg20jpeg_finish_compressEPNS2_20jpeg_compress_structE
 00000000:000000710000A334       _ZN2nn5image6detail4jpeg17jpeg_write_markerEPNS2_20jpeg_compress_structEiPKhj
 00000000:000000710000A3DC       _ZN2nn5image6detail4jpeg19jpeg_write_m_headerEPNS2_20jpeg_compress_structEij
 00000000:000000710000A45C       _ZN2nn5image6detail4jpeg17jpeg_write_m_byteEPNS2_20jpeg_compress_structEi
 00000000:000000710000A468       _ZN2nn5image6detail4jpeg17jpeg_write_tablesEPNS2_20jpeg_compress_structE
 00000000:000000710000A4FC       _ZN2nn5image6detail4jpeg19jpeg_start_compressEPNS2_20jpeg_compress_structEb
 00000000:000000710000A5B0       _ZN2nn5image6detail4jpeg20jpeg_write_scanlinesEPNS2_20jpeg_compress_structEPPhi
 00000000:000000710000A6C4       _ZN2nn5image6detail4jpeg19jpeg_write_raw_dataEPNS2_20jpeg_compress_structEPPPhi
 00000000:000000710000A7F0       _ZN2nn5image6detail4jpeg19jinit_arith_encoderEPNS2_20jpeg_compress_structE
 00000000:000000710000C1C0       _ZN2nn5image6detail4jpeg23jinit_c_coef_controllerEPNS2_20jpeg_compress_structEb
 00000000:000000710000CCB0       _ZN2nn5image6detail4jpeg21jinit_color_converterEPNS2_20jpeg_compress_structE
 00000000:000000710000CE78       def_710000CD84
 00000000:000000710000CF74       nullsub_73
 00000000:000000710000D4E4       _ZN2nn5image6detail4jpeg17jinit_forward_dctEPNS2_20jpeg_compress_structE
 00000000:000000710000D8B0       _ZN2nn5image6detail4jpeg18jinit_huff_encoderEPNS2_20jpeg_compress_structE
 00000000:0000007100012D5C       _ZN2nn5image6detail4jpeg21jinit_compress_masterEPNS2_20jpeg_compress_structE
 00000000:0000007100012E20       _ZN2nn5image6detail4jpeg23jinit_c_main_controllerEPNS2_20jpeg_compress_structEb
 00000000:0000007100013048       _ZN2nn5image6detail4jpeg19jinit_marker_writerEPNS2_20jpeg_compress_structE
 00000000:00000071000158B4       _ZN2nn5image6detail4jpeg25jpeg_calc_jpeg_dimensionsEPNS2_20jpeg_compress_structE
 00000000:00000071000158D0       _ZN2nn5image6detail4jpeg22jinit_c_master_controlEPNS2_20jpeg_compress_structEb
 00000000:0000007100015A10       def_7100015A00
 00000000:0000007100016490       _ZN2nn5image6detail4jpeg10jpeg_abortEPNS2_18jpeg_common_structE
 00000000:00000071000164E4       _ZN2nn5image6detail4jpeg12jpeg_destroyEPNS2_18jpeg_common_structE
 00000000:000000710001651C       _ZN2nn5image6detail4jpeg22jpeg_alloc_quant_tableEPNS2_18jpeg_common_structE
 00000000:0000007100016544       _ZN2nn5image6detail4jpeg21jpeg_alloc_huff_tableEPNS2_18jpeg_common_structE
 00000000:000000710001656C       _ZN2nn5image6detail4jpeg20jpeg_add_quant_tableEPNS2_20jpeg_compress_structEiPKjib
 00000000:00000071000166DC       _ZN2nn5image6detail4jpeg20jpeg_default_qtablesEPNS2_20jpeg_compress_structEb
 00000000:000000710001695C       _ZN2nn5image6detail4jpeg23jpeg_set_linear_qualityEPNS2_20jpeg_compress_structEib
 00000000:0000007100016BC4       _ZN2nn5image6detail4jpeg20jpeg_quality_scalingEi
 00000000:0000007100016BFC       _ZN2nn5image6detail4jpeg16jpeg_set_qualityEPNS2_20jpeg_compress_structEib
 00000000:0000007100016C3C       _ZN2nn5image6detail4jpeg17jpeg_set_defaultsEPNS2_20jpeg_compress_structE
 00000000:0000007100016E2C       _ZN2nn5image6detail4jpeg23jpeg_default_colorspaceEPNS2_20jpeg_compress_structE
 00000000:0000007100017158       def_7100016E58
 00000000:000000710001717C       _ZN2nn5image6detail4jpeg19jpeg_set_colorspaceEPNS2_20jpeg_compress_structENS2_13J_COLOR_SPACEE
 00000000:00000071000173B0       def_71000171EC
 00000000:0000007100017564       _ZN2nn5image6detail4jpeg23jinit_c_prep_controllerEPNS2_20jpeg_compress_structEb
 00000000:0000007100017E44       _ZN2nn5image6detail4jpeg17jinit_downsamplerEPNS2_20jpeg_compress_structE
 00000000:0000007100018098       nullsub_74
 00000000:0000007100018E1C       _ZN2nn5image6detail4jpeg21jpeg_CreateDecompressEPNS2_22jpeg_decompress_structEim
 00000000:0000007100018F24       _ZN2nn5image6detail4jpeg23jpeg_destroy_decompressEPNS2_22jpeg_decompress_structE
 00000000:0000007100018F28       _ZN2nn5image6detail4jpeg21jpeg_abort_decompressEPNS2_22jpeg_decompress_structE
 00000000:0000007100018F2C       _ZN2nn5image6detail4jpeg16jpeg_read_headerEPNS2_22jpeg_decompress_structEb
 00000000:0000007100018FD0       _ZN2nn5image6detail4jpeg18jpeg_consume_inputEPNS2_22jpeg_decompress_structE
 00000000:0000007100019088       def_7100019004
 00000000:000000710001924C       _ZN2nn5image6detail4jpeg19jpeg_input_completeEPNS2_22jpeg_decompress_structE
 00000000:00000071000192A8       _ZN2nn5image6detail4jpeg23jpeg_has_multiple_scansEPNS2_22jpeg_decompress_structE
 00000000:0000007100019304       _ZN2nn5image6detail4jpeg22jpeg_finish_decompressEPNS2_22jpeg_decompress_structE
 00000000:00000071000193F4       _ZN2nn5image6detail4jpeg21jpeg_start_decompressEPNS2_22jpeg_decompress_structE
 00000000:0000007100019588       _ZN2nn5image6detail4jpeg19jpeg_read_scanlinesEPNS2_22jpeg_decompress_structEPPhi
 00000000:0000007100019678       _ZN2nn5image6detail4jpeg18jpeg_read_raw_dataEPNS2_22jpeg_decompress_structEPPPhi
 00000000:0000007100019790       _ZN2nn5image6detail4jpeg17jpeg_start_outputEPNS2_22jpeg_decompress_structEi
 00000000:0000007100019888       _ZN2nn5image6detail4jpeg18jpeg_finish_outputEPNS2_22jpeg_decompress_structE
 00000000:0000007100019944       _ZN2nn5image6detail4jpeg19jinit_arith_decoderEPNS2_22jpeg_decompress_structE
 00000000:000000710001AB80       _ZN2nn5image6detail4jpeg12jpeg_mem_srcEPNS2_22jpeg_decompress_structEPhm
 00000000:000000710001AC2C       nullsub_75
 00000000:000000710001ACFC       nullsub_76
 00000000:000000710001AD00       _ZN2nn5image6detail4jpeg23jinit_d_coef_controllerEPNS2_22jpeg_decompress_structEb
 00000000:000000710001B578       _ZN2nn5image6detail4jpeg23jinit_color_deconverterEPNS2_22jpeg_decompress_structE
 00000000:000000710001B944       nullsub_77
 00000000:000000710001BCD8       _ZN2nn5image6detail4jpeg17jinit_inverse_dctEPNS2_22jpeg_decompress_structE
 00000000:000000710001C2D8       _ZN2nn5image6detail4jpeg18jinit_huff_decoderEPNS2_22jpeg_decompress_structE
 00000000:000000710001C5C4       def_710001C5B0
 00000000:000000710001E38C       _ZN2nn5image6detail4jpeg27jpeg_core_output_dimensionsEPNS2_22jpeg_decompress_structE
 00000000:000000710001E6B0       _ZN2nn5image6detail4jpeg22jinit_input_controllerEPNS2_22jpeg_decompress_structE
 00000000:000000710001EBE4       def_710001E930
 00000000:000000710001EFC4       _ZN2nn5image6detail4jpeg23jinit_d_main_controllerEPNS2_22jpeg_decompress_structEb
 00000000:000000710001F888       _ZN2nn5image6detail4jpeg22jpeg_resync_to_restartEPNS2_22jpeg_decompress_structEi
 00000000:000000710001FB70       _ZN2nn5image6detail4jpeg19jinit_marker_readerEPNS2_22jpeg_decompress_structE
 00000000:000000710001FDD0       def_710001FD50
 00000000:00000071000205CC       def_71000205A4
 00000000:00000071000210B0       _ZN2nn5image6detail4jpeg17jpeg_save_markersEPNS2_22jpeg_decompress_structEij
 00000000:00000071000214C0       _ZN2nn5image6detail4jpeg25jpeg_set_marker_processorEPNS2_22jpeg_decompress_structEiPFbS4_E
 00000000:0000007100021B38       _ZN2nn5image6detail4jpeg27jpeg_calc_output_dimensionsEPNS2_22jpeg_decompress_structE
 00000000:0000007100021E5C       _ZN2nn5image6detail4jpeg17jpeg_new_colormapEPNS2_22jpeg_decompress_structE
 00000000:0000007100021F04       _ZN2nn5image6detail4jpeg23jinit_master_decompressEPNS2_22jpeg_decompress_structE
 00000000:0000007100022464       _ZN2nn5image6detail4jpeg22jinit_merged_upsamplerEPNS2_22jpeg_decompress_structE
 00000000:0000007100022A78       _ZN2nn5image6detail4jpeg23jinit_d_post_controllerEPNS2_22jpeg_decompress_structEb
 00000000:0000007100022C4C       _ZN2nn5image6detail4jpeg15jinit_upsamplerEPNS2_22jpeg_decompress_structE
 00000000:0000007100023404       _ZN2nn5image6detail4jpeg14jpeg_std_errorEPNS2_14jpeg_error_mgrE
 00000000:00000071000234EC       nullsub_78
 00000000:00000071000234F0       nullsub_79
 00000000:0000007100023508       _ZN2nn5image6detail4jpeg15jpeg_fdct_ifastEPiPPhi
 00000000:00000071000236F4       _ZN2nn5image6detail4jpeg15jpeg_fdct_islowEPiPPhi
 00000000:0000007100023974       _ZN2nn5image6detail4jpeg15jpeg_idct_ifastEPNS2_22jpeg_decompress_structEPNS2_19jpeg_component_infoEPsPPhi
 00000000:0000007100023CF4       _ZN2nn5image6detail4jpeg15jpeg_idct_islowEPNS2_22jpeg_decompress_structEPNS2_19jpeg_component_infoEPsPPhi
 00000000:00000071000240E4       _ZN2nn5image6detail4jpeg13jpeg_idct_7x7EPNS2_22jpeg_decompress_structEPNS2_19jpeg_component_infoEPsPPhi
 00000000:00000071000243CC       _ZN2nn5image6detail4jpeg13jpeg_idct_6x6EPNS2_22jpeg_decompress_structEPNS2_19jpeg_component_infoEPsPPhi
 00000000:00000071000245C4       _ZN2nn5image6detail4jpeg13jpeg_idct_5x5EPNS2_22jpeg_decompress_structEPNS2_19jpeg_component_infoEPsPPhi
 00000000:0000007100024778       _ZN2nn5image6detail4jpeg13jpeg_idct_4x4EPNS2_22jpeg_decompress_structEPNS2_19jpeg_component_infoEPsPPhi
 00000000:0000007100024A20       _ZN2nn5image6detail4jpeg13jpeg_idct_3x3EPNS2_22jpeg_decompress_structEPNS2_19jpeg_component_infoEPsPPhi
 00000000:0000007100024C40       _ZN2nn5image6detail4jpeg13jpeg_idct_2x2EPNS2_22jpeg_decompress_structEPNS2_19jpeg_component_infoEPsPPhi
 00000000:0000007100024CE0       _ZN2nn5image6detail4jpeg13jpeg_idct_1x1EPNS2_22jpeg_decompress_structEPNS2_19jpeg_component_infoEPsPPhi
 00000000:0000007100024D10       _ZN2nn5image6detail4jpeg13jpeg_idct_9x9EPNS2_22jpeg_decompress_structEPNS2_19jpeg_component_infoEPsPPhi
 00000000:000000710002505C       _ZN2nn5image6detail4jpeg15jpeg_idct_10x10EPNS2_22jpeg_decompress_structEPNS2_19jpeg_component_infoEPsPPhi
 00000000:00000071000253D8       _ZN2nn5image6detail4jpeg15jpeg_idct_11x11EPNS2_22jpeg_decompress_structEPNS2_19jpeg_component_infoEPsPPhi
 00000000:000000710002585C       _ZN2nn5image6detail4jpeg15jpeg_idct_12x12EPNS2_22jpeg_decompress_structEPNS2_19jpeg_component_infoEPsPPhi
 00000000:0000007100025C78       _ZN2nn5image6detail4jpeg15jpeg_idct_13x13EPNS2_22jpeg_decompress_structEPNS2_19jpeg_component_infoEPsPPhi
 00000000:0000007100026210       _ZN2nn5image6detail4jpeg15jpeg_idct_14x14EPNS2_22jpeg_decompress_structEPNS2_19jpeg_component_infoEPsPPhi
 00000000:00000071000266E0       _ZN2nn5image6detail4jpeg15jpeg_idct_15x15EPNS2_22jpeg_decompress_structEPNS2_19jpeg_component_infoEPsPPhi
 00000000:0000007100026C48       _ZN2nn5image6detail4jpeg15jpeg_idct_16x16EPNS2_22jpeg_decompress_structEPNS2_19jpeg_component_infoEPsPPhi
 00000000:0000007100027270       _ZN2nn5image6detail4jpeg14jpeg_idct_16x8EPNS2_22jpeg_decompress_structEPNS2_19jpeg_component_infoEPsPPhi
 00000000:000000710002777C       _ZN2nn5image6detail4jpeg14jpeg_idct_14x7EPNS2_22jpeg_decompress_structEPNS2_19jpeg_component_infoEPsPPhi
 00000000:0000007100027B58       _ZN2nn5image6detail4jpeg14jpeg_idct_12x6EPNS2_22jpeg_decompress_structEPNS2_19jpeg_component_infoEPsPPhi
 00000000:0000007100027E78       _ZN2nn5image6detail4jpeg14jpeg_idct_10x5EPNS2_22jpeg_decompress_structEPNS2_19jpeg_component_infoEPsPPhi
 00000000:0000007100028130       _ZN2nn5image6detail4jpeg13jpeg_idct_8x4EPNS2_22jpeg_decompress_structEPNS2_19jpeg_component_infoEPsPPhi
 00000000:000000710002837C       _ZN2nn5image6detail4jpeg13jpeg_idct_6x3EPNS2_22jpeg_decompress_structEPNS2_19jpeg_component_infoEPsPPhi
 00000000:00000071000284F8       _ZN2nn5image6detail4jpeg13jpeg_idct_4x2EPNS2_22jpeg_decompress_structEPNS2_19jpeg_component_infoEPsPPhi
 00000000:0000007100028698       _ZN2nn5image6detail4jpeg13jpeg_idct_2x1EPNS2_22jpeg_decompress_structEPNS2_19jpeg_component_infoEPsPPhi
 00000000:00000071000286E8       _ZN2nn5image6detail4jpeg14jpeg_idct_8x16EPNS2_22jpeg_decompress_structEPNS2_19jpeg_component_infoEPsPPhi
 00000000:0000007100028B60       _ZN2nn5image6detail4jpeg14jpeg_idct_7x14EPNS2_22jpeg_decompress_structEPNS2_19jpeg_component_infoEPsPPhi
 00000000:0000007100028F30       _ZN2nn5image6detail4jpeg14jpeg_idct_6x12EPNS2_22jpeg_decompress_structEPNS2_19jpeg_component_infoEPsPPhi
 00000000:0000007100029260       _ZN2nn5image6detail4jpeg14jpeg_idct_5x10EPNS2_22jpeg_decompress_structEPNS2_19jpeg_component_infoEPsPPhi
 00000000:000000710002952C       _ZN2nn5image6detail4jpeg13jpeg_idct_4x8EPNS2_22jpeg_decompress_structEPNS2_19jpeg_component_infoEPsPPhi
 00000000:0000007100029810       _ZN2nn5image6detail4jpeg13jpeg_idct_3x6EPNS2_22jpeg_decompress_structEPNS2_19jpeg_component_infoEPsPPhi
 00000000:00000071000299A0       _ZN2nn5image6detail4jpeg13jpeg_idct_2x4EPNS2_22jpeg_decompress_structEPNS2_19jpeg_component_infoEPsPPhi
 00000000:0000007100029B58       _ZN2nn5image6detail4jpeg13jpeg_idct_1x2EPNS2_22jpeg_decompress_structEPNS2_19jpeg_component_infoEPsPPhi
 00000000:0000007100029BB0       _ZN2nn5image6detail4jpeg14jpeg_get_smallEPNS2_18jpeg_common_structEm
 00000000:0000007100029BE0       _ZN2nn5image6detail4jpeg15jpeg_free_smallEPNS2_18jpeg_common_structEPvm
 00000000:0000007100029BE4       _ZN2nn5image6detail4jpeg14jpeg_get_largeEPNS2_18jpeg_common_structEm
 00000000:0000007100029C14       _ZN2nn5image6detail4jpeg15jpeg_free_largeEPNS2_18jpeg_common_structEPvm
 00000000:0000007100029C18       _ZN2nn5image6detail4jpeg18jpeg_mem_availableEPNS2_18jpeg_common_structElll
 00000000:0000007100029C20       _ZN2nn5image6detail4jpeg23jpeg_open_backing_storeEPNS2_18jpeg_common_structEPNS2_20backing_store_structEl
 00000000:0000007100029C38       _ZN2nn5image6detail4jpeg13jpeg_mem_initEPNS2_18jpeg_common_structE
 00000000:0000007100029C48       _ZN2nn5image6detail4jpeg13jpeg_mem_termEPNS2_18jpeg_common_structE
 00000000:0000007100029C54       _ZN2nn5image6detail4jpeg13jdiv_round_upEll
 00000000:0000007100029C64       _ZN2nn5image6detail4jpeg9jround_upEll
 00000000:0000007100029C78       _ZN2nn5image6detail4jpeg17jcopy_sample_rowsEPPhiS4_iii
 00000000:0000007100029CCC       _ZN2nn5image6detail4jpeg15jcopy_block_rowEPA64_sS4_i
 00000000:0000007100029CE0       _ZN2nn5image6detail4jpeg9jzero_farEPvm
 00000000:0000007100029CF0       _ZN2nn5image6detail4jpeg13jpeg_mem_destEPNS2_20jpeg_compress_structEPPhPm
 00000000:0000007100029DDC       nullsub_80
 00000000:0000007100029E40       _ZN2nn5image6detail4jpeg16jinit_memory_mgrEPNS2_18jpeg_common_structE
 00000000:000000710002B2B8       _ZN2nn5image6detail18HandleLibjpegErrorEPNS1_4jpeg18jpeg_common_structE
 00000000:000000710002B34C       _ZN2nn5image6detail14ReadTiffHeaderEPNS1_8BinaryIoEPtPKht
 00000000:000000710002B464       _ZN2nn5image6detail13ReadIfdHeaderEPNS1_9IfdHeaderEtRKNS1_10ExifBinaryE
 00000000:000000710002B53C       _ZN2nn5image6detail13SearchIfdTagsEPNS1_6IfdTagEtRKNS1_9IfdHeaderERKNS1_10ExifBinaryE
 00000000:000000710002B7EC       _ZN2nn5image6detail20InitializeTiffHeaderEPNS1_10TiffHeaderENS1_6EndianE
 00000000:000000710002B880       _ZN2nn5image6detail15WriteTiffHeaderEPhtRKNS1_10TiffHeaderE
 00000000:000000710002B8C8       _ZN2nn5image6detail19InitializeIfdHeaderEPNS1_9IfdHeaderEPKNS1_12ValuedIfdTagEtt
 00000000:000000710002B9A0       _ZN2nn5image6detail8WriteIfdEPhtPKNS1_12ValuedIfdTagERKNS1_9IfdHeaderERKNS1_8BinaryIoE
 00000000:000000710002BE40       def_710002BB20
 00000000:000000710002BEE0       aS
 00000000:000000710002BF10       _ZN2nn5image6detail8CheckSoiEPKhm
 00000000:000000710002BF30       _ZN2nn5image6detail14ReadJpegHeaderEPNS1_8JpegInfoEPKhmj
 00000000:000000710002CF74       _ZN2nn5image6detail13SetJpegHeaderEPNS1_8JpegInfoEttNS0_17JpegSamplingRatioE
 00000000:000000710002D074       _ZN2nn5image6detail11GetExifInfoEPPKvPtPKhm
 00000000:000000710002D154       _ZN2nn5image6detail15WriteExifHeaderEPvm
 00000000:000000710002D364       _ZN2nn5image6detail17ExtractExifRegionEPPKvPmS3_m
 00000000:000000710002D3E0       _ZN2nn5image6detail17ExtractJpegHeaderEPNS1_10JpegHeaderEPKvmi
 00000000:000000710002DB34       _ZN2nn5image6detail31GetBufferSizeForJpegCompressionEPmRKNS0_9DimensionENS0_17JpegSamplingRatioE
 00000000:000000710002DDE8       _ZN2nn5image11JpegDecoderC2Ev
 00000000:000000710002DE08       _ZN2nn5image11JpegDecoderD2Ev
 00000000:000000710002DE0C       _ZN2nn5image11JpegDecoderD0Ev
 00000000:000000710002DE10       _ZN2nn5image11JpegDecoder12SetImageDataEPKvm
 00000000:000000710002DE20       _ZN2nn5image11JpegDecoder24SetResolutionDenominatorEi
 00000000:000000710002DE38       _ZN2nn5image11JpegDecoder14SetPixelFormatENS0_11PixelFormatE
 00000000:000000710002DE74       _ZN2nn5image11JpegDecoder7AnalyzeEv
 00000000:000000710002DF54       _ZNK2nn5image11JpegDecoder20GetAnalyzedDimensionEv
 00000000:000000710002DF5C       _ZNK2nn5image11JpegDecoder25GetAnalyzedWorkBufferSizeEv
 00000000:000000710002DF64       _ZNK2nn5image11JpegDecoder19GetAnalyzedExifDataEPm
 00000000:000000710002DF84       _ZN2nn5image11JpegDecoder6DecodeEPvmiS2_m
 00000000:000000710002E3C8       _ZN2nn5image11JpegDecoder30DecodeWithPreconfiguredDecoderEPvmiPKvmRKS1_S2_m
 00000000:000000710002E42C       _ZN2nn5image11JpegDecoder11GetExifDataEPPKvPmS3_m
 00000000:000000710002E430       _ZN2nn5image11JpegEncoderC2Ev
 00000000:000000710002E454       _ZN2nn5image11JpegEncoderD2Ev
 00000000:000000710002E458       _ZN2nn5image11JpegEncoderD0Ev
 00000000:000000710002E45C       _ZN2nn5image11JpegEncoder12SetPixelDataEPKvNS0_11PixelFormatERKNS0_9DimensionEi
 00000000:000000710002E4A0       _ZN2nn5image11JpegEncoder10SetQualityEi
 00000000:000000710002E4B8       _ZN2nn5image11JpegEncoder16SetSamplingRatioENS0_17JpegSamplingRatioE
 00000000:000000710002E4D0       _ZN2nn5image11JpegEncoder7AnalyzeEv
 00000000:000000710002E580       _ZNK2nn5image11JpegEncoder25GetAnalyzedWorkBufferSizeEv
 00000000:000000710002E588       _ZN2nn5image11JpegEncoder6EncodeEPmPvmS3_mPNS0_11ExifBuilderE
 00000000:000000710002EB18       _ZN2nn5image11ExifBuilder17GetWorkBufferSizeEv
 00000000:000000710002EB20       _ZN2nn5image11ExifBuilderC2EPvm
 00000000:000000710002EB68       _ZN2nn5image11ExifBuilderD2Ev
 00000000:000000710002EB6C       _ZN2nn5image11ExifBuilderD0Ev
 00000000:000000710002EB70       _ZN2nn5image11ExifBuilder14SetOrientationENS0_15ExifOrientationE
 00000000:000000710002EB84       _ZN2nn5image11ExifBuilder11SetSoftwareEPKcm
 00000000:000000710002EBA4       _ZN2nn5image11ExifBuilder11SetDateTimeEPKcm
 00000000:000000710002EBB8       _ZN2nn5image11ExifBuilder12SetMakerNoteEPKvm
 00000000:000000710002EBD8       _ZN2nn5image11ExifBuilder11SetUniqueIdEPKcm
 00000000:000000710002EBEC       _ZN2nn5image11ExifBuilder12SetThumbnailEPKvm
 00000000:000000710002EC0C       _ZN2nn5image11ExifBuilder7AnalyzeEv
 00000000:000000710002F0E0       _ZNK2nn5image11ExifBuilder21GetAnalyzedOutputSizeEv
 00000000:000000710002F0E8       _ZN2nn5image11ExifBuilder5BuildEPvmRKNS0_9DimensionE
 00000000:000000710002F1D8       _ZN2nn5image13ExifExtractor17GetWorkBufferSizeEv
 00000000:000000710002F1E0       _ZN2nn5image13ExifExtractorC2EPvm
 00000000:000000710002F1FC       _ZN2nn5image13ExifExtractorD2Ev
 00000000:000000710002F200       _ZN2nn5image13ExifExtractorD0Ev
 00000000:000000710002F204       _ZN2nn5image13ExifExtractor11SetExifDataEPKvm
 00000000:000000710002F218       _ZN2nn5image13ExifExtractor7AnalyzeEv
 00000000:000000710002F4C4       _ZNK2nn5image13ExifExtractor12ExtractMakerEPm
 00000000:000000710002F544       _ZNK2nn5image13ExifExtractor12ExtractModelEPm
 00000000:000000710002F5C4       _ZNK2nn5image13ExifExtractor18ExtractOrientationEPNS0_15ExifOrientationE
 00000000:000000710002F62C       _ZNK2nn5image13ExifExtractor15ExtractSoftwareEPm
 00000000:000000710002F6AC       _ZNK2nn5image13ExifExtractor15ExtractDateTimeEPm
 00000000:000000710002F730       _ZNK2nn5image13ExifExtractor16ExtractMakerNoteEPm
 00000000:000000710002F758       _ZNK2nn5image13ExifExtractor25ExtractEffectiveDimensionEPNS0_9DimensionE
 00000000:000000710002F838       _ZNK2nn5image13ExifExtractor15ExtractUniqueIdEPm
 00000000:000000710002F8BC       _ZNK2nn5image13ExifExtractor16ExtractThumbnailEPm
 00000000:000000710002F998       nnutilZlib_adler32
 00000000:000000710002FD48       nnutilZlib_adler32_combine
 00000000:000000710002FE10       nnutilZlib_adler32_combine64
 00000000:000000710002FED8       nnutilZlib_get_crc_table
 00000000:000000710002FEE4       nnutilZlib_crc32
 00000000:00000071000301C0       nnutilZlib_crc32_combine
 00000000:00000071000301C4       nnutilZlib_crc32_combine64_0
 00000000:0000007100030480       nnutilZlib_crc32_combine64
 00000000:0000007100030484       nnutilZlib_deflateInit_
 00000000:00000071000304A8       nnutilZlib_deflateInit2_
 00000000:00000071000307AC       nnutilZlib_deflateEnd
 00000000:0000007100030890       nnutilZlib_deflateReset
 00000000:00000071000309CC       nnutilZlib_deflateSetDictionary
 00000000:0000007100030F3C       nnutilZlib_deflateResetKeep
 00000000:0000007100030FFC       nnutilZlib_deflateSetHeader
 00000000:0000007100031038       nnutilZlib_deflatePending
 00000000:0000007100031084       nnutilZlib_deflatePrime
 00000000:0000007100031138       nnutilZlib_deflateParams
 00000000:0000007100031230       nnutilZlib_deflate
 00000000:0000007100032720       nnutilZlib_deflateTune
 00000000:000000710003274C       nnutilZlib_deflateBound
 00000000:0000007100032844       nnutilZlib_deflateCopy
 00000000:0000007100033C88       nnutilZlib_inflateBackInit_
 00000000:0000007100033D58       nnutilZlib_inflateBack
 00000000:0000007100034BE4       def_7100033E70
 00000000:0000007100034C18       nnutilZlib_inflateBackEnd
 00000000:0000007100034C60       nnutilZlib_inflate_fast
 00000000:00000071000354AC       nnutilZlib_inflateResetKeep
 00000000:000000710003551C       nnutilZlib_inflateReset
 00000000:00000071000355A4       nnutilZlib_inflateReset2
 00000000:00000071000356A0       nnutilZlib_inflateInit2_
 00000000:0000007100035770       nnutilZlib_inflateInit_
 00000000:00000071000358C4       nnutilZlib_inflatePrime
 00000000:000000710003594C       nnutilZlib_inflate
 00000000:0000007100037208       nnutilZlib_inflateEnd
 00000000:000000710003726C       nnutilZlib_inflateGetDictionary
 00000000:00000071000372F8       nnutilZlib_inflateSetDictionary
 00000000:00000071000373AC       nnutilZlib_inflateGetHeader
 00000000:00000071000373E8       nnutilZlib_inflateSync
 00000000:00000071000376AC       nnutilZlib_inflateSyncPoint
 00000000:00000071000376EC       nnutilZlib_inflateCopy
 00000000:0000007100037838       nnutilZlib_inflateUndermine
 00000000:0000007100037864       nnutilZlib_inflateMark
 00000000:00000071000378C0       nnutilZlib_inflate_table
 00000000:0000007100037EE8       nnutilZlib__tr_init
 00000000:0000007100038024       nnutilZlib__tr_stored_block
 00000000:00000071000381F0       nnutilZlib__tr_flush_bits
 00000000:0000007100038280       nnutilZlib__tr_align
 00000000:00000071000383CC       nnutilZlib__tr_flush_block
 00000000:000000710003957C       nnutilZlib__tr_tally
 00000000:0000007100039BDC       nnutilZlib_zlibVersion
 00000000:0000007100039BE8       nnutilZlib_zlibCompileFlags
 00000000:0000007100039BF0       nnutilZlib_zError
 00000000:0000007100039C08       nnutilZlib_zcalloc
 00000000:0000007100039C10       nnutilZlib_zcfree
 00000000:0000007100039C18       Libz_SigloMiddlewareInfo
 00000000:0000007100039C24       _ZN2nn4util6Base6414ToBase64StringEPcmPKvmNS1_4ModeE
 00000000:0000007100039F44       _ZN2nn4util6Base6416FromBase64StringEPmPvmPKcNS1_4ModeE
 00000000:0000007100039F54       _ZN2nn4util6Base6416FromBase64StringEPmPvmPKcmNS1_4ModeE
 00000000:000000710003A1F0       _ZNK2nn4util16BinaryFileHeader7IsValidEliii
 00000000:000000710003A258       _ZNK2nn4util16BinaryFileHeader16IsSignatureValidEl
 00000000:000000710003A268       _ZNK2nn4util16BinaryFileHeader14IsVersionValidEiii
 00000000:000000710003A28C       _ZNK2nn4util16BinaryFileHeader13IsEndianValidEv
 00000000:000000710003A29C       _ZNK2nn4util16BinaryFileHeader16IsAlignmentValidEv
 00000000:000000710003A2B8       _ZNK2nn4util16BinaryFileHeader15IsEndianReverseEv
 00000000:000000710003A2C8       _ZNK2nn4util16BinaryFileHeader12GetAlignmentEv
 00000000:000000710003A2D8       _ZNK2nn4util16BinaryFileHeader11IsRelocatedEv
 00000000:000000710003A2E4       _ZN2nn4util16BinaryFileHeader12SetRelocatedEb
 00000000:000000710003A2F4       _ZN2nn4util16BinaryFileHeader16SetByteOrderMarkENS0_13ByteOrderMarkE
 00000000:000000710003A2FC       _ZN2nn4util16BinaryFileHeader14SetAddressSizeEv
 00000000:000000710003A308       _ZNK2nn4util16BinaryFileHeader11GetFileSizeEv
 00000000:000000710003A310       _ZN2nn4util16BinaryFileHeader11SetFileSizeEm
 00000000:000000710003A318       _ZN2nn4util16BinaryFileHeader12SetAlignmentEm
 00000000:000000710003A364       _ZNK2nn4util16BinaryFileHeader11GetFileNameEv
 00000000:000000710003A3A8       _ZN2nn4util16BinaryFileHeader11SetFileNameERKNS0_17basic_string_viewIcNSt3__111char_traitsIcEEEE
 00000000:000000710003A3C8       _ZN2nn4util16BinaryFileHeader18GetRelocationTableEv
 00000000:000000710003A3DC       _ZN2nn4util16BinaryFileHeader18SetRelocationTableEPNS0_15RelocationTableE
 00000000:000000710003A3F4       _ZN2nn4util16BinaryFileHeader13GetFirstBlockEv
 00000000:000000710003A408       _ZNK2nn4util16BinaryFileHeader13GetFirstBlockEv
 00000000:000000710003A41C       _ZN2nn4util16BinaryFileHeader14FindFirstBlockEi
 00000000:000000710003A490       _ZN2nn4util17BinaryBlockHeader13FindNextBlockEi
 00000000:000000710003A4D4       _ZNK2nn4util16BinaryFileHeader14FindFirstBlockEi
 00000000:000000710003A548       _ZNK2nn4util17BinaryBlockHeader13FindNextBlockEi
 00000000:000000710003A58C       _ZN2nn4util16BinaryFileHeader13SetFirstBlockEPNS0_17BinaryBlockHeaderE
 00000000:000000710003A5A0       _ZN2nn4util17BinaryBlockHeader12GetNextBlockEv
 00000000:000000710003A5B4       _ZNK2nn4util17BinaryBlockHeader12GetNextBlockEv
 00000000:000000710003A5C8       _ZNK2nn4util17BinaryBlockHeader12GetBlockSizeEv
 00000000:000000710003A5D0       _ZN2nn4util17BinaryBlockHeader12SetNextBlockEPS1_
 00000000:000000710003A5E4       _ZN2nn4util17BinaryBlockHeader12SetBlockSizeEm
 00000000:000000710003A5EC       _ZN2nn4util15RelocationTable7Section6SetPtrEPv
 00000000:000000710003A5F4       _ZNK2nn4util15RelocationTable7Section6GetPtrEv
 00000000:000000710003A5FC       _ZNK2nn4util15RelocationTable7Section12GetPtrInFileEPv
 00000000:000000710003A608       _ZNK2nn4util15RelocationTable7Section10GetBasePtrEPv
 00000000:000000710003A620       _ZNK2nn4util15RelocationTable7Section7GetSizeEv
 00000000:000000710003A628       _ZN2nn4util15RelocationTable8RelocateEv
 00000000:000000710003A798       _ZN2nn4util15RelocationTable10UnrelocateEv
 00000000:000000710003A90C       _ZN2nn4util15RelocationTable10GetSectionEi
 00000000:000000710003A91C       _ZNK2nn4util15RelocationTable10GetSectionEi
 00000000:000000710003A92C       _ZN2nn4util15RelocationTable12SetSignatureEv
 00000000:000000710003A93C       _ZN2nn4util15RelocationTable13CalculateSizeEii
 00000000:000000710003A954       _ZNK2nn4util10StringPool14GetStringCountEv
 00000000:000000710003A95C       _ZN2nn4util10StringPool14SetStringCountEi
 00000000:000000710003A964       _ZN2nn4util10StringPool12SetSignatureEv
 00000000:000000710003A974       _ZN2nn4util8BitArray3setEv
 00000000:000000710003A9FC       _ZN2nn4util8BitArray5resetEv
 00000000:000000710003AA44       _ZN2nn4util8BitArray4flipEv
 00000000:000000710003AAC0       _ZNK2nn4util8BitArray5countEv
 00000000:000000710003AB34       _ZNK2nn4util8BitArray4noneEv
 00000000:000000710003AB80       _ZNK2nn4util8BitArray3allEv
 00000000:000000710003ABFC       _ZN2nn4util8BitArray3AndEPS1_RKS1_S4_
 00000000:000000710003AC48       _ZN2nn4util8BitArray2OrEPS1_RKS1_S4_
 00000000:000000710003AC94       _ZN2nn4util8BitArray3XorEPS1_RKS1_S4_
 00000000:000000710003AD38       _ZN2nn4util8BitArray3NotEPS1_RKS1_
 00000000:000000710003ADBC       _ZN2nn4util8BitArray10RightShiftEPS1_RKS1_i
 00000000:000000710003AF78       _ZN2nn4util8BitArray9LeftShiftEPS1_RKS1_i
 00000000:000000710003B0C8       _ZNK2nn4util8BitArrayeqERKS1_
 00000000:000000710003B124       _ZN2nn4util12CompressZlibEPmPvmPKvmS2_m
 00000000:000000710003B244       _ZN2nn4util12CompressZlibEPmPvmPKvmS2_mii
 00000000:000000710003B274       _ZN2nn4util12CompressGzipEPmPvmPKvmS2_m
 00000000:000000710003B2A8       _ZN2nn4util12CompressGzipEPmPvmPKvmS2_mii
 00000000:000000710003B2D8       _ZN2nn4util15CompressDeflateEPmPvmPKvmS2_m
 00000000:000000710003B30C       _ZN2nn4util15CompressDeflateEPmPvmPKvmS2_mii
 00000000:000000710003B33C       _ZN2nn4util6detail13ZlibAllocator8AllocateEPvjj
 00000000:000000710003B364       _ZN2nn4util6detail13ZlibAllocator4FreeEPvS3_
 00000000:000000710003B368       _ZN2nn4util28GetCountryFromIso31661Alpha2EPNS0_7CountryEPKcm
 00000000:000000710003B40C       _ZN2nn4util23GetGzipDecompressedSizeEPKvm
 00000000:000000710003B418       _ZN2nn4util14DecompressZlibEPvmPKvmS1_m
 00000000:000000710003B520       _ZN2nn4util14DecompressGzipEPvmPKvmS1_m
 00000000:000000710003B528       _ZN2nn4util17DecompressDeflateEPvmPKvmS1_m
 00000000:000000710003B530       _ZN2nn4util16IntrusiveDicNode5EraseEPPS1_Pi
 00000000:000000710003B5E4       _ZN2nn4util16IntrusiveDicNode13ExtractRefBitERKNS0_17basic_string_viewIcNSt3__111char_traitsIcEEEEi
 00000000:000000710003B61C       _ZN2nn4util16IntrusiveDicNode11InsertChildEPPS1_PiRKNS0_17basic_string_viewIcNSt3__111char_traitsIcEEEE
 00000000:000000710003B6F0       _ZN2nn4util16IntrusiveDicNode10FindRefBitEPKS1_
 00000000:000000710003B79C       _ZNK2nn4util6detail16IntrusiveDicImpl8FindImplERKNS0_17basic_string_viewIcNSt3__111char_traitsIcEEEE
 00000000:000000710003B800       _ZN2nn4util6detail16IntrusiveDicImpl10InsertImplEPNS0_16IntrusiveDicNodeE
 00000000:000000710003B938       _ZN2nn4util6detail16IntrusiveDicImpl9EraseImplEPNS0_16IntrusiveDicNodeE
 00000000:000000710003BAA0       _ZNK2nn4util6detail16IntrusiveDicImpl8FindIterEv
 00000000:000000710003BAE0       _ZN2nn4util6detail16IntrusiveDicImpl8MoveIterEPKNS0_16IntrusiveDicNodeEi
 00000000:000000710003BBA8       _ZN2nn4util6detail16IntrusiveDicImpl10FindParentEPKNS0_16IntrusiveDicNodeE
 00000000:000000710003BC08       _ZN2nn4util6ResDic5BuildEv
 00000000:000000710003BF30       _ZN2nn4util6ResDic10FindRefBitERKNS0_17basic_string_viewIcNSt3__111char_traitsIcEEEES8_
 00000000:000000710003BFD8       _ZN2nn4util10SwapEndianEPNS0_9ResEndianEPNS0_6ResDicE
 00000000:000000710003C07C       _ZN2nn4util10SwapEndianEPNS0_9ResEndianEPNS0_10StringPoolE
 00000000:000000710003C180       _ZN2nn4util40InitializeStreamingDecompressZlibContextEPNS0_30StreamingDecompressZlibContextE
 00000000:000000710003C204       _ZN2nn4util40InitializeStreamingDecompressGzipContextEPNS0_30StreamingDecompressZlibContextE
 00000000:000000710003C288       _ZN2nn4util43InitializeStreamingDecompressDeflateContextEPNS0_30StreamingDecompressZlibContextE
 00000000:000000710003C30C       _ZN2nn4util23StreamingDecompressZlibEPmS1_PvmPKvmPNS0_30StreamingDecompressZlibContextE
 00000000:000000710003C310       _ZN2nn4util23StreamingDecompressGzipEPmS1_PvmPKvmPNS0_30StreamingDecompressZlibContextE_0
 00000000:000000710003C440       _ZN2nn4util23StreamingDecompressGzipEPmS1_PvmPKvmPNS0_30StreamingDecompressZlibContextE
 00000000:000000710003C444       _ZN2nn4util26StreamingDecompressDeflateEPmS1_PvmPKvmPNS0_30StreamingDecompressZlibContextE
 00000000:000000710003C448       _ZN2nn4util11ReferSymbolEPKv
 00000000:000000710003C44C       _ZN2nn4util10SdkVersionEv
 00000000:000000710003C458       _ZN2nn4util6TinyMt10InitializeEj
 00000000:000000710003C4DC       _ZN2nn4util6TinyMt22FinalizeInitializationEv
 00000000:000000710003C6C8       _ZN2nn4util6TinyMt10InitializeEPKji
 00000000:000000710003C8B0       _ZN2nn4util6TinyMt24GenerateInitialValuePlusEPjij
 00000000:000000710003C950       _ZN2nn4util6TinyMt23GenerateInitialValueXorEPji
 00000000:000000710003C9EC       _ZN2nn4util6TinyMt9SaveStateEPNS1_5StateE
 00000000:000000710003CA00       _ZN2nn4util6TinyMt12RestoreStateEPKNS1_5StateE
 00000000:000000710003CA14       _ZN2nn4util6TinyMt17GenerateRandomU32Ev
 00000000:000000710003CA84       _ZN2nn4util6TinyMt19GenerateRandomBytesEPvm
 00000000:000000710003CC20       _ZN2nn4util13VFormatStringEPFvmPKciEmS2_St9__va_list
 00000000:000000710003CD50       def_710003CD2C
 00000000:000000710003CE98       def_710003CE44
 00000000:000000710003D098       def_710003CEDC
 00000000:000000710003D87C       _ZN2nn4util12FormatStringEPFvmPKciEmS2_z
 00000000:000000710003D94C       _ZN2nn4util9VSNPrintfEPcmPKcSt9__va_list
 00000000:000000710003DA2C       _ZN2nn4util8SNPrintfEPcmPKcz
 00000000:000000710003DB20       _ZN2nn4util14TVFormatStringEPFvmPKciEmS2_St9__va_list
 00000000:000000710003DB7C       _ZN2nn4util13TFormatStringEPFvmPKciEmS2_z
 00000000:000000710003DC4C       _ZN2nn4util10TVSNPrintfEPcmPKcSt9__va_list
 00000000:000000710003DCD0       _ZN2nn4util9TSNPrintfEPcmPKcz
 00000000:000000710003E950       _ZN2nn4util30ConvertStringUtf8ToUtf16NativeEPtiPKci
 00000000:000000710003E9C4       def_710003EA2C
 00000000:000000710003EBA8       _ZN2nn4util30ConvertStringUtf8ToUtf16NativeEPtiPKc
 00000000:000000710003EC0C       _ZN2nn4util30ConvertStringUtf16NativeToUtf8EPciPKti
 00000000:000000710003EE44       _ZN2nn4util30ConvertStringUtf16NativeToUtf8EPciPKt
 00000000:000000710003EEE8       _ZN2nn4util43GetLengthOfConvertedStringUtf8ToUtf16NativeEPiPKci
 00000000:000000710003EF8C       _ZN2nn4util43GetLengthOfConvertedStringUtf16NativeToUtf8EPiPKti
 00000000:000000710003F030       _ZN2nn4util24ConvertStringUtf8ToUtf32EPjiPKc
 00000000:000000710003F18C       def_710003F074
 00000000:000000710003F204       _ZN2nn4util24ConvertStringUtf32ToUtf8EPciPKj
 00000000:000000710003F38C       _ZN2nn4util37GetLengthOfConvertedStringUtf8ToUtf32EPiPKc
 00000000:000000710003F4B4       def_710003F3D4
 00000000:000000710003F520       _ZN2nn4util37GetLengthOfConvertedStringUtf32ToUtf8EPiPKj
 00000000:000000710003F5B4       _ZN2nn4util33ConvertCharacterUtf8ToUtf16NativeEPtPKc
 00000000:000000710003F690       _ZN2nn4util33ConvertCharacterUtf16NativeToUtf8EPcPKt
 00000000:000000710003F774       _ZN2nn4util27ConvertCharacterUtf8ToUtf32EPjPKc
 00000000:000000710003F88C       def_710003F7A4
 00000000:000000710003F898       _ZN2nn4util27ConvertCharacterUtf32ToUtf8EPcj
 00000000:000000710003F96C       _ZN2nn4util30PickOutCharacterFromUtf8StringEPcPPKc
 00000000:000000710003F9C4       def_710003F9A4
 00000000:000000710003FB5C       _ZN2nn4util6detail37ConvertToExponentStyleStringWithPointEPcmdi
 00000000:000000710003FB70       _ZN2nn4diag6detail11nnText_diagEPKc
 00000000:000000710003FB88       _ZN2nn4diag6detail9nnText_osEPKc
 00000000:000000710003FBA0       _ZN2nn4diag6detail16nnText_g3dviewerEPKc
 00000000:000000710003FBB8       _ZN2nn4diag6detail11nnText_initEPKc
 00000000:000000710003FBD0       _ZN2nn4diag6detail10nnText_ldnEPKc
 00000000:000000710003FBE8       _ZN2nn4diag6detail10nnText_spyEPKc
 00000000:000000710003FC00       _ZN2nn4edid17VisitAudioFormatsEPKNS0_4EdidEPFbPKNS0_15AudioFormatInfoEPvES7_
 00000000:000000710003FC2C       _ZN2nn4edid24GetAudioFormatBitRateMaxEPiPKNS0_15AudioFormatInfoE
 00000000:000000710003FC34       _ZN2nn4edid22GetAudioFormatBitDepthEPiPKNS0_15AudioFormatInfoE
 00000000:000000710003FC3C       _ZN2nn4edid20GetSpeakerAllocationEPKNS0_4EdidE
 00000000:000000710003FC44       _ZN2nn4edid16IsAudioSupportedEPKNS0_4EdidE
 00000000:000000710003FC4C       _ZN2nn4edid14GetDisplayInfoEPNS0_11DisplayInfoEPKNS0_4EdidE
 00000000:000000710003FD94       _ZN2nn4edid27GetDisplayWeekOfManufactureEPiPKNS0_11DisplayInfoE
 00000000:000000710003FDB8       _ZN2nn4edid27GetDisplayYearOfManufactureEPiPKNS0_11DisplayInfoE
 00000000:000000710003FDE0       _ZN2nn4edid24GetSourcePhysicalAddressEPtPKNS0_4EdidE
 00000000:000000710003FE38       _ZN2nn4edid17VisitDisplayModesEPKNS0_4EdidEPFbPKNS0_15DisplayModeInfoEPKNS0_17DisplayTimingInfoEPKNS0_13ImageSizeInfoEPvESD_
 00000000:0000007100040180       _ZN2nn4edid24GetDisplayModePreferenceEPNS0_15DisplayModeInfoEPNS0_17DisplayTimingInfoEPNS0_13ImageSizeInfoEPKNS0_4EdidE
 00000000:0000007100040184       _ZN2nn4edid8OpenEdidEPNS0_4EdidEPKvm
 00000000:0000007100040280       _ZN2nn4edid9CloseEdidEPNS0_4EdidE
 00000000:0000007100040288       _ZN2nn4edid9PrintEdidEPKNS0_4EdidE
 00000000:000000710004028C       _ZN2nn4edid6detail10InitializeEPNS0_11DisplayInfoE
 00000000:00000071000402B8       _ZN2nn4edid6detail7ToAsciiEh
 00000000:00000071000402D0       _ZN2nn4edid6detail19GetManufacturerCodeEPNS0_11DisplayInfoEt
 00000000:0000007100040344       _ZN2nn4edid6detail17GetVideoInterfaceEh
 00000000:0000007100040374       _ZN2nn4edid6detail14GetSignalLevelEh
 00000000:00000071000403C4       _ZN2nn4edid6detail13GetVideoSetupEh
 00000000:00000071000403E8       _ZN2nn4edid6detail12GetSyncTypesEh
 00000000:0000007100040424       _ZN2nn4edid6detail18HasVsyncSerrationsEh
 00000000:0000007100040438       _ZN2nn4edid6detail13GetColorDepthEh
 00000000:00000071000404A8       _ZN2nn4edid6detail15GetColorSupportENS0_14VideoInterfaceEh
 00000000:00000071000404E4       _ZN2nn4edid6detail23DisplayDataBlockVisitorEPKhmNS0_6cea8618BlockTagEPv
 00000000:000000710004057C       _ZN2nn4edid6detail21ExtensionBlockVisitorEPKhmPv
 00000000:00000071000405A4       _ZN2nn4edid6detail22IsStandbyModeSupportedEh
 00000000:00000071000405B4       _ZN2nn4edid6detail22IsSuspendModeSupportedEh
 00000000:00000071000405BC       _ZN2nn4edid6detail23IsVeryLowPowerSupportedEh
 00000000:00000071000405C4       _ZN2nn4edid6detail23IsSrgbDefaultColorSpaceEh
 00000000:00000071000405CC       _ZN2nn4edid6detail21IsContinuousFrequencyEh
 00000000:00000071000405D4       _ZN2nn4edid6detail22PhysicalAddressVisitorEPKhmPv
 00000000:000000710004060C       _ZN2nn4edid6detail31PhysicalAddressDataBlockVisitorEPKhmNS0_6cea8618BlockTagEPv
 00000000:0000007100040654       _ZN2nn4edid6detail22VisitEstablishedTimingEPFbPKNS0_15DisplayModeInfoEPKNS0_17DisplayTimingInfoEPKNS0_13ImageSizeInfoEPvESB_iifb
 00000000:00000071000406B0       _ZN2nn4edid6detail21GetEstablishedTimingIEPFbPKNS0_15DisplayModeInfoEPKNS0_17DisplayTimingInfoEPKNS0_13ImageSizeInfoEPvESB_h
 00000000:0000007100040904       _ZN2nn4edid6detail22GetEstablishedTimingIIEPFbPKNS0_15DisplayModeInfoEPKNS0_17DisplayTimingInfoEPKNS0_13ImageSizeInfoEPvESB_h
 00000000:0000007100040B58       _ZN2nn4edid6detail23GetEstablishedTimingIIIEPFbPKNS0_15DisplayModeInfoEPKNS0_17DisplayTimingInfoEPKNS0_13ImageSizeInfoEPvESB_h
 00000000:0000007100040BC0       _ZN2nn4edid6detail17GetStandardTimingEPNS0_15DisplayModeInfoEhh
 00000000:0000007100040C54       _ZN2nn4edid6detail28GetStandardTimingAspectRatioEPiS2_h
 00000000:0000007100040CC0       _ZN2nn4edid6detail30GetDetailedTimingVsyncPolarityEh
 00000000:0000007100040CDC       _ZN2nn4edid6detail30GetDetailedTimingHsyncPolarityEh
 00000000:0000007100040CFC       _ZN2nn4edid6detail27GetDetailedTimingStereoModeEh
 00000000:0000007100040D30       def_7100040D24
 00000000:0000007100040D64       _ZN2nn4edid6detail26GetDetailedTimingSyncTypesEh
 00000000:0000007100040DBC       _ZN2nn4edid6detail24IsDetailedTimingSerratedEh
 00000000:0000007100040DE0       _ZN2nn4edid6detail26IsDetailedTimingInterlacedEh
 00000000:0000007100040DF0       _ZN2nn4edid6detail17GetDetailedTimingEPNS0_15DisplayModeInfoEPNS0_17DisplayTimingInfoEPNS0_13ImageSizeInfoEPKhm
 00000000:0000007100040F58       def_7100040F4C
 00000000:0000007100041118       _ZN2nn4edid6detail21DetailedTimingVisitorEPKNS0_15DisplayModeInfoEPKNS0_17DisplayTimingInfoEPKNS0_13ImageSizeInfoEPv
 00000000:0000007100041120       _ZN2nn4edid6detail25ModeExtensionBlockVisitorEPKhmPv
 00000000:0000007100041178       _ZN2nn4edid6detail17VideoBlockVisitorEPKhmNS0_6cea8618BlockTagEPv
 00000000:00000071000411F8       _ZN2nn4edid6detail10InitializeEPNS0_4EdidE
 00000000:0000007100041200       _ZN2nn4edid6detail7IsValidEPKNS0_4EdidE
 00000000:0000007100041228       _ZN2nn4edid6detail9SerializeItEET_PKh
 00000000:0000007100041238       _ZN2nn4edid6detail9SerializeIjEET_PKh
 00000000:000000710004125C       _ZN2nn4edid6detail16AudioDataVisitorEPKhmPv
 00000000:0000007100041284       _ZN2nn4edid6detail21AudioDataBlockVisitorEPKhmNS0_6cea8618BlockTagEPv
 00000000:00000071000413B0       def_7100041304
 00000000:0000007100041470       _ZN2nn4edid6cea86111VisitBlocksEPKNS0_4EdidEPFbPKhmPvES7_
 00000000:000000710004150C       _ZN2nn4edid6cea86111GetBlockTagEt
 00000000:0000007100041584       _ZN2nn4edid6cea86115VisitDataBlocksEPKhmPFbS3_mNS1_8BlockTagEPvES5_
 00000000:00000071000416A8       _ZN2nn4edid6cea86120VisitDetailedTimingsEPKhmPFbPKNS0_15DisplayModeInfoEPKNS0_17DisplayTimingInfoEPKNS0_13ImageSizeInfoEPvESD_
 00000000:0000007100041748       _ZN2nn4edid6cea86110ConvertVicEPNS0_15DisplayModeInfoEh
 00000000:000000710004177C       def_7100041768
 00000000:00000071000420D0       _ZN2nn2sf13SharedPointerINS_3spl6detail16IRandomInterfaceEED2Ev
 00000000:00000071000420E8       _ZN2nn2os5MutexD2Ev
 00000000:00000071000420EC       _ZN2nn6crypto15InitializeCsrngEv
 00000000:000000710004220C       _ZN2nn6crypto36GenerateCryptographicallyRandomBytesEPvm
 00000000:0000007100042380       _ZN2nn2sf14IServiceObject20GetInterfaceTypeInfoEv
 00000000:00000071000423C8       _ZN2nn2sf4hipc6client24Hipc2ClientCoreProcessorILNS1_6detail11MessageTypeE4ENS0_4cmif6detail14CoreMethodInfoINSt3__15tupleIJNS7_18BufferArgumentInfoILi0ELi6ELm0EEEEEELm0ELm0ELb0EEESD_E7ProcessEPNS2_26Hipc2ClientProxyBaseObjectENS6_6client24BufferClientArgumentTypeEj
 00000000:0000007100042520       _ZN2nn2sf4hipc6client28Hipc2ClientCoreProcessorImpl19WriteBufferDataImplEPNS1_6detail17HipcMessageWriterEiPKNS0_6detail14PointerAndSizeEPKimm
 00000000:0000007100042DE4       _ZN2nn2sf4hipc6detail17HipcMessageReader10InitializeEPKv
 00000000:0000007100042FF8       _ZN2nn4diag6detail10VAbortImplEPKcS3_S3_iPKNS_6ResultEPKNS_2os17UserExceptionInfoES3_St9__va_list
 00000000:000000710004305C       _ZN2nn4diag6detail9AbortImplEPKcS3_S3_iPKNS_6ResultEPKNS_2os17UserExceptionInfoES3_z
 00000000:00000071000430B0       _ZN2nn4diag6detail9AbortImplEPKcS3_S3_iPKNS_6ResultES3_z
 00000000:0000007100043114       _ZN2nn4diag6detail9AbortImplEPKcS3_S3_iS3_z
 00000000:0000007100043184       _ZN2nn4diag6detail9AbortImplEPKcS3_S3_i
 00000000:00000071000431A4       _ZN2nn4diag6detail18OnAssertionFailureENS0_13AssertionTypeEPKcS4_S4_iS4_z
 00000000:0000007100043290       _ZN2nn4diag6detail18OnAssertionFailureENS0_13AssertionTypeEPKcS4_S4_i
 00000000:000000710004329C       _ZN2nn4diag26SetAssertionFailureHandlerEPFNS0_25AssertionFailureOperationERKNS0_13AssertionInfoEE
 00000000:00000071000432B0       nndetailUnexpectedDefaultImpl
 00000000:00000071000432E4       nndetailDiagAbortFormatImpl
 00000000:0000007100043340       nndetailDiagAbortImpl
 00000000:0000007100043354       nndetailDiagOnAssertionFailureFormat
 00000000:00000071000433B8       nndetailDiagOnAssertionFailure
 00000000:00000071000433C4       _ZN2nn4diag12GetBacktraceEPmi
 00000000:00000071000433C8       _ZN2nn4diag12GetBacktraceEPmm
 00000000:00000071000433E0       _ZN2nn4diag6detail8VLogImplERKNS0_11LogMetaInfoEPKcSt9__va_list
 00000000:00000071000434BC       _ZN2nn4diag6detail8VLogImplERKNS0_11LogMetaDataEPKcSt9__va_list
 00000000:000000710004356C       _ZN2nn4diag6detail7LogImplERKNS0_11LogMetaInfoEPKcz
 00000000:0000007100043760       _ZN2nn4diag6detail7LogImplERKNS0_11LogMetaDataEPKcz
 00000000:000000710004385C       _ZN2nn4diag6detail7PutImplERKNS0_11LogMetaDataEPKcm
 00000000:0000007100043888       nndetailDiagVLogImpl
 00000000:00000071000438F8       nndetailDiagVLogImplForC
 00000000:0000007100043938       nndetailDiagLogImpl
 00000000:00000071000439FC       nndetailDiagLogImplForC
 00000000:0000007100043A90       nndetailDiagPutImplForC
 00000000:0000007100043A94       _ZN2nn4diag6detail18CallAllLogObserverERKNS0_11LogMetaDataERKNS0_7LogBodyE
 00000000:0000007100043AE8       _ZN2nn4diag6detail25ReplaceDefaultLogObserverEPFvRKNS0_11LogMetaDataERKNS0_7LogBodyEPvE
 00000000:0000007100043B68       _ZN2nn4diag21UnregisterLogObserverEPNS0_17LogObserverHolderE
 00000000:0000007100043BB0       _ZN2nn4diag27InitializeLogObserverHolderEPNS0_17LogObserverHolderEPFvRKNS0_11LogMetaDataERKNS0_7LogBodyEPvES9_
 00000000:0000007100043BC0       _ZN2nn4diag19RegisterLogObserverEPNS0_17LogObserverHolderE
 00000000:0000007100043BF8       _ZN2nn4diag6detail23ResetDefalutLogObserverEv
 00000000:0000007100043E18       _ZN2nn4diag13OnResultThrowENS_6ResultERKNS0_10SourceInfoE
 00000000:0000007100043E1C       _ZN2nn4diag14OnResultHandleENS_6ResultERKNS0_10SourceInfoE
 00000000:0000007100043E20       _ZN2nn4diag15OnResultRethrowENS_6ResultERKNS0_10SourceInfoE
 00000000:0000007100043E24       _ZN2nn4diag13OnResultCatchENS_6ResultERKNS0_10SourceInfoE
 00000000:0000007100043E28       _ZN2nn4diag12OnResultMissENS_6ResultERKNS0_10SourceInfoE
 00000000:0000007100043E2C       _ZN2nn6detail21UnexpectedDefaultImplEPKcS2_i
 00000000:0000007100043E7C       _ZN2nn4diag6detail9TranslateEPKhPKc
 00000000:0000007100043F58       _ZN2nn4diag6detail11NotNullImplEm
 00000000:0000007100043F64       _ZN2nn4diag6detail16PrintDebugStringEPKc
 00000000:0000007100043F8C       _ZN2nn4diag6detail20DefaultAbortObserverERKNS0_9AbortInfoE
 00000000:0000007100043F90       _ZN2nn4diag29InitializeAbortObserverHolderEPNS0_19AbortObserverHolderEPFvRKNS0_9AbortInfoEE
 00000000:0000007100043F9C       _ZN2nn4diag21RegisterAbortObserverEPNS0_19AbortObserverHolderE
 00000000:0000007100043FF4       _ZN2nn4diag23UnregisterAbortObserverEPNS0_19AbortObserverHolderE
 00000000:0000007100044090       _ZN2nn4diag26EnableDefaultAbortObserverEb
 00000000:00000071000440A4       _ZN2nn4diag32InitializeSdkAbortObserverHolderEPNS0_22SdkAbortObserverHolderEPFvRKNS0_12SdkAbortInfoEE
 00000000:00000071000440B0       _ZN2nn4diag24RegisterSdkAbortObserverEPNS0_22SdkAbortObserverHolderE
 00000000:0000007100044108       _ZN2nn4diag26UnregisterSdkAbortObserverEPNS0_22SdkAbortObserverHolderE
 00000000:00000071000441A4       _ZN2nn4diag18IsDebuggerAttachedEv
 00000000:0000007100044204       _ZN2nn4diag13GetModulePathEPcmm
 00000000:0000007100044208       _ZN2nn4diag16GetAllModuleInfoEPPNS0_10ModuleInfoEPvm
 00000000:0000007100044230       _ZN2nn4diag40GetRequiredBufferSizeForGetAllModuleInfoEv
 00000000:0000007100044268       nndiagStartup
 00000000:000000710004426C       _ZN2nn4diag14IsSystemSymbolEm
 00000000:0000007100044270       _ZN2nn4diag13GetSymbolNameEPcmm
 00000000:0000007100044274       _ZN2nn4diag13GetSymbolSizeEm
 00000000:0000007100044278       _ZN2nn4diag6detail5AbortEv
 00000000:0000007100044294       _ZN2nn4diag6detail19InvokeAbortObserverERKNS0_9AbortInfoE
 00000000:0000007100044304       _ZN2nn4diag6detail22InvokeSdkAbortObserverERKNS0_12SdkAbortInfoE
 00000000:000000710004435C       _ZN2nn4diag6detail16GetBacktraceImplEPmimm
 00000000:00000071000444D8       _ZN2nn4diag6detail16GetBacktraceImplEPmi
 00000000:0000007100044504       _ZN2nn4diag12GetBacktraceEPmimmm
 00000000:0000007100044524       _ZN2nn4diag6detail22PrintBacktraceItemImplEmb
 00000000:0000007100044550       _ZN2nn4diag6detail23TentativeDumpStackTraceEv
 00000000:0000007100044674       _ZN2nn4diag12PrintModulesEPmi
 00000000:0000007100044724       _ZN2nn4diag18PrintBacktraceItemEmb
 00000000:0000007100044750       _ZN2nn4diag6detail23GetAbortObserverManagerEv
 00000000:00000071000447D4       _ZN2nn4diag6detail15ObserverManagerINS0_19AbortObserverHolderERKNS0_9AbortInfoEED2Ev
 00000000:0000007100044820       _ZN2nn4diag6detail26GetSdkAbortObserverManagerEv
 00000000:0000007100044894       _ZN2nn4diag6detail15ObserverManagerINS0_22SdkAbortObserverHolderERKNS0_12SdkAbortInfoEED2Ev
 00000000:00000071000448E0       _ZN2nn4diag6detail16PrintDebugStringEPKcm
 00000000:00000071000448EC       _ZN2nn4diag6detail23GetModuleInfoForHorizonEPPKcPmS5_m
 00000000:00000071000449B0       _ZN2nn4diag6detail17GetModulePathImplEPcmm
 00000000:0000007100044A88       _ZN2nn4diag6detail20GetAllModuleInfoImplEPmPvmb
 00000000:0000007100044CF0       _ZN2nn4diag6detail18IsSystemSymbolImplEm
 00000000:0000007100044D64       _ZN2nn4diag6detail24GetNearestExportedSymbolEPPKcPmm
 00000000:0000007100044DDC       def_7100044E08
 00000000:0000007100044EB0       _ZN2nn4diag6detail17GetSymbolNameImplEPcmm
 00000000:0000007100044F90       _ZN2nn4diag6detail17GetSymbolSizeImplEm
 00000000:0000007100044FD0       _ZN2nn2fs22GetGlobalAccessLogModeEPj
 00000000:0000007100045084       _ZN2nn2fs22SetGlobalAccessLogModeEj
 00000000:0000007100045138       _ZN2nn2fs17SetLocalAccessLogEb
 00000000:000000710004515C       _ZN2nn2fs28SetLocalApplicationAccessLogEb
 00000000:0000007100045180       _ZN2nn2fs6detail18IsEnabledAccessLogEj
 00000000:000000710004523C       _ZN2nn2fs6detail18IsEnabledAccessLogEv
 00000000:0000007100045244       _ZN2nn2fs6detail15OutputAccessLogENS_6ResultENS_2os4TickES4_PKcNS0_10FileHandleES6_z
 00000000:00000071000454CC       _ZN2nn2fs6detail15OutputAccessLogENS_6ResultENS_2os4TickES4_PKcNS0_15DirectoryHandleES6_z
 00000000:0000007100045554       _ZN2nn2fs6detail15OutputAccessLogENS_6ResultENS_2os4TickES4_PKcPKvS6_z
 00000000:00000071000455DC       _ZN2nn2fs6detail24IsEnabledHandleAccessLogENS0_10FileHandleE
 00000000:00000071000455FC       _ZN2nn2fs6detail24IsEnabledHandleAccessLogENS0_15DirectoryHandleE
 00000000:000000710004561C       _ZN2nn2fs6detail24IsEnabledHandleAccessLogEPKv
 00000000:0000007100045628       _ZN2nn2fs6detail36IsEnabledFileSystemAccessorAccessLogEPKc
 00000000:00000071000456A8       _ZN2nn2fs6detail33EnableFileSystemAccessorAccessLogEPKc
 00000000:000000710004572C       _ZN2nn2fs6detail8IdString13ToValueStringEi
 00000000:0000007100045764       _ZN2nn2fs6detail8IdString8ToStringINS0_16ImageDirectoryIdEEEPKcT_
 00000000:00000071000457C4       _ZN2nn2fs6detail8IdString8ToStringINS0_16ContentStorageIdEEEPKcT_
 00000000:0000007100045818       _ZN2nn2fs6detail8IdString8ToStringINS0_17GameCardPartitionEEEPKcT_
 00000000:000000710004586C       _ZN2nn2fs6detail8IdString8ToStringINS0_15SaveDataSpaceIdEEEPKcT_
 00000000:00000071000458FC       _ZN2nn2fs6detail8IdString8ToStringINS0_11ContentTypeEEEPKcT_
 00000000:0000007100045950       _ZN2nn2fs6detail8IdString8ToStringINS1_19FileSystemProxyTypeEEEPKcT_
 00000000:00000071000459A4       _ZN2nn2fs6detail8IdString8ToStringINS0_14BisPartitionIdEEEPKcT_
 00000000:0000007100045AC4       _ZN2nn2os21SdkThreadLocalStorageD2Ev
 00000000:0000007100045ACC       _ZN2nn2fs19SetEnabledAutoAbortEb
 00000000:0000007100045ADC       _ZN2nn2fs20DefaultResultHandlerENS_6ResultE
 00000000:0000007100045AF4       _ZN2nn2fs22AllReturnResultHandlerENS_6ResultE
 00000000:0000007100045AFC       _ZN2nn2fs23ScopedAutoAbortDisablerC2Ev
 00000000:0000007100045B44       _ZN2nn2fs25GetCurrentThreadFsContextEv
 00000000:0000007100045B70       _ZN2nn2fs25SetCurrentThreadFsContextEPKNS0_9FsContextE
 00000000:0000007100045B84       _ZN2nn2fs32SetDefaultFsContextResultHandlerEPFNS0_14AbortSpecifierENS_6ResultEE
 00000000:0000007100045C38       _ZN2nn2fs24HierarchicalRomFileTable30QueryDirectoryEntryStorageSizeEj
 00000000:0000007100045C50       _ZN2nn2fs24HierarchicalRomFileTable25QueryFileEntryStorageSizeEj
 00000000:0000007100045C68       _ZN2nn2fs24HierarchicalRomFileTable36QueryDirectoryEntryBucketStorageSizeEl
 00000000:0000007100045C70       _ZN2nn2fs24HierarchicalRomFileTable31QueryFileEntryBucketStorageSizeEl
 00000000:0000007100045C78       _ZN2nn2fs24HierarchicalRomFileTable6FormatENS0_10SubStorageES2_
 00000000:0000007100045DC0       _ZN2nn2fs10SubStorage7GetSizeEPl
 00000000:0000007100045DE4       _ZN2nn2fs10SubStorageD2Ev
 00000000:0000007100045E04       _ZN2nn2fs24HierarchicalRomFileTableC2Ev
 00000000:0000007100045E6C       _ZN2nn2fs24HierarchicalRomFileTable10InitializeENS0_10SubStorageES2_S2_S2_
 00000000:0000007100045EF8       _ZN2nn2fs24HierarchicalRomFileTable8FinalizeEv
 00000000:0000007100045F34       _ZN2nn2fs24HierarchicalRomFileTable19CreateRootDirectoryEv
 00000000:0000007100045F8C       _ZN2nn2fs24HierarchicalRomFileTable15CreateDirectoryEPiPKcRKNS0_16RomDirectoryInfoE
 00000000:0000007100046274       _ZN2nn2fs24HierarchicalRomFileTable22FindDirectoryRecursiveEPNS1_8EntryKeyEPNS1_17DirectoryRomEntryEPKc
 00000000:0000007100046298       _ZN2nn2fs24HierarchicalRomFileTable20CheckSameEntryExistsERKNS1_8EntryKeyENS_6ResultE
 00000000:00000071000463BC       _ZN2nn2fs24HierarchicalRomFileTable10CreateFileEPiPKcRKNS0_11RomFileInfoE
 00000000:0000007100046728       _ZN2nn2fs24HierarchicalRomFileTable17FindFileRecursiveEPNS1_8EntryKeyEPNS1_17DirectoryRomEntryEPKc
 00000000:000000710004674C       _ZN2nn2fs24HierarchicalRomFileTable24ConvertPathToDirectoryIdEPiPKc
 00000000:00000071000467D4       _ZN2nn2fs24HierarchicalRomFileTable17GetDirectoryEntryEPjPNS1_17DirectoryRomEntryERKNS1_8EntryKeyE
 00000000:000000710004691C       _ZN2nn2fs24HierarchicalRomFileTable19ConvertPathToFileIdEPiPKc
 00000000:00000071000469A8       _ZN2nn2fs24HierarchicalRomFileTable12GetFileEntryEPjPNS1_12FileRomEntryERKNS1_8EntryKeyE
 00000000:0000007100046AF8       _ZN2nn2fs24HierarchicalRomFileTable23GetDirectoryInformationEPNS0_16RomDirectoryInfoEPKc
 00000000:0000007100046B78       _ZN2nn2fs24HierarchicalRomFileTable23GetDirectoryInformationEPNS0_16RomDirectoryInfoERKNS1_8EntryKeyE
 00000000:0000007100046BBC       _ZN2nn2fs24HierarchicalRomFileTable23GetDirectoryInformationEPNS0_16RomDirectoryInfoEi
 00000000:0000007100046D00       _ZN2nn2fs24HierarchicalRomFileTable17GetDirectoryEntryEPNS1_17DirectoryRomEntryEi
 00000000:0000007100046E58       _ZN2nn2fs24HierarchicalRomFileTable8OpenFileEPNS0_11RomFileInfoEPKc
 00000000:0000007100046EF0       _ZN2nn2fs24HierarchicalRomFileTable8OpenFileEPNS0_11RomFileInfoERKNS1_8EntryKeyE
 00000000:0000007100046F54       _ZN2nn2fs24HierarchicalRomFileTable8OpenFileEPNS0_11RomFileInfoEi
 00000000:00000071000470DC       _ZN2nn2fs24HierarchicalRomFileTable12GetFileEntryEPNS1_12FileRomEntryEi
 00000000:000000710004723C       _ZN2nn2fs24HierarchicalRomFileTable8FindOpenEPNS1_12FindPositionEPKc
 00000000:00000071000472D4       _ZN2nn2fs24HierarchicalRomFileTable8FindOpenEPNS1_12FindPositionERKNS1_8EntryKeyE
 00000000:0000007100047340       _ZN2nn2fs24HierarchicalRomFileTable8FindOpenEPNS1_12FindPositionEi
 00000000:00000071000474C8       _ZN2nn2fs24HierarchicalRomFileTable17FindNextDirectoryEPcPNS1_12FindPositionEm
 00000000:000000710004760C       _ZN2nn2fs24HierarchicalRomFileTable12FindNextFileEPcPNS1_12FindPositionEm
 00000000:0000007100047750       _ZN2nn2fs24HierarchicalRomFileTable22QueryRomFileSystemSizeEPlS2_
 00000000:0000007100047768       _ZN2nn2fs24HierarchicalRomFileTable8DumpTreeEv
 00000000:0000007100047790       _ZN2nn2fs24HierarchicalRomFileTable13DumpDirectoryEji
 00000000:0000007100047BF8       _ZN2nn2fs24HierarchicalRomFileTable14GetGrandparentEPjPNS1_8EntryKeyEPNS1_17DirectoryRomEntryEjNS0_11RomPathTool12RomEntryNameEPKc
 00000000:0000007100047CD8       _ZN2nn2fs24HierarchicalRomFileTable28FindParentDirectoryRecursiveEPjPNS1_8EntryKeyEPNS1_17DirectoryRomEntryEPNS0_11RomPathTool10PathParserEPKc
 00000000:0000007100047F60       _ZN2nn2fs24HierarchicalRomFileTable17FindPathRecursiveEPNS1_8EntryKeyEPNS1_17DirectoryRomEntryEbPKc
 00000000:000000710004833C       _ZN2nn2fs10SubStorageD0Ev
 00000000:000000710004837C       _ZN2nn2fs10SubStorage4ReadElPvm
 00000000:0000007100048400       _ZN2nn2fs10SubStorage5WriteElPKvm
 00000000:0000007100048484       _ZN2nn2fs10SubStorage5FlushEv
 00000000:00000071000484B8       _ZN2nn2fs10SubStorage7SetSizeEl
 00000000:0000007100048574       _ZN2nn2fs10SubStorage12OperateRangeENS0_8IStorage11OperationIdEll
 00000000:00000071000485D4       _ZN2nn2fs26KeyValueRomStorageTemplateINS0_24HierarchicalRomFileTable11RomEntryKeyENS2_17DirectoryRomEntryELi768EE11AddInternalEPjRKS3_jPKvmRKS4_
 00000000:00000071000488B4       _ZN2nn2fs26KeyValueRomStorageTemplateINS0_24HierarchicalRomFileTable11RomEntryKeyENS2_17DirectoryRomEntryELi768EE12FindInternalEPjS6_PNS5_14StorageElementERKS3_jPKvm
 00000000:0000007100048B14       _ZN2nn2fs26KeyValueRomStorageTemplateINS0_24HierarchicalRomFileTable11RomEntryKeyENS2_12FileRomEntryELi768EE11AddInternalEPjRKS3_jPKvmRKS4_
 00000000:0000007100048E00       _ZN2nn2fs26KeyValueRomStorageTemplateINS0_24HierarchicalRomFileTable11RomEntryKeyENS2_12FileRomEntryELi768EE12FindInternalEPjS6_PNS5_14StorageElementERKS3_jPKvm
 00000000:0000007100049060       _ZN2nn2fs11RomPathTool10PathParserC2Ev
 00000000:0000007100049070       _ZN2nn2fs11RomPathTool10PathParser10InitializeEPKc
 00000000:00000071000490B4       _ZN2nn2fs11RomPathTool10PathParser8FinalizeEv
 00000000:00000071000490C4       _ZNK2nn2fs11RomPathTool10PathParser15IsParseFinishedEv
 00000000:00000071000490CC       _ZNK2nn2fs11RomPathTool10PathParser15IsDirectoryPathEv
 00000000:0000007100049128       _ZN2nn2fs11RomPathTool10PathParser20GetNextDirectoryNameEPNS1_12RomEntryNameE
 00000000:00000071000491C4       _ZNK2nn2fs11RomPathTool10PathParser18GetAsDirectoryNameEPNS1_12RomEntryNameE
 00000000:00000071000491F4       _ZNK2nn2fs11RomPathTool10PathParser13GetAsFileNameEPNS1_12RomEntryNameE
 00000000:0000007100049224       _ZN2nn2fs11RomPathTool22GetParentDirectoryNameEPNS1_12RomEntryNameERKS2_PKc
 00000000:0000007100049340       _ZN2nn2fs11FileStorageC2Ev
 00000000:000000710004935C       _ZN2nn2fs11FileStorageC1EPNS0_3fsa5IFileE
 00000000:000000710004937C       _ZN2nn2fs11FileStorage4ReadElPvm
 00000000:000000710004946C       _ZN2nn2fs11FileStorage10UpdateSizeEv
 00000000:00000071000494C8       _ZN2nn2fs11FileStorage5WriteElPKvm
 00000000:00000071000495B4       _ZN2nn2fs11FileStorage7SetSizeEl
 00000000:00000071000495F0       _ZN2nn2fs11FileStorage7GetSizeEPl
 00000000:0000007100049658       _ZN2nn2fs11FileStorage5FlushEv
 00000000:000000710004967C       _ZN2nn2fs11FileStorage12OperateRangeENS0_8IStorage11OperationIdEll
 00000000:0000007100049720       _ZN2nn2fs26FileStorageBasedFileSystemC2Ev
 00000000:0000007100049740       _ZN2nn2fs26FileStorageBasedFileSystem10InitializeENSt3__110shared_ptrINS0_3fsa11IFileSystemEEEPKcNS0_8OpenModeE
 00000000:0000007100049810       _ZN2nn2fs17FileHandleStorageC1ENS0_10FileHandleE
 00000000:000000710004987C       _ZN2nn2fs17FileHandleStorage4ReadElPvm
 00000000:0000007100049934       _ZN2nn2fs17FileHandleStorage5WriteElPKvm
 00000000:00000071000499EC       _ZN2nn2fs17FileHandleStorage7GetSizeEPl
 00000000:00000071000499FC       _ZN2nn2fs17FileHandleStorage5FlushEv
 00000000:0000007100049A18       _ZN2nn2fs8IStorageD2Ev
 00000000:0000007100049A1C       _ZN2nn2fs11FileStorageD0Ev
 00000000:0000007100049A24       _ZN2nn2fs17FileHandleStorageD2Ev
 00000000:0000007100049A38       _ZN2nn2fs17FileHandleStorageD0Ev
 00000000:0000007100049A70       _ZN2nn2fs8IStorage7SetSizeEl
 00000000:0000007100049A7C       _ZN2nn2fs8IStorage12OperateRangeENS1_11OperationIdEll
 00000000:0000007100049A88       _ZN2nn2fs26FileStorageBasedFileSystemD2Ev
 00000000:0000007100049AE0       _ZN2nn2fs26FileStorageBasedFileSystemD0Ev
 00000000:0000007100049B38       _ZN2nn2fs10VerifyPathEPKcii
 00000000:0000007100049CF4       _ZN2nn2fs29SetResultHandledByApplicationEb
 00000000:0000007100049D04       _ZN2nn2fs6detail13IsAbortNeededENS_6ResultE
 00000000:0000007100049DC4       _ZN2nn2fs6detail15LogErrorMessageENS_6ResultEPKc
 00000000:0000007100049DF8       _ZN2nn2fs15RomFsFileSystemC2Ev
 00000000:0000007100049E38       _ZN2nn2fs15RomFsFileSystemD1Ev
 00000000:0000007100049F40       _ZN2nn2fs15RomFsFileSystemD0Ev
 00000000:0000007100049F68       _ZN2nn2fs15RomFsFileSystem14GetBaseStorageEv
 00000000:0000007100049F70       _ZN2nn2fs15RomFsFileSystem15GetRomFileTableEv
 00000000:0000007100049F78       _ZN2nn2fs15RomFsFileSystem28GetRequiredWorkingMemorySizeEPmPNS0_8IStorageE
 00000000:000000710004A008       _ZN2nn2fs15RomFsFileSystem10InitializeEONSt3__110unique_ptrINS0_8IStorageENS2_14default_deleteIS4_EEEEPvmb
 00000000:000000710004A078       _ZN2nn2fs15RomFsFileSystem10InitializeEPNS0_8IStorageEPvmb
 00000000:000000710004A98C       _ZN2nn2fs15RomFsFileSystem10DoOpenFileEPNSt3__110unique_ptrINS0_3fsa5IFileENS2_14default_deleteIS5_EEEEPKcNS0_8OpenModeE
 00000000:000000710004AA84       _ZN2nn2fs15RomFsFileSystem11GetFileInfoEPNS0_11RomFileInfoEPKc
 00000000:000000710004AAE8       _ZN2nn2fs15RomFsFileSystem15DoOpenDirectoryEPNSt3__110unique_ptrINS0_3fsa10IDirectoryENS2_14default_deleteIS5_EEEEPKcNS0_17OpenDirectoryModeE
 00000000:000000710004ABBC       _ZN2nn2fs15RomFsFileSystem14DoGetEntryTypeEPNS0_18DirectoryEntryTypeEPKc
 00000000:000000710004ACAC       _ZN2nn2fs15RomFsFileSystem12DoCreateFileEPKcli
 00000000:000000710004ACB8       _ZN2nn2fs15RomFsFileSystem12DoDeleteFileEPKc
 00000000:000000710004ACC4       _ZN2nn2fs15RomFsFileSystem17DoCreateDirectoryEPKc
 00000000:000000710004ACD0       _ZN2nn2fs15RomFsFileSystem17DoDeleteDirectoryEPKc
 00000000:000000710004ACDC       _ZN2nn2fs15RomFsFileSystem28DoDeleteDirectoryRecursivelyEPKc
 00000000:000000710004ACE8       _ZN2nn2fs15RomFsFileSystem27DoCleanDirectoryRecursivelyEPKc
 00000000:000000710004AD4C       _ZN2nn2fs15RomFsFileSystem12DoRenameFileEPKcS3_
 00000000:000000710004AD58       _ZN2nn2fs15RomFsFileSystem17DoRenameDirectoryEPKcS3_
 00000000:000000710004AD64       _ZN2nn2fs15RomFsFileSystem8DoCommitEv
 00000000:000000710004AD70       _ZN2nn2fs15RomFsFileSystem18DoGetFreeSpaceSizeEPlPKc
 00000000:000000710004AD7C       _ZN2nn2fs15RomFsFileSystem19DoGetTotalSpaceSizeEPlPKc
 00000000:000000710004AD88       _ZN2nn2fs15RomFsFileSystem17GetFileBaseOffsetEPlPKc
 00000000:000000710004AE1C       _ZN2nn2fs3fsa11IFileSystem7DoFlushEv
 00000000:000000710004AE28       _ZN2nn2fs3fsa11IFileSystem21DoGetFileTimeStampRawEPNS0_16FileTimeStampRawEPKc
 00000000:000000710004AE34       _ZN2nn2fs13MemoryStorageD0Ev
 00000000:000000710004AE3C       _ZN2nn2fs13MemoryStorage4ReadElPvm
 00000000:000000710004AEA8       _ZN2nn2fs13MemoryStorage5WriteElPKvm
 00000000:000000710004AF14       _ZN2nn2fs13MemoryStorage5FlushEv
 00000000:000000710004AF1C       _ZN2nn2fs13MemoryStorage7GetSizeEPl
 00000000:000000710004AF2C       _ZN2nn2fs13MemoryStorage12OperateRangeENS0_8IStorage11OperationIdEll
 00000000:000000710004B064       _ZN2nn2fs3fsa5IFileD2Ev
 00000000:000000710004B0D0       _ZN2nn2fs3fsa10IDirectoryD2Ev
 00000000:000000710004B34C       _ZN2nn2fs6detail17DirectoryAccessorC1EONSt3__110unique_ptrINS0_3fsa10IDirectoryENS3_14default_deleteIS6_EEEERNS1_18FileSystemAccessorE
 00000000:000000710004B360       _ZN2nn2fs6detail17DirectoryAccessorD2Ev
 00000000:000000710004B3C0       _ZN2nn2fs6detail17DirectoryAccessor4ReadEPlPNS0_14DirectoryEntryEl
 00000000:000000710004B418       _ZN2nn2fs6detail17DirectoryAccessor13GetEntryCountEPl
 00000000:000000710004B44C       _ZN2nn2fs6detail12FileAccessorC2EONSt3__110unique_ptrINS0_3fsa5IFileENS3_14default_deleteIS6_EEEERNS1_18FileSystemAccessorEi
 00000000:000000710004B468       _ZN2nn2fs6detail12FileAccessorD1Ev
 00000000:000000710004B4F4       _ZN2nn2fs6detail12FileAccessor4ReadEPmlPvmRKNS0_10ReadOptionE
 00000000:000000710004B564       _ZN2nn2fs6detail12FileAccessor5WriteElPKvmRKNS0_11WriteOptionE
 00000000:000000710004B61C       _ZN2nn2fs6detail12FileAccessor16UpdateLastResultENS_6ResultE
 00000000:000000710004B648       _ZN2nn2fs6detail12FileAccessor5FlushEv
 00000000:000000710004B6B0       _ZN2nn2fs6detail12FileAccessor7SetSizeEl
 00000000:000000710004B72C       _ZN2nn2fs6detail12FileAccessor7GetSizeEPl
 00000000:000000710004B768       _ZNK2nn2fs6detail12FileAccessor11GetOpenModeEv
 00000000:000000710004B770       _ZN2nn2fs6detail12FileAccessor13GetWriteStateEv
 00000000:000000710004B778       _ZN2nn2fs6detail18FileSystemAccessorC1EPKcONSt3__110unique_ptrINS0_3fsa11IFileSystemENS5_14default_deleteIS8_EEEEONS6_INS7_25ICommonMountNameGeneratorENS9_ISD_EEEE
 00000000:000000710004B840       _ZN2nn2fs6detail18FileSystemAccessorD2Ev
 00000000:000000710004B908       _ZN2nn2fs6detail18FileSystemAccessor24DumpUnclosedAccessorListEii
 00000000:000000710004BA00       _ZN2nn2fs6detail18FileSystemAccessorD0Ev
 00000000:000000710004BA28       _ZN2nn2fs6detail18FileSystemAccessor10CreateFileEPKcli
 00000000:000000710004BAD0       _ZN2nn2fs6detail18FileSystemAccessor10DeleteFileEPKc
 00000000:000000710004BB54       _ZN2nn2fs6detail18FileSystemAccessor15CreateDirectoryEPKc
 00000000:000000710004BBD8       _ZN2nn2fs6detail18FileSystemAccessor15DeleteDirectoryEPKc
 00000000:000000710004BC5C       _ZN2nn2fs6detail18FileSystemAccessor26DeleteDirectoryRecursivelyEPKc
 00000000:000000710004BCE0       _ZN2nn2fs6detail18FileSystemAccessor25CleanDirectoryRecursivelyEPKc
 00000000:000000710004BD64       _ZN2nn2fs6detail18FileSystemAccessor10RenameFileEPKcS4_
 00000000:000000710004BE28       _ZN2nn2fs6detail18FileSystemAccessor15RenameDirectoryEPKcS4_
 00000000:000000710004BEEC       _ZN2nn2fs6detail18FileSystemAccessor12GetEntryTypeEPNS0_18DirectoryEntryTypeEPKc
 00000000:000000710004BF8C       _ZN2nn2fs6detail18FileSystemAccessor16GetFreeSpaceSizeEPlPKc
 00000000:000000710004C02C       _ZN2nn2fs6detail18FileSystemAccessor17GetTotalSpaceSizeEPlPKc
 00000000:000000710004C0CC       _ZN2nn2fs6detail18FileSystemAccessor8OpenFileEPNSt3__110unique_ptrINS1_12FileAccessorENS3_14default_deleteIS5_EEEEPKcNS0_8OpenModeE
 00000000:000000710004C22C       _ZN2nn2fs6detail18FileSystemAccessor13OpenDirectoryEPNSt3__110unique_ptrINS1_17DirectoryAccessorENS3_14default_deleteIS5_EEEEPKcNS0_17OpenDirectoryModeE
 00000000:000000710004C388       _ZN2nn2fs6detail18FileSystemAccessor6CommitEv
 00000000:000000710004C48C       _ZN2nn2fs6detail18FileSystemAccessor19GetFileTimeStampRawEPNS0_16FileTimeStampRawEPKc
 00000000:000000710004C4CC       _ZN2nn2fs6detail18FileSystemAccessor15NotifyCloseFileEPNS1_12FileAccessorE
 00000000:000000710004C548       _ZN2nn2fs6detail18FileSystemAccessor20NotifyCloseDirectoryEPNS1_17DirectoryAccessorE
 00000000:000000710004C5C4       _ZNK2nn2fs6detail18FileSystemAccessor18GetCommonMountNameEPcm
 00000000:000000710004C5F8       _ZN2nn2fs6detail10MountTable5MountEONSt3__110unique_ptrINS1_18FileSystemAccessorENS3_14default_deleteIS5_EEEE
 00000000:000000710004C6A4       _ZN2nn2fs6detail10MountTable18CanAcceptMountNameEPKc
 00000000:000000710004C6FC       _ZN2nn2fs6detail10MountTable7UnmountEPKc
 00000000:000000710004C7A8       _ZN2nn2fs6detail10MountTable4FindEPPNS1_18FileSystemAccessorEPKc
 00000000:000000710004C830       _ZN2nn2fs6detail12GetMountNameEPKc
 00000000:000000710004CA14       _ZN2nn2fs6detail14IsWindowsDriveEPKc
 00000000:000000710004CA48       _ZN2nn2fs6detail20IsWindowsDriveLetterEPKc
 00000000:000000710004CA7C       _ZN2nn2fs6detail16IsValidMountNameEPKc
 00000000:000000710004CABC       _ZN2nn2fs6detail23IsUsedReservedMountNameEPKc
 00000000:000000710004CACC       _ZN2nn2fs6detail10GetSubPathEPKc
 00000000:000000710004CB40       _ZN2nn2fs6detail14FindFileSystemEPPNS1_18FileSystemAccessorEPKc
 00000000:000000710004CBCC       _ZN2nn2fs6detail14CheckMountNameEPKc
 00000000:000000710004CC18       _ZN2nn2fs7UnmountEPKc
 00000000:000000710004CC90       _ZN2nn2fs21ConvertToFsCommonPathEPcmPKc
 00000000:000000710004CE1C       _ZN2nn2fs3fsa8RegisterEPKcONSt3__110unique_ptrINS1_11IFileSystemENS4_14default_deleteIS6_EEEE
 00000000:000000710004CED4       _ZN2nn2fs3fsa8RegisterEPKcONSt3__110unique_ptrINS1_11IFileSystemENS4_14default_deleteIS6_EEEEONS5_INS1_25ICommonMountNameGeneratorENS7_ISB_EEEE
 00000000:000000710004CF68       _ZN2nn2fs3fsa10UnregisterEPKc
 00000000:000000710004CF6C       _ZN2nn2fs14CloseDirectoryENS0_15DirectoryHandleE
 00000000:000000710004CFF8       _ZN2nn2fs13ReadDirectoryEPlPNS0_14DirectoryEntryENS0_15DirectoryHandleEl
 00000000:000000710004D100       _ZN2nn2fs22GetDirectoryEntryCountEPlNS0_15DirectoryHandleE
 00000000:000000710004D18C       _ZN2nn2fs9CloseFileENS0_10FileHandleE
 00000000:000000710004D218       _ZN2nn2fs8ReadFileENS0_10FileHandleElPvmRKNS0_10ReadOptionE
 00000000:000000710004D304       _ZN2nn2fs8ReadFileEPmNS0_10FileHandleElPvmRKNS0_10ReadOptionE
 00000000:000000710004D434       _ZN2nn2fs8ReadFileENS0_10FileHandleElPvm
 00000000:000000710004D45C       _ZN2nn2fs8ReadFileEPmNS0_10FileHandleElPvm
 00000000:000000710004D484       _ZN2nn2fs9WriteFileENS0_10FileHandleElPKvmRKNS0_11WriteOptionE
 00000000:000000710004D5BC       _ZN2nn2fs9FlushFileENS0_10FileHandleE
 00000000:000000710004D698       _ZN2nn2fs11SetFileSizeENS0_10FileHandleEl
 00000000:000000710004D78C       _ZN2nn2fs11GetFileSizeEPlNS0_10FileHandleE
 00000000:000000710004D818       _ZN2nn2fs15GetFileOpenModeENS0_10FileHandleE
 00000000:000000710004D81C       _ZN2nn2fs10CreateFileEPKcl
 00000000:000000710004D838       _ZN2nn2fs10DeleteFileEPKc
 00000000:000000710004D980       _ZN2nn2fs15CreateDirectoryEPKc
 00000000:000000710004DAC8       _ZN2nn2fs15DeleteDirectoryEPKc
 00000000:000000710004DC10       _ZN2nn2fs26DeleteDirectoryRecursivelyEPKc
 00000000:000000710004DD58       _ZN2nn2fs25CleanDirectoryRecursivelyEPKc
 00000000:000000710004DEA0       _ZN2nn2fs10RenameFileEPKcS2_
 00000000:000000710004E0A0       _ZN2nn2fs15RenameDirectoryEPKcS2_
 00000000:000000710004E2A0       _ZN2nn2fs12GetEntryTypeEPNS0_18DirectoryEntryTypeEPKc
 00000000:000000710004E3F0       _ZN2nn2fs8OpenFileEPNS0_10FileHandleEPKci
 00000000:000000710004E590       _ZN2nn2fs13OpenDirectoryEPNS0_15DirectoryHandleEPKci
 00000000:000000710004E72C       _ZN2nn2fs14CommitSaveDataEPKc
 00000000:000000710004E858       _ZN2nn2fs10CreateFileEPKcli
 00000000:000000710004E9C4       _ZN2nn2fs16GetFreeSpaceSizeEPlPKc
 00000000:000000710004EAAC       _ZN2nn2fs17GetTotalSpaceSizeEPlPKc
 00000000:000000710004EB94       _ZN2nn2fs27GetFileTimeStampRawForDebugEPNS0_16FileTimeStampRawEPKc
 00000000:000000710004EC7C       _ZN2nn2fs6detail10MountTableD2Ev
 00000000:000000710004EC84       _ZN2nn2fs6detail8RegisterEONSt3__110unique_ptrINS1_18FileSystemAccessorENS2_14default_deleteIS4_EEEE
 00000000:000000710004ECAC       _ZN2nn2fs6detail4FindEPPNS1_18FileSystemAccessorEPKc
 00000000:000000710004ECDC       _ZN2nn2fs6detail10UnregisterEPKc
 00000000:000000710004ED3C       _ZN2nn2fs23MountApplicationPackageEPKcS2_
 00000000:000000710004EFBC       _ZN2nn2fs13FspPathPrintfEPNS_5fssrv2sf7FspPathEPKcz
 00000000:000000710004F0A8       _ZN2nn2fs17MountBcatSaveDataEPKcNS_3ncm13ApplicationIdE
 00000000:000000710004F2C0       _ZN2nn2fs6detail8MountBisEPKcNS0_14BisPartitionIdES3_
 00000000:000000710004F53C       _ZN2nn2fs15GetBisMountNameENS0_14BisPartitionIdE
 00000000:000000710004F5B4       def_710004F568
 00000000:000000710004F5C8       _ZN2nn2fs17SetBisRootForHostENS0_14BisPartitionIdEPKc
 00000000:000000710004F714       _ZN2nn2fs8MountBisEPKcNS0_14BisPartitionIdE
 00000000:000000710004F72C       _ZN2nn2fs8MountBisENS0_14BisPartitionIdEPKc
 00000000:000000710004F7AC       def_710004F75C
 00000000:000000710004F7C0       _ZN2nn2fs16OpenBisPartitionEPNSt3__110unique_ptrINS0_8IStorageENS1_14default_deleteIS3_EEEENS0_14BisPartitionIdE
 00000000:000000710004F900       _ZN2nn2fs18InvalidateBisCacheEv
 00000000:000000710004FA8C       def_710004FA28
 00000000:000000710004FAA0       _ZN2nn2fs3fsa25ICommonMountNameGeneratorD2Ev
 00000000:000000710004FAAC       _ZN2nn2fs9MountCodeEPKcS2_NS_3ncm9ProgramIdE
 00000000:000000710004FD34       _ZN2nn2fs12MountContentEPKcS2_NS0_11ContentTypeE
 00000000:000000710004FD70       _ZN2nn2fs12MountContentEPKcS2_NS_3ncm9ProgramIdENS0_11ContentTypeE
 00000000:000000710004FFF4       _ZN2nn2fs12MountContentEPKcS2_NS_3ncm6DataIdENS0_11ContentTypeE
 00000000:000000710005012C       _ZN2nn2fs12MountContentEPKcNS_3ncm9ProgramIdENS0_11ContentTypeE
 00000000:000000710005035C       _ZN2nn2fs19MountContentStorageEPKcNS0_16ContentStorageIdE
 00000000:0000007100050598       _ZN2nn2fs19MountContentStorageENS0_16ContentStorageIdE
 00000000:00000071000505E0       _ZN2nn2fs26GetContentStorageMountNameENS0_16ContentStorageIdE
 00000000:00000071000506A4       _ZN2nn2fs6detail23QueryMountDataCacheSizeEPmNS_3ncm6DataIdENS3_9StorageIdE
 00000000:0000007100050930       _ZN2nn2fs6detail9MountDataEPKcNS_3ncm6DataIdENS4_9StorageIdE
 00000000:0000007100050B20       _ZN2nn2fs6detail9MountDataEPKcNS_3ncm6DataIdENS4_9StorageIdEPvm
 00000000:0000007100050C28       _ZN2nn2fs17CreatePaddingFileEl
 00000000:0000007100050CDC       _ZN2nn2fs21DeleteAllPaddingFilesEv
 00000000:0000007100050D88       _ZN2nn2fs19MountDeviceSaveDataEPKc
 00000000:0000007100050E98       _ZN2nn2fs19MountDeviceSaveDataEPKcNS_3ncm13ApplicationIdE
 00000000:00000071000510F0       _ZN2nn2fs35GetAndClearFileSystemProxyErrorInfoEPNS0_24FileSystemProxyErrorInfoE
 00000000:00000071000511E0       _ZN2nn2fs6detail26EventNotifierObjectAdapterC2EONS_2sf13SharedPointerINS_5fssrv2sf14IEventNotifierEEE
 00000000:0000007100051210       _ZN2nn2fs6detail26EventNotifierObjectAdapterD2Ev
 00000000:0000007100051238       _ZN2nn2fs6detail26EventNotifierObjectAdapterD0Ev
 00000000:0000007100051280       _ZN2nn2fs6detail26EventNotifierObjectAdapter11DoBindEventEPNS_2os15SystemEventTypeENS3_14EventClearModeE
 00000000:0000007100051354       _ZN2nn2fs6detail37InitializeFileSystemCreatorInterfacesEv
 00000000:0000007100051358       _ZN2nn2fs19MountImageDirectoryEPKcNS0_16ImageDirectoryIdE
 00000000:0000007100051544       _ZN2nn2sf13SharedPointerINS_5fssrv2sf16IFileSystemProxyEED2Ev
 00000000:000000710005155C       _ZN2nn2fs6detail41InitializeDfcFileSystemProxyServiceObjectENS_2sf13SharedPointerINS_5fssrv2sf16IFileSystemProxyEEE
 00000000:00000071000515B4       _ZN2nn2fs6detail31GetFileSystemProxyServiceObjectEv
 00000000:0000007100051AEC       _ZN2nn2fs6detail40GetFileSystemProxyForLoaderServiceObjectEv
 00000000:0000007100051FC4       _ZN2nn2sf13SharedPointerINS_5fssrv2sf25IFileSystemProxyForLoaderEED2Ev
 00000000:0000007100051FDC       _ZN2nn2fs6detail31GetProgramRegistryServiceObjectEv
 00000000:00000071000524B4       _ZN2nn2sf13SharedPointerINS_5fssrv2sf16IProgramRegistryEED2Ev
 00000000:00000071000524CC       _ZNK2nn2sf13SharedPointerINS_5fssrv2sf16IFileSystemProxyEE19FunctionForBoolTypeEv
 00000000:00000071000524D0       _ZN2nn2sf4hipc6client34HipcSimpleClientSessionManagerBaseD2Ev
 00000000:000000710005253C       _ZN2nn2sf4hipc6client34HipcSimpleClientSessionManagerBase4Impl8AllocateEv
 00000000:00000071000525B0       _ZN2nn2sf4hipc6client34HipcSimpleClientSessionManagerBase4Impl10DeallocateENS_3svc6HandleE
 00000000:000000710005260C       _ZN2nn2sf4hipc6client34HipcSimpleClientSessionManagerBase4Impl19SetSessionCountImplEi
 00000000:0000007100052714       _ZN2nn2sf4hipc6client34HipcSimpleClientSessionManagerBase4Impl16RemoveHandleImplEv
 00000000:0000007100053B84       _ZN2nn2sf4cmif6client23CmifDomainClientMessageINS0_4hipc6client38Hipc2ClientSessionManagedProxyKindBaseINS5_18Hipc2ProxyKindBaseILNS4_6detail11MessageTypeE4EEEEEE15ProxyBaseObjectD2Ev
 00000000:0000007100053CB8       _ZN2nn2sf4cmif6client34CmifDomainProxyClientCoreProcessorINS0_4hipc6client38Hipc2ClientSessionManagedProxyKindBaseINS5_18Hipc2ProxyKindBaseILNS4_6detail11MessageTypeE4EEEEENS1_6detail14CoreMethodInfoINSt3__15tupleIJNSC_17InRawArgumentInfoILm8ELm8ELl0EEEEEELm8ELm0ELb1EEESI_E7ProcessEPNS2_23CmifDomainClientMessageISB_E15ProxyBaseObjectENS2_23InRawClientArgumentTypeILm8ELm8EvEEj
 00000000:0000007100053DFC       _ZN2nn2sf4cmif6client34CmifDomainProxyClientCoreProcessorINS0_4hipc6client38Hipc2ClientSessionManagedProxyKindBaseINS5_18Hipc2ProxyKindBaseILNS4_6detail11MessageTypeE4EEEEENS1_6detail14CoreMethodInfoINSt3__15tupleIJNSC_21OutObjectArgumentInfoILi0ELi0EEEEEELm0ELm0ELb0EEESI_E21ProcessWithOutObjectsEPNS2_23CmifDomainClientMessageISB_E15ProxyBaseObjectENS2_27OutObjectClientArgumentTypeEjPNS0_13SharedPointerINS0_14IServiceObjectEEE
 00000000:0000007100054464       _ZN2nn2sf4cmif6client34CmifDomainProxyClientCoreProcessorINS0_4hipc6client38Hipc2ClientSessionManagedProxyKindBaseINS5_18Hipc2ProxyKindBaseILNS4_6detail11MessageTypeE4EEEEENS1_6detail14CoreMethodInfoINSt3__15tupleIJNSC_18BufferArgumentInfoILi0ELi25ELm769EEENSC_17InRawArgumentInfoILm8ELm8ELl8EEENSI_ILm4ELm4ELl0EEEEEELm16ELm0ELb0EEESL_E7ProcessEPNS2_23CmifDomainClientMessageISB_E15ProxyBaseObjectENS2_24BufferClientArgumentTypeENS2_23InRawClientArgumentTypeILm8ELm8EvEENST_ILm4ELm4EvEEj
 00000000:000000710005463C       _ZN2nn2sf4cmif6client34CmifDomainProxyClientCoreProcessorINS0_4hipc6client38Hipc2ClientSessionManagedProxyKindBaseINS5_18Hipc2ProxyKindBaseILNS4_6detail11MessageTypeE4EEEEENS1_6detail14CoreMethodInfoINSt3__15tupleIJNSC_18BufferArgumentInfoILi0ELi25ELm769EEEEEELm0ELm0ELb0EEESI_E7ProcessEPNS2_23CmifDomainClientMessageISB_E15ProxyBaseObjectENS2_24BufferClientArgumentTypeEj
 00000000:00000071000547F8       _ZN2nn2sf4cmif6client34CmifDomainProxyClientCoreProcessorINS0_4hipc6client38Hipc2ClientSessionManagedProxyKindBaseINS5_18Hipc2ProxyKindBaseILNS4_6detail11MessageTypeE4EEEEENS1_6detail14CoreMethodInfoINSt3__15tupleIJNSC_18BufferArgumentInfoILi0ELi25ELm769EEENSG_ILi1ELi25ELm769EEEEEELm0ELm0ELb0EEESJ_E7ProcessEPNS2_23CmifDomainClientMessageISB_E15ProxyBaseObjectENS2_24BufferClientArgumentTypeESQ_j
 00000000:00000071000549CC       _ZN2nn2sf4cmif6client34CmifDomainProxyClientCoreProcessorINS0_4hipc6client38Hipc2ClientSessionManagedProxyKindBaseINS5_18Hipc2ProxyKindBaseILNS4_6detail11MessageTypeE4EEEEENS1_6detail14CoreMethodInfoINSt3__15tupleIJNSC_18OutRawArgumentInfoILm4ELm4ELl0EEENSC_18BufferArgumentInfoILi0ELi25ELm769EEEEEELm0ELm4ELb0EEESK_E7ProcessEPNS2_23CmifDomainClientMessageISB_E15ProxyBaseObjectENS2_24OutRawClientArgumentTypeILm4ELm4EEENS2_24BufferClientArgumentTypeEj
 00000000:0000007100054BA4       _ZN2nn2sf4cmif6client34CmifDomainProxyClientCoreProcessorINS0_4hipc6client38Hipc2ClientSessionManagedProxyKindBaseINS5_18Hipc2ProxyKindBaseILNS4_6detail11MessageTypeE4EEEEENS1_6detail14CoreMethodInfoINSt3__15tupleIJNSC_21OutObjectArgumentInfoILi0ELi0EEENSC_18BufferArgumentInfoILi0ELi25ELm769EEENSC_17InRawArgumentInfoILm4ELm4ELl0EEEEEELm4ELm0ELb0EEESM_E21ProcessWithOutObjectsEPNS2_23CmifDomainClientMessageISB_E15ProxyBaseObjectENS2_27OutObjectClientArgumentTypeENS2_24BufferClientArgumentTypeENS2_23InRawClientArgumentTypeILm4ELm4EvEEjPNS0_13SharedPointerINS0_14IServiceObjectEEE
 00000000:0000007100055038       _ZN2nn2sf4cmif6client34CmifDomainProxyClientCoreProcessorINS0_4hipc6client38Hipc2ClientSessionManagedProxyKindBaseINS5_18Hipc2ProxyKindBaseILNS4_6detail11MessageTypeE4EEEEENS1_6detail14CoreMethodInfoINSt3__15tupleIJNSC_18OutRawArgumentInfoILm8ELm8ELl0EEENSC_17InRawArgumentInfoILm8ELm8ELl8EEENSC_18BufferArgumentInfoILi0ELi70ELm0EEENSI_ILm8ELm8ELl16EEENSI_ILm4ELm4ELl0EEEEEELm24ELm8ELb0EEESO_E7ProcessEPNS2_23CmifDomainClientMessageISB_E15ProxyBaseObjectENS2_24OutRawClientArgumentTypeILm8ELm8EEENS2_23InRawClientArgumentTypeILm8ELm8EvEENS2_24BufferClientArgumentTypeESY_NSX_ILm4ELm4EvEEj
 00000000:000000710005522C       _ZN2nn2sf4cmif6client34CmifDomainProxyClientCoreProcessorINS0_4hipc6client38Hipc2ClientSessionManagedProxyKindBaseINS5_18Hipc2ProxyKindBaseILNS4_6detail11MessageTypeE4EEEEENS1_6detail14CoreMethodInfoINSt3__15tupleIJNSC_17InRawArgumentInfoILm8ELm8ELl8EEENSC_18BufferArgumentInfoILi0ELi69ELm0EEENSG_ILm8ELm8ELl16EEENSG_ILm4ELm4ELl0EEEEEELm24ELm0ELb0EEESM_E7ProcessEPNS2_23CmifDomainClientMessageISB_E15ProxyBaseObjectENS2_23InRawClientArgumentTypeILm8ELm8EvEENS2_24BufferClientArgumentTypeESU_NST_ILm4ELm4EvEEj
 00000000:000000710005540C       _ZN2nn2sf4cmif6client34CmifDomainProxyClientCoreProcessorINS0_4hipc6client38Hipc2ClientSessionManagedProxyKindBaseINS5_18Hipc2ProxyKindBaseILNS4_6detail11MessageTypeE4EEEEENS1_6detail14CoreMethodInfoINSt3__15tupleIJEEELm0ELm0ELb0EEESG_E7ProcessEPNS2_23CmifDomainClientMessageISB_E15ProxyBaseObjectEj
 00000000:0000007100055540       _ZN2nn2sf4cmif6client34CmifDomainProxyClientCoreProcessorINS0_4hipc6client38Hipc2ClientSessionManagedProxyKindBaseINS5_18Hipc2ProxyKindBaseILNS4_6detail11MessageTypeE4EEEEENS1_6detail14CoreMethodInfoINSt3__15tupleIJNSC_17InRawArgumentInfoILm8ELm8ELl0EEEEEELm8ELm0ELb0EEESI_E7ProcessEPNS2_23CmifDomainClientMessageISB_E15ProxyBaseObjectENS2_23InRawClientArgumentTypeILm8ELm8EvEEj
 00000000:000000710005567C       _ZN2nn2sf4cmif6client34CmifDomainProxyClientCoreProcessorINS0_4hipc6client38Hipc2ClientSessionManagedProxyKindBaseINS5_18Hipc2ProxyKindBaseILNS4_6detail11MessageTypeE4EEEEENS1_6detail14CoreMethodInfoINSt3__15tupleIJNSC_18OutRawArgumentInfoILm8ELm8ELl0EEEEEELm0ELm8ELb0EEESI_E7ProcessEPNS2_23CmifDomainClientMessageISB_E15ProxyBaseObjectENS2_24OutRawClientArgumentTypeILm8ELm8EEEj
 00000000:000000710005597C       _ZN2nn2sf4cmif6client34CmifDomainProxyClientCoreProcessorINS0_4hipc6client38Hipc2ClientSessionManagedProxyKindBaseINS5_18Hipc2ProxyKindBaseILNS4_6detail11MessageTypeE4EEEEENS1_6detail14CoreMethodInfoINSt3__15tupleIJNSC_18OutRawArgumentInfoILm8ELm8ELl0EEENSC_18BufferArgumentInfoILi0ELi6ELm0EEEEEELm0ELm8ELb0EEESK_E7ProcessEPNS2_23CmifDomainClientMessageISB_E15ProxyBaseObjectENS2_24OutRawClientArgumentTypeILm8ELm8EEENS2_24BufferClientArgumentTypeEj
 00000000:0000007100055B54       _ZN2nn2sf4cmif6client34CmifDomainProxyClientCoreProcessorINS0_4hipc6client38Hipc2ClientSessionManagedProxyKindBaseINS5_18Hipc2ProxyKindBaseILNS4_6detail11MessageTypeE4EEEEENS1_6detail14CoreMethodInfoINSt3__15tupleIJNSC_18OutRawArgumentInfoILm8ELm8ELl0EEENSC_18BufferArgumentInfoILi0ELi25ELm769EEEEEELm0ELm8ELb0EEESK_E7ProcessEPNS2_23CmifDomainClientMessageISB_E15ProxyBaseObjectENS2_24OutRawClientArgumentTypeILm8ELm8EEENS2_24BufferClientArgumentTypeEj
 00000000:0000007100055D2C       _ZN2nn2sf4cmif6client34CmifDomainProxyClientCoreProcessorINS0_4hipc6client38Hipc2ClientSessionManagedProxyKindBaseINS5_18Hipc2ProxyKindBaseILNS4_6detail11MessageTypeE4EEEEENS1_6detail14CoreMethodInfoINSt3__15tupleIJNSC_18OutRawArgumentInfoILm32ELm8ELl0EEENSC_18BufferArgumentInfoILi0ELi25ELm769EEEEEELm0ELm32ELb0EEESK_E7ProcessEPNS2_23CmifDomainClientMessageISB_E15ProxyBaseObjectENS2_24OutRawClientArgumentTypeILm32ELm8EEENS2_24BufferClientArgumentTypeEj
 00000000:0000007100055F1C       _ZN2nn2sf4cmif6client34CmifDomainProxyClientCoreProcessorINS0_4hipc6client38Hipc2ClientSessionManagedProxyKindBaseINS5_18Hipc2ProxyKindBaseILNS4_6detail11MessageTypeE4EEEEENS1_6detail14CoreMethodInfoINSt3__15tupleIJNSC_21OutObjectArgumentInfoILi0ELi0EEENSC_17InRawArgumentInfoILm8ELm8ELl8EEENSI_ILm4ELm4ELl0EEEEEELm16ELm0ELb0EEESL_E21ProcessWithOutObjectsEPNS2_23CmifDomainClientMessageISB_E15ProxyBaseObjectENS2_27OutObjectClientArgumentTypeENS2_23InRawClientArgumentTypeILm8ELm8EvEENST_ILm4ELm4EvEEjPNS0_13SharedPointerINS0_14IServiceObjectEEE
 00000000:00000071000560FC       _ZN2nn2sf4cmif6client34CmifDomainProxyClientCoreProcessorINS0_4hipc6client38Hipc2ClientSessionManagedProxyKindBaseINS5_18Hipc2ProxyKindBaseILNS4_6detail11MessageTypeE4EEEEENS1_6detail14CoreMethodInfoINSt3__15tupleIJNSC_21OutObjectArgumentInfoILi0ELi0EEENSC_18BufferArgumentInfoILi0ELi25ELm769EEENSC_17InRawArgumentInfoILm8ELm8ELl8EEENSK_ILm4ELm4ELl0EEEEEELm16ELm0ELb0EEESN_E21ProcessWithOutObjectsEPNS2_23CmifDomainClientMessageISB_E15ProxyBaseObjectENS2_27OutObjectClientArgumentTypeENS2_24BufferClientArgumentTypeENS2_23InRawClientArgumentTypeILm8ELm8EvEENSW_ILm4ELm4EvEEjPNS0_13SharedPointerINS0_14IServiceObjectEEE
 00000000:000000710005636C       _ZN2nn2sf4cmif6client34CmifDomainProxyClientCoreProcessorINS0_4hipc6client38Hipc2ClientSessionManagedProxyKindBaseINS5_18Hipc2ProxyKindBaseILNS4_6detail11MessageTypeE4EEEEENS1_6detail14CoreMethodInfoINSt3__15tupleIJNSC_21OutObjectArgumentInfoILi0ELi0EEENSC_17InRawArgumentInfoILm8ELm8ELl0EEEEEELm8ELm0ELb0EEESK_E21ProcessWithOutObjectsEPNS2_23CmifDomainClientMessageISB_E15ProxyBaseObjectENS2_27OutObjectClientArgumentTypeENS2_23InRawClientArgumentTypeILm8ELm8EvEEjPNS0_13SharedPointerINS0_14IServiceObjectEEE
 00000000:0000007100056538       _ZN2nn2sf4cmif6client34CmifDomainProxyClientCoreProcessorINS0_4hipc6client38Hipc2ClientSessionManagedProxyKindBaseINS5_18Hipc2ProxyKindBaseILNS4_6detail11MessageTypeE4EEEEENS1_6detail14CoreMethodInfoINSt3__15tupleIJNSC_21OutObjectArgumentInfoILi0ELi0EEENSC_17InRawArgumentInfoILm4ELm4ELl0EEEEEELm4ELm0ELb0EEESK_E21ProcessWithOutObjectsEPNS2_23CmifDomainClientMessageISB_E15ProxyBaseObjectENS2_27OutObjectClientArgumentTypeENS2_23InRawClientArgumentTypeILm4ELm4EvEEjPNS0_13SharedPointerINS0_14IServiceObjectEEE
 00000000:0000007100056934       _ZN2nn2sf4cmif6client34CmifDomainProxyClientCoreProcessorINS0_4hipc6client38Hipc2ClientSessionManagedProxyKindBaseINS5_18Hipc2ProxyKindBaseILNS4_6detail11MessageTypeE4EEEEENS1_6detail14CoreMethodInfoINSt3__15tupleIJNSC_17InRawArgumentInfoILm8ELm8ELl0EEENSC_18BufferArgumentInfoILi0ELi70ELm0EEENSG_ILm8ELm8ELl8EEEEEELm16ELm0ELb0EEESL_E7ProcessEPNS2_23CmifDomainClientMessageISB_E15ProxyBaseObjectENS2_23InRawClientArgumentTypeILm8ELm8EvEENS2_24BufferClientArgumentTypeEST_j
 00000000:0000007100056B04       _ZN2nn2sf4cmif6client34CmifDomainProxyClientCoreProcessorINS0_4hipc6client38Hipc2ClientSessionManagedProxyKindBaseINS5_18Hipc2ProxyKindBaseILNS4_6detail11MessageTypeE4EEEEENS1_6detail14CoreMethodInfoINSt3__15tupleIJNSC_17InRawArgumentInfoILm8ELm8ELl0EEENSC_18BufferArgumentInfoILi0ELi69ELm0EEENSG_ILm8ELm8ELl8EEEEEELm16ELm0ELb0EEESL_E7ProcessEPNS2_23CmifDomainClientMessageISB_E15ProxyBaseObjectENS2_23InRawClientArgumentTypeILm8ELm8EvEENS2_24BufferClientArgumentTypeEST_j
 00000000:0000007100056CD4       _ZN2nn2sf4cmif6client34CmifDomainProxyClientCoreProcessorINS0_4hipc6client38Hipc2ClientSessionManagedProxyKindBaseINS5_18Hipc2ProxyKindBaseILNS4_6detail11MessageTypeE4EEEEENS1_6detail14CoreMethodInfoINSt3__15tupleIJNSC_21OutObjectArgumentInfoILi0ELi0EEENSC_18BufferArgumentInfoILi0ELi25ELm769EEEEEELm0ELm0ELb0EEESK_E21ProcessWithOutObjectsEPNS2_23CmifDomainClientMessageISB_E15ProxyBaseObjectENS2_27OutObjectClientArgumentTypeENS2_24BufferClientArgumentTypeEjPNS0_13SharedPointerINS0_14IServiceObjectEEE
 00000000:0000007100056F20       _ZN2nn2sf4cmif6client34CmifDomainProxyClientCoreProcessorINS0_4hipc6client38Hipc2ClientSessionManagedProxyKindBaseINS5_18Hipc2ProxyKindBaseILNS4_6detail11MessageTypeE4EEEEENS1_6detail14CoreMethodInfoINSt3__15tupleIJNSC_17InRawArgumentInfoILm64ELm8ELl0EEENSG_ILm64ELm8ELl64EEENSG_ILm16ELm4ELl128EEEEEELm144ELm0ELb0EEESK_E7ProcessEPNS2_23CmifDomainClientMessageISB_E15ProxyBaseObjectENS2_23InRawClientArgumentTypeILm64ELm8EvEESS_NSR_ILm16ELm4EvEEj
 00000000:00000071000570B8       _ZN2nn2sf4cmif6client34CmifDomainProxyClientCoreProcessorINS0_4hipc6client38Hipc2ClientSessionManagedProxyKindBaseINS5_18Hipc2ProxyKindBaseILNS4_6detail11MessageTypeE4EEEEENS1_6detail14CoreMethodInfoINSt3__15tupleIJNSC_17InRawArgumentInfoILm64ELm8ELl0EEENSG_ILm64ELm8ELl64EEEEEELm128ELm0ELb0EEESJ_E7ProcessEPNS2_23CmifDomainClientMessageISB_E15ProxyBaseObjectENS2_23InRawClientArgumentTypeILm64ELm8EvEESR_j
 00000000:0000007100057230       _ZN2nn2sf4cmif6client34CmifDomainProxyClientCoreProcessorINS0_4hipc6client38Hipc2ClientSessionManagedProxyKindBaseINS5_18Hipc2ProxyKindBaseILNS4_6detail11MessageTypeE4EEEEENS1_6detail14CoreMethodInfoINSt3__15tupleIJNSC_18BufferArgumentInfoILi0ELi5ELm0EEEEEELm0ELm0ELb0EEESI_E7ProcessEPNS2_23CmifDomainClientMessageISB_E15ProxyBaseObjectENS2_24BufferClientArgumentTypeEj
 00000000:00000071000573EC       _ZN2nn2sf4cmif6client34CmifDomainProxyClientCoreProcessorINS0_4hipc6client38Hipc2ClientSessionManagedProxyKindBaseINS5_18Hipc2ProxyKindBaseILNS4_6detail11MessageTypeE4EEEEENS1_6detail14CoreMethodInfoINSt3__15tupleIJNSC_17InRawArgumentInfoILm1ELm1ELl0EEENSG_ILm8ELm8ELl8EEEEEELm16ELm0ELb0EEESJ_E7ProcessEPNS2_23CmifDomainClientMessageISB_E15ProxyBaseObjectENS2_23InRawClientArgumentTypeILm1ELm1EvEENSQ_ILm8ELm8EvEEj
 00000000:000000710005753C       _ZN2nn2sf4cmif6client34CmifDomainProxyClientCoreProcessorINS0_4hipc6client38Hipc2ClientSessionManagedProxyKindBaseINS5_18Hipc2ProxyKindBaseILNS4_6detail11MessageTypeE4EEEEENS1_6detail14CoreMethodInfoINSt3__15tupleIJNSC_18OutRawArgumentInfoILm1ELm1ELl0EEEEEELm0ELm1ELb0EEESI_E7ProcessEPNS2_23CmifDomainClientMessageISB_E15ProxyBaseObjectENS2_24OutRawClientArgumentTypeILm1ELm1EEEj
 00000000:0000007100057684       _ZN2nn2sf4cmif6client34CmifDomainProxyClientCoreProcessorINS0_4hipc6client38Hipc2ClientSessionManagedProxyKindBaseINS5_18Hipc2ProxyKindBaseILNS4_6detail11MessageTypeE4EEEEENS1_6detail14CoreMethodInfoINSt3__15tupleIJNSC_21OutObjectArgumentInfoILi0ELi0EEENSC_17InRawArgumentInfoILm4ELm4ELl0EEENSI_ILm4ELm4ELl4EEEEEELm8ELm0ELb0EEESL_E21ProcessWithOutObjectsEPNS2_23CmifDomainClientMessageISB_E15ProxyBaseObjectENS2_27OutObjectClientArgumentTypeENS2_23InRawClientArgumentTypeILm4ELm4EvEESU_jPNS0_13SharedPointerINS0_14IServiceObjectEEE
 00000000:000000710005785C       _ZN2nn2sf4cmif6client34CmifDomainProxyClientCoreProcessorINS0_4hipc6client38Hipc2ClientSessionManagedProxyKindBaseINS5_18Hipc2ProxyKindBaseILNS4_6detail11MessageTypeE4EEEEENS1_6detail14CoreMethodInfoINSt3__15tupleIJNSC_17InRawArgumentInfoILm1ELm1ELl0EEENSG_ILm8ELm8ELl8EEENSG_ILm8ELm8ELl16EEENSG_ILm8ELm8ELl24EEEEEELm32ELm0ELb0EEESL_E7ProcessEPNS2_23CmifDomainClientMessageISB_E15ProxyBaseObjectENS2_23InRawClientArgumentTypeILm1ELm1EvEENSS_ILm8ELm8EvEESU_SU_j
 00000000:00000071000579C4       _ZN2nn2sf4cmif6client34CmifDomainProxyClientCoreProcessorINS0_4hipc6client38Hipc2ClientSessionManagedProxyKindBaseINS5_18Hipc2ProxyKindBaseILNS4_6detail11MessageTypeE4EEEEENS1_6detail14CoreMethodInfoINSt3__15tupleIJNSC_21OutObjectArgumentInfoILi0ELi0EEENSC_17InRawArgumentInfoILm1ELm1ELl0EEENSI_ILm64ELm8ELl8EEEEEELm72ELm0ELb0EEESL_E21ProcessWithOutObjectsEPNS2_23CmifDomainClientMessageISB_E15ProxyBaseObjectENS2_27OutObjectClientArgumentTypeENS2_23InRawClientArgumentTypeILm1ELm1EvEENST_ILm64ELm8EvEEjPNS0_13SharedPointerINS0_14IServiceObjectEEE
 00000000:0000007100057BBC       _ZN2nn2sf4cmif6client34CmifDomainProxyClientCoreProcessorINS0_4hipc6client38Hipc2ClientSessionManagedProxyKindBaseINS5_18Hipc2ProxyKindBaseILNS4_6detail11MessageTypeE4EEEEENS1_6detail14CoreMethodInfoINSt3__15tupleIJNSC_18BufferArgumentInfoILi0ELi6ELm0EEENSC_17InRawArgumentInfoILm1ELm1ELl0EEENSI_ILm8ELm8ELl8EEEEEELm16ELm0ELb0EEESL_E7ProcessEPNS2_23CmifDomainClientMessageISB_E15ProxyBaseObjectENS2_24BufferClientArgumentTypeENS2_23InRawClientArgumentTypeILm1ELm1EvEENST_ILm8ELm8EvEEj
 00000000:0000007100057D94       _ZN2nn2sf4cmif6client34CmifDomainProxyClientCoreProcessorINS0_4hipc6client38Hipc2ClientSessionManagedProxyKindBaseINS5_18Hipc2ProxyKindBaseILNS4_6detail11MessageTypeE4EEEEENS1_6detail14CoreMethodInfoINSt3__15tupleIJNSC_18BufferArgumentInfoILi0ELi6ELm0EEENSC_17InRawArgumentInfoILm8ELm8ELl0EEEEEELm8ELm0ELb0EEESK_E7ProcessEPNS2_23CmifDomainClientMessageISB_E15ProxyBaseObjectENS2_24BufferClientArgumentTypeENS2_23InRawClientArgumentTypeILm8ELm8EvEEj
 00000000:0000007100057F60       _ZN2nn2sf4cmif6client34CmifDomainProxyClientCoreProcessorINS0_4hipc6client38Hipc2ClientSessionManagedProxyKindBaseINS5_18Hipc2ProxyKindBaseILNS4_6detail11MessageTypeE4EEEEENS1_6detail14CoreMethodInfoINSt3__15tupleIJNSC_17InRawArgumentInfoILm8ELm8ELl8EEENSG_ILm1ELm1ELl0EEENSC_18BufferArgumentInfoILi0ELi5ELm0EEEEEELm16ELm0ELb0EEESL_E7ProcessEPNS2_23CmifDomainClientMessageISB_E15ProxyBaseObjectENS2_23InRawClientArgumentTypeILm8ELm8EvEENSS_ILm1ELm1EvEENS2_24BufferClientArgumentTypeEj
 00000000:00000071000582D0       _ZN2nn2sf4cmif6client34CmifDomainProxyClientCoreProcessorINS0_4hipc6client38Hipc2ClientSessionManagedProxyKindBaseINS5_18Hipc2ProxyKindBaseILNS4_6detail11MessageTypeE4EEEEENS1_6detail14CoreMethodInfoINSt3__15tupleIJNSC_21OutObjectArgumentInfoILi0ELi0EEENSC_17InRawArgumentInfoILm1ELm1ELl0EEEEEELm1ELm0ELb0EEESK_E21ProcessWithOutObjectsEPNS2_23CmifDomainClientMessageISB_E15ProxyBaseObjectENS2_27OutObjectClientArgumentTypeENS2_23InRawClientArgumentTypeILm1ELm1EvEEjPNS0_13SharedPointerINS0_14IServiceObjectEEE
 00000000:000000710005849C       _ZN2nn2sf4cmif6client34CmifDomainProxyClientCoreProcessorINS0_4hipc6client38Hipc2ClientSessionManagedProxyKindBaseINS5_18Hipc2ProxyKindBaseILNS4_6detail11MessageTypeE4EEEEENS1_6detail14CoreMethodInfoINSt3__15tupleIJNSC_21OutObjectArgumentInfoILi0ELi0EEENSC_17InRawArgumentInfoILm1ELm1ELl0EEENSI_ILm64ELm8ELl8EEENSI_ILm4ELm4ELl4EEEEEELm72ELm0ELb0EEESM_E21ProcessWithOutObjectsEPNS2_23CmifDomainClientMessageISB_E15ProxyBaseObjectENS2_27OutObjectClientArgumentTypeENS2_23InRawClientArgumentTypeILm1ELm1EvEENSU_ILm64ELm8EvEENSU_ILm4ELm4EvEEjPNS0_13SharedPointerINS0_14IServiceObjectEEE
 00000000:00000071000586A4       _ZN2nn2sf4cmif6client34CmifDomainProxyClientCoreProcessorINS0_4hipc6client38Hipc2ClientSessionManagedProxyKindBaseINS5_18Hipc2ProxyKindBaseILNS4_6detail11MessageTypeE4EEEEENS1_6detail14CoreMethodInfoINSt3__15tupleIJNSC_21OutObjectArgumentInfoILi0ELi0EEENSC_17InRawArgumentInfoILm8ELm8ELl8EEENSI_ILm1ELm1ELl0EEEEEELm16ELm0ELb0EEESL_E21ProcessWithOutObjectsEPNS2_23CmifDomainClientMessageISB_E15ProxyBaseObjectENS2_27OutObjectClientArgumentTypeENS2_23InRawClientArgumentTypeILm8ELm8EvEENST_ILm1ELm1EvEEjPNS0_13SharedPointerINS0_14IServiceObjectEEE
 00000000:0000007100058F50       _ZN2nn2sf4cmif6client34CmifDomainProxyClientCoreProcessorINS0_4hipc6client38Hipc2ClientSessionManagedProxyKindBaseINS5_18Hipc2ProxyKindBaseILNS4_6detail11MessageTypeE4EEEEENS1_6detail14CoreMethodInfoINSt3__15tupleIJNSC_18OutRawArgumentInfoILm16ELm4ELl0EEENSG_ILm8ELm8ELl16EEENSC_18BufferArgumentInfoILi0ELi6ELm0EEENSC_17InRawArgumentInfoILm8ELm8ELl0EEEEEELm8ELm24ELb0EEESN_E7ProcessEPNS2_23CmifDomainClientMessageISB_E15ProxyBaseObjectENS2_24OutRawClientArgumentTypeILm16ELm4EEENSU_ILm8ELm8EEENS2_24BufferClientArgumentTypeENS2_23InRawClientArgumentTypeILm8ELm8EvEEj
 00000000:0000007100059148       _ZN2nn2sf4cmif6client34CmifDomainProxyClientCoreProcessorINS0_4hipc6client38Hipc2ClientSessionManagedProxyKindBaseINS5_18Hipc2ProxyKindBaseILNS4_6detail11MessageTypeE4EEEEENS1_6detail14CoreMethodInfoINSt3__15tupleIJNSC_17InRawArgumentInfoILm4ELm4ELl0EEEEEELm4ELm0ELb0EEESI_E7ProcessEPNS2_23CmifDomainClientMessageISB_E15ProxyBaseObjectENS2_23InRawClientArgumentTypeILm4ELm4EvEEj
 00000000:0000007100059284       _ZN2nn2sf4cmif6client34CmifDomainProxyClientCoreProcessorINS0_4hipc6client38Hipc2ClientSessionManagedProxyKindBaseINS5_18Hipc2ProxyKindBaseILNS4_6detail11MessageTypeE4EEEEENS1_6detail14CoreMethodInfoINSt3__15tupleIJNSC_18OutRawArgumentInfoILm8ELm8ELl0EEENSC_17InRawArgumentInfoILm4ELm4ELl0EEEEEELm4ELm8ELb0EEESK_E7ProcessEPNS2_23CmifDomainClientMessageISB_E15ProxyBaseObjectENS2_24OutRawClientArgumentTypeILm8ELm8EEENS2_23InRawClientArgumentTypeILm4ELm4EvEEj
 00000000:00000071000593DC       _ZN2nn2sf4cmif6client34CmifDomainProxyClientCoreProcessorINS0_4hipc6client38Hipc2ClientSessionManagedProxyKindBaseINS5_18Hipc2ProxyKindBaseILNS4_6detail11MessageTypeE4EEEEENS1_6detail14CoreMethodInfoINSt3__15tupleIJNSC_18OutRawArgumentInfoILm4ELm4ELl0EEEEEELm0ELm4ELb0EEESI_E7ProcessEPNS2_23CmifDomainClientMessageISB_E15ProxyBaseObjectENS2_24OutRawClientArgumentTypeILm4ELm4EEEj
 00000000:0000007100059524       _ZN2nn2sf4cmif6client34CmifDomainProxyClientCoreProcessorINS0_4hipc6client38Hipc2ClientSessionManagedProxyKindBaseINS5_18Hipc2ProxyKindBaseILNS4_6detail11MessageTypeE4EEEEENS1_6detail14CoreMethodInfoINSt3__15tupleIJNSC_17InRawArgumentInfoILm4ELm4ELl0EEENSG_ILm8ELm8ELl8EEEEEELm16ELm0ELb0EEESJ_E7ProcessEPNS2_23CmifDomainClientMessageISB_E15ProxyBaseObjectENS2_23InRawClientArgumentTypeILm4ELm4EvEENSQ_ILm8ELm8EvEEj
 00000000:0000007100059674       _ZN2nn2sf4cmif6client34CmifDomainProxyClientCoreProcessorINS0_4hipc6client38Hipc2ClientSessionManagedProxyKindBaseINS5_18Hipc2ProxyKindBaseILNS4_6detail11MessageTypeE4EEEEENS1_6detail14CoreMethodInfoINSt3__15tupleIJNSC_18OutRawArgumentInfoILm4ELm4ELl0EEENSG_ILm8ELm8ELl8EEENSC_17InRawArgumentInfoILm4ELm4ELl0EEEEEELm4ELm16ELb0EEESL_E7ProcessEPNS2_23CmifDomainClientMessageISB_E15ProxyBaseObjectENS2_24OutRawClientArgumentTypeILm4ELm4EEENSS_ILm8ELm8EEENS2_23InRawClientArgumentTypeILm4ELm4EvEEj
 00000000:00000071000597D8       _ZN2nn2sf4cmif6client34CmifDomainProxyClientCoreProcessorINS0_4hipc6client38Hipc2ClientSessionManagedProxyKindBaseINS5_18Hipc2ProxyKindBaseILNS4_6detail11MessageTypeE4EEEEENS1_6detail14CoreMethodInfoINSt3__15tupleIJNSC_18OutRawArgumentInfoILm1ELm1ELl0EEENSC_17InRawArgumentInfoILm4ELm4ELl0EEEEEELm4ELm1ELb0EEESK_E7ProcessEPNS2_23CmifDomainClientMessageISB_E15ProxyBaseObjectENS2_24OutRawClientArgumentTypeILm1ELm1EEENS2_23InRawClientArgumentTypeILm4ELm4EvEEj
 00000000:0000007100059930       _ZN2nn2sf4cmif6client34CmifDomainProxyClientCoreProcessorINS0_4hipc6client38Hipc2ClientSessionManagedProxyKindBaseINS5_18Hipc2ProxyKindBaseILNS4_6detail11MessageTypeE4EEEEENS1_6detail14CoreMethodInfoINSt3__15tupleIJNSC_18BufferArgumentInfoILi0ELi6ELm0EEENSC_17InRawArgumentInfoILm8ELm8ELl8EEENSI_ILm4ELm4ELl0EEEEEELm16ELm0ELb0EEESL_E7ProcessEPNS2_23CmifDomainClientMessageISB_E15ProxyBaseObjectENS2_24BufferClientArgumentTypeENS2_23InRawClientArgumentTypeILm8ELm8EvEENST_ILm4ELm4EvEEj
 00000000:0000007100059B08       _ZN2nn2sf4cmif6client34CmifDomainProxyClientCoreProcessorINS0_4hipc6client38Hipc2ClientSessionManagedProxyKindBaseINS5_18Hipc2ProxyKindBaseILNS4_6detail11MessageTypeE4EEEEENS1_6detail14CoreMethodInfoINSt3__15tupleIJNSC_18BufferArgumentInfoILi0ELi6ELm0EEENSC_17InRawArgumentInfoILm8ELm8ELl0EEENSG_ILi1ELi5ELm0EEENSI_ILm8ELm8ELl8EEEEEELm16ELm0ELb0EEESM_E7ProcessEPNS2_23CmifDomainClientMessageISB_E15ProxyBaseObjectENS2_24BufferClientArgumentTypeENS2_23InRawClientArgumentTypeILm8ELm8EvEEST_SV_j
 00000000:0000007100059CF8       _ZN2nn2sf4cmif6client34CmifDomainProxyClientCoreProcessorINS0_4hipc6client38Hipc2ClientSessionManagedProxyKindBaseINS5_18Hipc2ProxyKindBaseILNS4_6detail11MessageTypeE4EEEEENS1_6detail14CoreMethodInfoINSt3__15tupleIJNSC_17InRawArgumentInfoILm8ELm8ELl0EEENSC_18BufferArgumentInfoILi0ELi6ELm0EEENSG_ILm8ELm8ELl8EEEEEELm16ELm0ELb0EEESL_E7ProcessEPNS2_23CmifDomainClientMessageISB_E15ProxyBaseObjectENS2_23InRawClientArgumentTypeILm8ELm8EvEENS2_24BufferClientArgumentTypeEST_j
 00000000:0000007100059EC8       _ZN2nn2sf4cmif6client34CmifDomainProxyClientCoreProcessorINS0_4hipc6client38Hipc2ClientSessionManagedProxyKindBaseINS5_18Hipc2ProxyKindBaseILNS4_6detail11MessageTypeE4EEEEENS1_6detail14CoreMethodInfoINSt3__15tupleIJNSC_17InRawArgumentInfoILm1ELm1ELl0EEEEEELm1ELm0ELb0EEESI_E7ProcessEPNS2_23CmifDomainClientMessageISB_E15ProxyBaseObjectENS2_23InRawClientArgumentTypeILm1ELm1EvEEj
 00000000:000000710005A004       _ZN2nn2sf4cmif6client34CmifDomainProxyClientCoreProcessorINS0_4hipc6client38Hipc2ClientSessionManagedProxyKindBaseINS5_18Hipc2ProxyKindBaseILNS4_6detail11MessageTypeE4EEEEENS1_6detail14CoreMethodInfoINSt3__15tupleIJNSC_18BufferArgumentInfoILi0ELi5ELm0EEENSC_17InRawArgumentInfoILm8ELm8ELl0EEEEEELm8ELm0ELb0EEESK_E7ProcessEPNS2_23CmifDomainClientMessageISB_E15ProxyBaseObjectENS2_24BufferClientArgumentTypeENS2_23InRawClientArgumentTypeILm8ELm8EvEEj
 00000000:000000710005A1D0       _ZN2nn2sf4cmif6client34CmifDomainProxyClientCoreProcessorINS0_4hipc6client38Hipc2ClientSessionManagedProxyKindBaseINS5_18Hipc2ProxyKindBaseILNS4_6detail11MessageTypeE4EEEEENS1_6detail14CoreMethodInfoINSt3__15tupleIJNSC_18OutRawArgumentInfoILm16ELm2ELl0EEEEEELm0ELm16ELb0EEESI_E7ProcessEPNS2_23CmifDomainClientMessageISB_E15ProxyBaseObjectENS2_24OutRawClientArgumentTypeILm16ELm2EEEj
 00000000:000000710005A320       _ZN2nn2sf4cmif6client34CmifDomainProxyClientCoreProcessorINS0_4hipc6client38Hipc2ClientSessionManagedProxyKindBaseINS5_18Hipc2ProxyKindBaseILNS4_6detail11MessageTypeE4EEEEENS1_6detail14CoreMethodInfoINSt3__15tupleIJNSC_18OutRawArgumentInfoILm64ELm4ELl0EEEEEELm0ELm64ELb0EEESI_E7ProcessEPNS2_23CmifDomainClientMessageISB_E15ProxyBaseObjectENS2_24OutRawClientArgumentTypeILm64ELm4EEEj
 00000000:000000710005A600       _ZN2nn2sf4cmif6client34CmifDomainProxyClientCoreProcessorINS0_4hipc6client38Hipc2ClientSessionManagedProxyKindBaseINS5_18Hipc2ProxyKindBaseILNS4_6detail11MessageTypeE4EEEEENS1_6detail14CoreMethodInfoINSt3__15tupleIJNSC_21OutHandleArgumentInfoILi0ELi1EEEEEELm0ELm0ELb0EEESI_E7ProcessEPNS2_23CmifDomainClientMessageISB_E15ProxyBaseObjectENS2_27OutHandleClientArgumentTypeEj
 00000000:000000710005A7A4       _ZN2nn2sf4hipc6client28Hipc2ClientCoreProcessorImpl19GetOutNativeHandlesEPNS1_6detail17HipcMessageReaderEiiPNS0_12NativeHandleEPKi
 00000000:000000710005A89C       _ZN2nn2sf4cmif6client34CmifDomainProxyClientCoreProcessorINS0_4hipc6client38Hipc2ClientSessionManagedProxyKindBaseINS5_18Hipc2ProxyKindBaseILNS4_6detail11MessageTypeE4EEEEENS1_6detail14CoreMethodInfoINSt3__15tupleIJNSC_18OutRawArgumentInfoILm8ELm8ELl0EEENSC_17InRawArgumentInfoILm8ELm8ELl0EEENSI_ILm8ELm8ELl8EEEEEELm16ELm8ELb0EEESL_E7ProcessEPNS2_23CmifDomainClientMessageISB_E15ProxyBaseObjectENS2_24OutRawClientArgumentTypeILm8ELm8EEENS2_23InRawClientArgumentTypeILm8ELm8EvEESV_j
 00000000:000000710005A9F8       _ZN2nn2sf4cmif6client34CmifDomainProxyClientCoreProcessorINS0_4hipc6client38Hipc2ClientSessionManagedProxyKindBaseINS5_18Hipc2ProxyKindBaseILNS4_6detail11MessageTypeE4EEEEENS1_6detail14CoreMethodInfoINSt3__15tupleIJNSC_17InRawArgumentInfoILm8ELm8ELl0EEENSC_18BufferArgumentInfoILi0ELi6ELm0EEEEEELm8ELm0ELb0EEESK_E7ProcessEPNS2_23CmifDomainClientMessageISB_E15ProxyBaseObjectENS2_23InRawClientArgumentTypeILm8ELm8EvEENS2_24BufferClientArgumentTypeEj
 00000000:000000710005ABC4       _ZN2nn2sf4cmif6client34CmifDomainProxyClientCoreProcessorINS0_4hipc6client38Hipc2ClientSessionManagedProxyKindBaseINS5_18Hipc2ProxyKindBaseILNS4_6detail11MessageTypeE4EEEEENS1_6detail14CoreMethodInfoINSt3__15tupleIJNSC_18OutRawArgumentInfoILm16ELm8ELl0EEENSC_17InRawArgumentInfoILm8ELm8ELl8EEENSI_ILm1ELm1ELl0EEEEEELm16ELm16ELb0EEESL_E7ProcessEPNS2_23CmifDomainClientMessageISB_E15ProxyBaseObjectENS2_24OutRawClientArgumentTypeILm16ELm8EEENS2_23InRawClientArgumentTypeILm8ELm8EvEENSU_ILm1ELm1EvEEj
 00000000:000000710005AD30       _ZN2nn2sf4cmif6client34CmifDomainProxyClientCoreProcessorINS0_4hipc6client38Hipc2ClientSessionManagedProxyKindBaseINS5_18Hipc2ProxyKindBaseILNS4_6detail11MessageTypeE4EEEEENS1_6detail14CoreMethodInfoINSt3__15tupleIJNSC_17InRawArgumentInfoILm16ELm8ELl0EEENSG_ILm16ELm1ELl16EEEEEELm32ELm0ELb0EEESJ_E7ProcessEPNS2_23CmifDomainClientMessageISB_E15ProxyBaseObjectENS2_23InRawClientArgumentTypeILm16ELm8EvEENSQ_ILm16ELm1EvEEj
 00000000:000000710005AE98       _ZN2nn2sf4cmif6client34CmifDomainProxyClientCoreProcessorINS0_4hipc6client38Hipc2ClientSessionManagedProxyKindBaseINS5_18Hipc2ProxyKindBaseILNS4_6detail11MessageTypeE4EEEEENS1_6detail14CoreMethodInfoINSt3__15tupleIJNSC_18OutRawArgumentInfoILm16ELm8ELl0EEENSC_18BufferArgumentInfoILi0ELi25ELm769EEEEEELm0ELm16ELb0EEESK_E7ProcessEPNS2_23CmifDomainClientMessageISB_E15ProxyBaseObjectENS2_24OutRawClientArgumentTypeILm16ELm8EEENS2_24BufferClientArgumentTypeEj
 00000000:000000710005B078       _ZN2nn2sf4cmif6client34CmifDomainProxyClientCoreProcessorINS0_4hipc6client38Hipc2ClientSessionManagedProxyKindBaseINS5_18Hipc2ProxyKindBaseILNS4_6detail11MessageTypeE4EEEEENS1_6detail14CoreMethodInfoINSt3__15tupleIJNSC_18OutRawArgumentInfoILm16ELm8ELl8EEENSG_ILm1ELm1ELl0EEENSC_18BufferArgumentInfoILi0ELi25ELm769EEEEEELm0ELm24ELb0EEESL_E7ProcessEPNS2_23CmifDomainClientMessageISB_E15ProxyBaseObjectENS2_24OutRawClientArgumentTypeILm16ELm8EEENSS_ILm1ELm1EEENS2_24BufferClientArgumentTypeEj
 00000000:000000710005B264       _ZN2nn2sf4cmif6client34CmifDomainProxyClientCoreProcessorINS0_4hipc6client38Hipc2ClientSessionManagedProxyKindBaseINS5_18Hipc2ProxyKindBaseILNS4_6detail11MessageTypeE4EEEEENS1_6detail14CoreMethodInfoINSt3__15tupleIJNSC_17InRawArgumentInfoILm16ELm1ELl0EEEEEELm16ELm0ELb0EEESI_E7ProcessEPNS2_23CmifDomainClientMessageISB_E15ProxyBaseObjectENS2_23InRawClientArgumentTypeILm16ELm1EvEEj
 00000000:000000710005B3AC       _ZN2nn2sf4cmif6client34CmifDomainProxyClientCoreProcessorINS0_4hipc6client38Hipc2ClientSessionManagedProxyKindBaseINS5_18Hipc2ProxyKindBaseILNS4_6detail11MessageTypeE4EEEEENS1_6detail14CoreMethodInfoINSt3__15tupleIJNSC_18OutRawArgumentInfoILm128ELm4ELl0EEEEEELm0ELm128ELb0EEESI_E7ProcessEPNS2_23CmifDomainClientMessageISB_E15ProxyBaseObjectENS2_24OutRawClientArgumentTypeILm128ELm4EEEj
 00000000:000000710005B4FC       _ZN2nn2sf4cmif6client34CmifDomainProxyClientCoreProcessorINS0_4hipc6client38Hipc2ClientSessionManagedProxyKindBaseINS5_18Hipc2ProxyKindBaseILNS4_6detail11MessageTypeE4EEEEENS1_6detail14CoreMethodInfoINSt3__15tupleIJNSC_17InRawArgumentInfoILm4ELm4ELl0EEENSC_18BufferArgumentInfoILi0ELi25ELm769EEEEEELm4ELm0ELb0EEESK_E7ProcessEPNS2_23CmifDomainClientMessageISB_E15ProxyBaseObjectENS2_23InRawClientArgumentTypeILm4ELm4EvEENS2_24BufferClientArgumentTypeEj
 00000000:000000710005B6C8       _ZN2nn2sf4cmif6client34CmifDomainProxyClientCoreProcessorINS0_4hipc6client38Hipc2ClientSessionManagedProxyKindBaseINS5_18Hipc2ProxyKindBaseILNS4_6detail11MessageTypeE4EEEEENS1_6detail14CoreMethodInfoINSt3__15tupleIJNSC_17InRawArgumentInfoILm8ELm8ELl0EEENSG_ILm8ELm8ELl8EEEEEELm16ELm0ELb0EEESJ_E7ProcessEPNS2_23CmifDomainClientMessageISB_E15ProxyBaseObjectENS2_23InRawClientArgumentTypeILm8ELm8EvEESR_j
 00000000:000000710005B974       _ZN2nn2sf4cmif6client34CmifDomainProxyClientCoreProcessorINS0_4hipc6client38Hipc2ClientSessionManagedProxyKindBaseINS5_18Hipc2ProxyKindBaseILNS4_6detail11MessageTypeE4EEEEENS1_6detail14CoreMethodInfoINSt3__15tupleIJNSC_21OutObjectArgumentInfoILi0ELi0EEENSC_18BufferArgumentInfoILi0ELi25ELm769EEENSC_17InRawArgumentInfoILm8ELm8ELl0EEEEEELm8ELm0ELb0EEESM_E21ProcessWithOutObjectsEPNS2_23CmifDomainClientMessageISB_E15ProxyBaseObjectENS2_27OutObjectClientArgumentTypeENS2_24BufferClientArgumentTypeENS2_23InRawClientArgumentTypeILm8ELm8EvEEjPNS0_13SharedPointerINS0_14IServiceObjectEEE
 00000000:000000710005BBD0       _ZN2nn2sf4cmif6client34CmifDomainProxyClientCoreProcessorINS0_4hipc6client38Hipc2ClientSessionManagedProxyKindBaseINS5_18Hipc2ProxyKindBaseILNS4_6detail11MessageTypeE4EEEEENS1_6detail14CoreMethodInfoINSt3__15tupleIJNSC_18OutRawArgumentInfoILm1ELm1ELl0EEENSC_17InRawArgumentInfoILm8ELm8ELl0EEEEEELm8ELm1ELb0EEESK_E7ProcessEPNS2_23CmifDomainClientMessageISB_E15ProxyBaseObjectENS2_24OutRawClientArgumentTypeILm1ELm1EEENS2_23InRawClientArgumentTypeILm8ELm8EvEEj
 00000000:000000710005BE58       _ZN2nn2sf4cmif6client34CmifDomainProxyClientCoreProcessorINS0_4hipc6client38Hipc2ClientSessionManagedProxyKindBaseINS5_18Hipc2ProxyKindBaseILNS4_6detail11MessageTypeE4EEEEENS1_6detail14CoreMethodInfoINSt3__15tupleIJNSC_17InRawArgumentInfoILm8ELm8ELl8EEENSG_ILm8ELm8ELl16EEENSG_ILm1ELm1ELl0EEENSC_18BufferArgumentInfoILi0ELi5ELm0EEENSG_ILm8ELm8ELl24EEENSK_ILi1ELi5ELm0EEENSG_ILm8ELm8ELl32EEEEEELm40ELm0ELb0EEESP_E7ProcessEPNS2_23CmifDomainClientMessageISB_E15ProxyBaseObjectENS2_23InRawClientArgumentTypeILm8ELm8EvEESX_NSW_ILm1ELm1EvEENS2_24BufferClientArgumentTypeESX_SZ_SX_j
 00000000:000000710005C084       _ZN2nn2fs6detail24FileServiceObjectAdapterC1EONS_2sf13SharedPointerINS_5fssrv2sf5IFileEEE
 00000000:000000710005C0B4       _ZN2nn2fs6detail24FileServiceObjectAdapterD1Ev
 00000000:000000710005C0DC       _ZN2nn2fs6detail24FileServiceObjectAdapterD0Ev
 00000000:000000710005C124       _ZN2nn2fs6detail24FileServiceObjectAdapter6DoReadEPmlPvmRKNS0_10ReadOptionE
 00000000:000000710005C184       _ZN2nn2fs6detail24FileServiceObjectAdapter7DoWriteElPKvmRKNS0_11WriteOptionE
 00000000:000000710005C1BC       _ZN2nn2fs6detail24FileServiceObjectAdapter7DoFlushEv
 00000000:000000710005C1E0       _ZN2nn2fs6detail24FileServiceObjectAdapter9DoSetSizeEl
 00000000:000000710005C204       _ZN2nn2fs6detail24FileServiceObjectAdapter9DoGetSizeEPl
 00000000:000000710005C228       _ZN2nn2fs6detail24FileServiceObjectAdapter14DoOperateRangeENS0_3fsa5IFile11OperationIdEll
 00000000:000000710005C234       _ZN2nn2fs6detail29DirectoryServiceObjectAdapterC2EONS_2sf13SharedPointerINS_5fssrv2sf10IDirectoryEEE
 00000000:000000710005C264       _ZN2nn2fs6detail29DirectoryServiceObjectAdapterD2Ev
 00000000:000000710005C28C       _ZN2nn2fs6detail29DirectoryServiceObjectAdapterD0Ev
 00000000:000000710005C2D4       _ZN2nn2fs6detail29DirectoryServiceObjectAdapter6DoReadEPlPNS0_14DirectoryEntryEl
 00000000:000000710005C310       _ZN2nn2fs6detail29DirectoryServiceObjectAdapter15DoGetEntryCountEPl
 00000000:000000710005C334       _ZN2nn2fs6detail30FileSystemServiceObjectAdapterC1EONS_2sf13SharedPointerINS_5fssrv2sf11IFileSystemEEE
 00000000:000000710005C364       _ZN2nn2fs6detail30FileSystemServiceObjectAdapterD2Ev
 00000000:000000710005C38C       _ZN2nn2fs6detail30FileSystemServiceObjectAdapterD0Ev
 00000000:000000710005C3D4       _ZN2nn2fs6detail30FileSystemServiceObjectAdapter12DoCreateFileEPKcli
 00000000:000000710005C4A0       _ZN2nn2fs6detail30FileSystemServiceObjectAdapter12DoDeleteFileEPKc
 00000000:000000710005C554       _ZN2nn2fs6detail30FileSystemServiceObjectAdapter17DoCreateDirectoryEPKc
 00000000:000000710005C608       _ZN2nn2fs6detail30FileSystemServiceObjectAdapter17DoDeleteDirectoryEPKc
 00000000:000000710005C6BC       _ZN2nn2fs6detail30FileSystemServiceObjectAdapter28DoDeleteDirectoryRecursivelyEPKc
 00000000:000000710005C770       _ZN2nn2fs6detail30FileSystemServiceObjectAdapter27DoCleanDirectoryRecursivelyEPKc
 00000000:000000710005C824       _ZN2nn2fs6detail30FileSystemServiceObjectAdapter12DoRenameFileEPKcS4_
 00000000:000000710005C95C       _ZN2nn2fs6detail30FileSystemServiceObjectAdapter17DoRenameDirectoryEPKcS4_
 00000000:000000710005CA94       _ZN2nn2fs6detail30FileSystemServiceObjectAdapter14DoGetEntryTypeEPNS0_18DirectoryEntryTypeEPKc
 00000000:000000710005CB58       _ZN2nn2fs6detail30FileSystemServiceObjectAdapter18DoGetFreeSpaceSizeEPlPKc
 00000000:000000710005CC1C       _ZN2nn2fs6detail30FileSystemServiceObjectAdapter19DoGetTotalSpaceSizeEPlPKc
 00000000:000000710005CCE0       _ZN2nn2fs6detail30FileSystemServiceObjectAdapter10DoOpenFileEPNSt3__110unique_ptrINS0_3fsa5IFileENS3_14default_deleteIS6_EEEEPKcNS0_8OpenModeE
 00000000:000000710005CE48       _ZN2nn2fs6detail30FileSystemServiceObjectAdapter15DoOpenDirectoryEPNSt3__110unique_ptrINS0_3fsa10IDirectoryENS3_14default_deleteIS6_EEEEPKcNS0_17OpenDirectoryModeE
 00000000:000000710005CFB0       _ZN2nn2fs6detail30FileSystemServiceObjectAdapter8DoCommitEv
 00000000:000000710005CFD4       _ZN2nn2fs6detail30FileSystemServiceObjectAdapter21DoGetFileTimeStampRawEPNS0_16FileTimeStampRawEPKc
 00000000:000000710005D098       _ZN2nn2fs17GetGameCardHandleEPj
 00000000:000000710005D1C8       _ZN2nn2fs34OpenGameCardDetectionEventNotifierEPNSt3__110unique_ptrINS0_14IEventNotifierENS1_14default_deleteIS3_EEEE
 00000000:000000710005D308       _ZN2nn2fs18IsGameCardInsertedEv
 00000000:000000710005D40C       _ZN2nn2fs21OpenGameCardPartitionEPNSt3__110unique_ptrINS0_8IStorageENS1_14default_deleteIS3_EEEEjNS0_20GameCardPartitionRawE
 00000000:000000710005D554       _ZN2nn2fs13EraseGameCardENS0_12GameCardSizeEm
 00000000:000000710005D680       _ZN2nn2fs22MountGameCardPartitionEPKcjNS0_17GameCardPartitionE
 00000000:000000710005D8B4       _ZN2nn2fs30GetGameCardUpdatePartitionInfoEPNS0_27GameCardUpdatePartitionInfoEj
 00000000:000000710005D9F8       _ZN2nn2fs22FinalizeGameCardDriverEv
 00000000:000000710005DAE8       _ZN2nn2fs20GetGameCardAttributeEPNS0_17GameCardAttributeEj
 00000000:000000710005DC14       _ZN2nn2fs28GetGameCardDeviceCertificateEPvmj
 00000000:000000710005DD54       _ZN2nn2fs19GetGameCardAsicInfoEPNS_2gc14RmaInformationEPKvm
 00000000:000000710005DEBC       _ZN2nn2fs16GetGameCardIdSetEPNS_2gc13GameCardIdSetE
 00000000:000000710005DFFC       _ZN2nn2fs14GetGameCardCidEPvm
 00000000:000000710005E170       _ZN2nn2fs15WriteToGameCardElPvm
 00000000:000000710005E2B0       _ZN2nn2fs25SetVerifyWriteEnalbleFlagEb
 00000000:000000710005E3D4       _ZN2nn2fs20GetGameCardImageHashEPvmj
 00000000:000000710005E514       _ZN2nn2fs30GetGameCardDeviceIdForProdCardEPvmS1_m
 00000000:000000710005E660       _ZN2nn2fs26EraseAndWriteParamDirectlyEPvm
 00000000:000000710005E790       _ZN2nn2fs17ReadParamDirectlyEPvm
 00000000:000000710005E8C0       _ZN2nn2fs18ForceEraseGameCardEv
 00000000:000000710005E9D4       _ZN2nn2fs20GetGameCardErrorInfoEPNS0_17GameCardErrorInfoE
 00000000:000000710005EB0C       _ZN2nn2fs26GetGameCardErrorReportInfoEPNS0_23GameCardErrorReportInfoE
 00000000:000000710005EC44       _ZN2nn2fs34CheckGameCardPartitionAvailabilityEjNS0_17GameCardPartitionE
 00000000:000000710005ED24       _ZN2nn2fs19GetGameCardDeviceIdEPvm
 00000000:000000710005EF50       _ZN2nn2fs9MountHostEPKcS2_
 00000000:000000710005F1D8       _ZN2nn2fs13MountHostRootEv
 00000000:000000710005F374       _ZN2nn2fs15UnmountHostRootEv
 00000000:000000710005F380       _ZN2nn2fs6detail18OpenHostFileSystemEPNSt3__110unique_ptrINS0_3fsa11IFileSystemENS2_14default_deleteIS5_EEEEPKcSB_
 00000000:000000710005F6C0       _ZN2nn2fs6detail27InitializeFileSystemLibraryEv
 00000000:000000710005F704       _ZN2nn2fs17IsArchivedProgramEPbNS_2os9ProcessIdE
 00000000:000000710005F7C0       _ZN2nn2fs9MountLogoEPKcS2_NS_3ncm9ProgramIdE
 00000000:000000710005FA44       _ZN2nn2fs12SetAllocatorEPFPvmEPFvS1_mE
 00000000:000000710005FB44       j_free_0
 00000000:000000710005FB48       _ZN2nn2fs6detail8AllocateEm
 00000000:000000710005FB9C       _ZN2nn2fs6detail10DeallocateEPvm
 00000000:000000710005FC00       _ZN2nn2fs15GetMmcSpeedModeEPNS0_12MmcSpeedModeE
 00000000:000000710005FD64       _ZN2nn2fs9GetMmcCidEPvm
 00000000:000000710005FEC4       _ZN2nn2fs8EraseMmcENS0_12MmcPartitionE
 00000000:000000710005FFE8       _ZN2nn2fs19GetMmcPartitionSizeEPlNS0_12MmcPartitionE
 00000000:0000007100060144       _ZN2nn2fs17GetMmcPatrolCountEPj
 00000000:0000007100060298       _ZN2nn2fs23GetAndClearMmcErrorInfoEPNS0_16StorageErrorInfoEPmPcm
 00000000:000000710006041C       _ZN2nn2fs17GetMmcExtendedCsdEPvm
 00000000:000000710006057C       _ZN2nn2fs15RegisterProgramEmmhPKvmS2_m
 00000000:0000007100060628       _ZN2nn2fs17UnregisterProgramEm
 00000000:00000071000606A4       _ZN2nn2fs29SetEnabledProgramVerificationEb
 00000000:0000007100060720       _ZN2nn2fs19SetCurrentPosixTimeENS_4time9PosixTimeE
 00000000:00000071000607D4       _ZN2nn2fs11GetRightsIdEPNS0_8RightsIdENS_3ncm9ProgramIdENS3_9StorageIdE
 00000000:00000071000608DC       _ZN2nn2fs11GetRightsIdEPNS0_8RightsIdEPKc
 00000000:0000007100060A40       _ZN2nn2fs11GetRightsIdEPNS0_8RightsIdEPhPKc
 00000000:0000007100060BB0       _ZN2nn2fs19RegisterExternalKeyERKNS0_8RightsIdERKNS_3spl9AccessKeyE
 00000000:0000007100060C6C       _ZN2nn2fs24UnregisterAllExternalKeyEv
 00000000:0000007100060D18       _ZN2nn2fs22QueryMountRomCacheSizeEPm
 00000000:0000007100060F90       _ZN2nn2fs22QueryMountRomCacheSizeEPmNS_13ApplicationIdE
 00000000:0000007100061210       _ZN2nn2fs8MountRomEPKcPvm
 00000000:00000071000613A8       _ZN2nn2fs8MountRomEPKcNS_13ApplicationIdEPvm
 00000000:0000007100061544       _ZN2nn2fs19CanMountRomForDebugEv
 00000000:00000071000615D8       _ZN2nn2fs11CanMountRomENS_13ApplicationIdE
 00000000:0000007100061A34       _ZN2nn2fs26ReadOnlyFileSystemTemplateINSt3__110unique_ptrINS0_3fsa11IFileSystemENS2_14default_deleteIS5_EEEEED2Ev
 00000000:0000007100061A60       _ZN2nn2fs26ReadOnlyFileSystemTemplateINSt3__110unique_ptrINS0_3fsa11IFileSystemENS2_14default_deleteIS5_EEEEED0Ev
 00000000:0000007100061AA8       _ZN2nn2fs26ReadOnlyFileSystemTemplateINSt3__110unique_ptrINS0_3fsa11IFileSystemENS2_14default_deleteIS5_EEEEE12DoCreateFileEPKcli
 00000000:0000007100061AB4       _ZN2nn2fs26ReadOnlyFileSystemTemplateINSt3__110unique_ptrINS0_3fsa11IFileSystemENS2_14default_deleteIS5_EEEEE12DoDeleteFileEPKc
 00000000:0000007100061AC0       _ZN2nn2fs26ReadOnlyFileSystemTemplateINSt3__110unique_ptrINS0_3fsa11IFileSystemENS2_14default_deleteIS5_EEEEE17DoCreateDirectoryEPKc
 00000000:0000007100061ACC       _ZN2nn2fs26ReadOnlyFileSystemTemplateINSt3__110unique_ptrINS0_3fsa11IFileSystemENS2_14default_deleteIS5_EEEEE17DoDeleteDirectoryEPKc
 00000000:0000007100061AD8       _ZN2nn2fs26ReadOnlyFileSystemTemplateINSt3__110unique_ptrINS0_3fsa11IFileSystemENS2_14default_deleteIS5_EEEEE28DoDeleteDirectoryRecursivelyEPKc
 00000000:0000007100061AE4       _ZN2nn2fs26ReadOnlyFileSystemTemplateINSt3__110unique_ptrINS0_3fsa11IFileSystemENS2_14default_deleteIS5_EEEEE27DoCleanDirectoryRecursivelyEPKc
 00000000:0000007100061AF0       _ZN2nn2fs26ReadOnlyFileSystemTemplateINSt3__110unique_ptrINS0_3fsa11IFileSystemENS2_14default_deleteIS5_EEEEE12DoRenameFileEPKcSB_
 00000000:0000007100061AFC       _ZN2nn2fs26ReadOnlyFileSystemTemplateINSt3__110unique_ptrINS0_3fsa11IFileSystemENS2_14default_deleteIS5_EEEEE17DoRenameDirectoryEPKcSB_
 00000000:0000007100061B08       _ZN2nn2fs26ReadOnlyFileSystemTemplateINSt3__110unique_ptrINS0_3fsa11IFileSystemENS2_14default_deleteIS5_EEEEE14DoGetEntryTypeEPNS0_18DirectoryEntryTypeEPKc
 00000000:0000007100061B48       _ZN2nn2fs26ReadOnlyFileSystemTemplateINSt3__110unique_ptrINS0_3fsa11IFileSystemENS2_14default_deleteIS5_EEEEE18DoGetFreeSpaceSizeEPlPKc
 00000000:0000007100061B54       _ZN2nn2fs26ReadOnlyFileSystemTemplateINSt3__110unique_ptrINS0_3fsa11IFileSystemENS2_14default_deleteIS5_EEEEE19DoGetTotalSpaceSizeEPlPKc
 00000000:0000007100061B60       _ZN2nn2fs26ReadOnlyFileSystemTemplateINSt3__110unique_ptrINS0_3fsa11IFileSystemENS2_14default_deleteIS5_EEEEE10DoOpenFileEPNS3_INS4_5IFileENS6_ISA_EEEEPKcNS0_8OpenModeE
 00000000:0000007100061C48       _ZN2nn2fs26ReadOnlyFileSystemTemplateINSt3__110unique_ptrINS0_3fsa11IFileSystemENS2_14default_deleteIS5_EEEEE15DoOpenDirectoryEPNS3_INS4_10IDirectoryENS6_ISA_EEEEPKcNS0_17OpenDirectoryModeE
 00000000:0000007100061CB4       _ZN2nn2fs26ReadOnlyFileSystemTemplateINSt3__110unique_ptrINS0_3fsa11IFileSystemENS2_14default_deleteIS5_EEEEE8DoCommitEv
 00000000:0000007100061E28       _ZN2nn2fs28QueryMountRomOnFileCacheSizeEPmNS0_10FileHandleE
 00000000:0000007100061FE8       _ZN2nn2fs14MountRomOnFileEPKcNS0_10FileHandleEPvm
 00000000:00000071000621C8       _ZN2nn2fs13MountSaveDataEPKcNS0_6UserIdE
 00000000:000000710006249C       _ZN2nn2fs13MountSaveDataEPKcNS_3ncm13ApplicationIdENS0_6UserIdE
 00000000:00000071000625D8       _ZN2nn2fs21MountSaveDataReadOnlyEPKcNS_3ncm13ApplicationIdENS0_6UserIdE
 00000000:0000007100062714       _ZN2nn2fs18IsSaveDataExistingERKNS0_6UserIdE
 00000000:0000007100062724       _ZN2nn2fs18IsSaveDataExistingENS_3ncm13ApplicationIdERKNS0_6UserIdE
 00000000:0000007100062840       _ZN2nn2fs21MountTemporaryStorageEPKc
 00000000:0000007100062958       _ZN2nn2fs17MountCacheStorageEPKc
 00000000:0000007100062A70       _ZN2nn2fs17MountCacheStorageEPKcNS_3ncm13ApplicationIdE
 00000000:0000007100062D28       _ZN2nn2fs19SetSaveDataRootPathEPKc
 00000000:0000007100062E90       _ZN2nn2fs21MountSaveDataForDebugEPKc
 00000000:0000007100062EB0       _ZN2nn2fs14DeleteSaveDataEm
 00000000:0000007100062F64       _ZN2nn2fs14DeleteSaveDataENS0_15SaveDataSpaceIdEm
 00000000:0000007100063020       _ZN2nn2fs30RegisterSaveDataAtomicDeletionEPmi
 00000000:00000071000630E0       _ZN2nn2fs16SaveDataIterator16ReadSaveDataInfoEPlPNS0_12SaveDataInfoEl
 00000000:0000007100063198       _ZN2nn2fs16SaveDataIteratorC2EONS_2sf13SharedPointerINS_5fssrv2sf19ISaveDataInfoReaderEEE
 00000000:00000071000631B8       _ZN2nn2fs20OpenSaveDataIteratorEPNSt3__110unique_ptrINS0_16SaveDataIteratorENS1_14default_deleteIS3_EEEENS0_15SaveDataSpaceIdE
 00000000:0000007100063340       _ZN2nn2fs14CreateSaveDataENS_3ncm13ApplicationIdENS0_6UserIdEmllj
 00000000:0000007100063468       _ZN2nn2fs18CreateBcatSaveDataENS_3ncm13ApplicationIdEl
 00000000:0000007100063570       _ZN2nn2fs20CreateDeviceSaveDataENS_3ncm13ApplicationIdEmllj
 00000000:0000007100063684       _ZN2nn2fs22CreateTemporaryStorageENS_3ncm13ApplicationIdEmlj
 00000000:000000710006378C       _ZN2nn2fs18CreateCacheStorageENS_3ncm13ApplicationIdEmllj
 00000000:00000071000638A0       _ZN2nn2fs20CreateSystemSaveDataENS0_15SaveDataSpaceIdEmNS0_6UserIdEmllj
 00000000:00000071000639B4       _ZN2nn2fs20CreateSystemSaveDataEmNS0_6UserIdEmllj
 00000000:0000007100063A08       _ZN2nn2fs20CreateSystemSaveDataEmNS0_6UserIdEllj
 00000000:0000007100063A58       _ZN2nn2fs20CreateSystemSaveDataEmmllj
 00000000:0000007100063AA4       _ZN2nn2fs20CreateSystemSaveDataEmllj
 00000000:0000007100063AEC       _ZN2nn2fs20CreateSystemSaveDataENS0_15SaveDataSpaceIdEmmllj
 00000000:0000007100063B2C       _ZN2nn2fs14ExtendSaveDataENS0_15SaveDataSpaceIdEmll
 00000000:0000007100063C00       _ZN2nn2fs22QuerySaveDataTotalSizeEPlll
 00000000:0000007100063CCC       _ZN2nn2fs18GetSaveDataOwnerIdEPmm
 00000000:0000007100063DD4       _ZN2nn2fs18GetSaveDataOwnerIdEPmNS0_15SaveDataSpaceIdEm
 00000000:0000007100063EEC       _ZN2nn2fs16GetSaveDataFlagsEPjm
 00000000:0000007100063F30       _ZN2nn2fs16GetSaveDataFlagsEPjNS0_15SaveDataSpaceIdEm
 00000000:0000007100063F74       _ZN2nn2fs16SetSaveDataFlagsEmNS0_15SaveDataSpaceIdEj
 00000000:000000710006406C       _ZN2nn2fs20GetSaveDataTimeStampEPNS_4time9PosixTimeEm
 00000000:00000071000640B0       _ZN2nn2fs20GetSaveDataTimeStampEPNS_4time9PosixTimeENS0_15SaveDataSpaceIdEm
 00000000:00000071000640F4       _ZN2nn2fs24GetSaveDataAvailableSizeEPlm
 00000000:0000007100064138       _ZN2nn2fs24GetSaveDataAvailableSizeEPlNS0_15SaveDataSpaceIdEm
 00000000:000000710006417C       _ZN2nn2fs22GetSaveDataJournalSizeEPlm
 00000000:00000071000641C0       _ZN2nn2fs22GetSaveDataJournalSizeEPlNS0_15SaveDataSpaceIdEm
 00000000:0000007100064204       _ZN2nn2fs14VerifySaveDataEPbmPvm
 00000000:00000071000642FC       _ZN2nn2fs23CorruptSaveDataForDebugEm
 00000000:00000071000643B0       _ZN2nn2fs27DisableAutoSaveDataCreationEv
 00000000:0000007100064444       _ZN2nn2fs25OpenSaveDataThumbnailFileEPNSt3__110unique_ptrINS0_3fsa5IFileENS1_14default_deleteIS4_EEEEmRNS0_6UserIdE
 00000000:0000007100064584       _ZN2nn2fs25ReadSaveDataThumbnailFileEmNS0_6UserIdEPvmS2_m
 00000000:00000071000648D8       _ZN2nn2fs31ReadSaveDataThumbnailFileHeaderEmNS0_6UserIdEPvm
 00000000:0000007100064A64       _ZN2nn2fs26WriteSaveDataThumbnailFileEmNS0_6UserIdEPKvmS3_m
 00000000:0000007100064D6C       _ZN2nn2fs32WriteSaveDataThumbnailFileHeaderEmNS0_6UserIdEPKvm
 00000000:0000007100064F80       _ZN2nn2fs36CorruptSaveDataThumbnailFileForDebugEmNS0_6UserIdE
 00000000:00000071000650B8       _ZN2nn2fs11MountSdCardEPKc
 00000000:00000071000652E4       _ZN2nn2fs19MountSdCardForDebugEPKc
 00000000:00000071000652FC       _ZN2nn2fs32OpenSdCardDetectionEventNotifierEPNSt3__110unique_ptrINS0_14IEventNotifierENS1_14default_deleteIS3_EEEE
 00000000:000000710006543C       _ZN2nn2fs16IsSdCardInsertedEv
 00000000:0000007100065540       _ZN2nn2fs18GetSdCardSpeedModeEPNS0_15SdCardSpeedModeE
 00000000:00000071000656A4       _ZN2nn2fs12GetSdCardCidEPvm
 00000000:0000007100065804       _ZN2nn2fs21GetSdCardUserAreaSizeEPl
 00000000:0000007100065958       _ZN2nn2fs26GetSdCardProtectedAreaSizeEPl
 00000000:0000007100065AAC       _ZN2nn2fs26GetAndClearSdCardErrorInfoEPNS0_16StorageErrorInfoEPmPcm
 00000000:0000007100065C30       _ZN2nn2fs12FormatSdCardEv
 00000000:0000007100065CDC       _ZN2nn2fs18FormatSdCardDryRunEv
 00000000:0000007100065D88       _ZN2nn2fs16IsExFatSupportedEv
 00000000:0000007100065E30       _ZN2nn2fs23SetSdCardEncryptionSeedERKNS0_14EncryptionSeedE
 00000000:0000007100065EE4       _ZN2nn2fs21SetSpeedEmulationModeENS0_18SpeedEmulationModeE
 00000000:0000007100066008       _ZN2nn2fs21GetSpeedEmulationModeEPNS0_18SpeedEmulationModeE
 00000000:000000710006616C       _ZN2nn2fs29QueryMountSystemDataCacheSizeEPmNS_3ncm12SystemDataIdE
 00000000:0000007100066284       _ZN2nn2fs15MountSystemDataEPKcNS_3ncm12SystemDataIdE
 00000000:0000007100066308       _ZN2nn2fs15MountSystemDataEPKcNS_3ncm12SystemDataIdEPvm
 00000000:000000710006639C       _ZN2nn2fs19MountSystemSaveDataEPKcm
 00000000:00000071000663C8       _ZN2nn2fs19MountSystemSaveDataEPKcmNS0_6UserIdE
 00000000:00000071000663FC       _ZN2nn2fs19MountSystemSaveDataEPKcNS0_15SaveDataSpaceIdEm
 00000000:000000710006641C       _ZN2nn2fs19MountSystemSaveDataEPKcNS0_15SaveDataSpaceIdEmNS0_6UserIdE
 00000000:0000007100066644       _ZN2nn2fs6detail27StorageServiceObjectAdapterC1EONS_2sf13SharedPointerINS_5fssrv2sf8IStorageEEE
 00000000:0000007100066674       _ZN2nn2fs6detail27StorageServiceObjectAdapterD2Ev
 00000000:000000710006669C       _ZN2nn2fs6detail27StorageServiceObjectAdapterD0Ev
 00000000:00000071000666E4       _ZN2nn2fs6detail27StorageServiceObjectAdapter4ReadElPvm
 00000000:0000007100066718       _ZN2nn2fs6detail27StorageServiceObjectAdapter5WriteElPKvm
 00000000:000000710006674C       _ZN2nn2fs6detail27StorageServiceObjectAdapter5FlushEv
 00000000:0000007100066770       _ZN2nn2fs6detail27StorageServiceObjectAdapter7SetSizeEl
 00000000:0000007100066794       _ZN2nn2fs6detail27StorageServiceObjectAdapter7GetSizeEPl
 00000000:00000071000667B8       _ZN2nn2sf13SharedPointerINS_3tma11IHtcManagerEED2Ev
 00000000:00000071000667D0       _ZN2nn3htc10InitializeEv
 00000000:000000710006685C       _ZN2nn3htc8FinalizeEv
 00000000:00000071000668B4       _ZN2nn3htc28GetEnvironmentVariableLengthEPmPKc
 00000000:0000007100066998       _ZN2nn3htc22GetEnvironmentVariableEPmPcmPKc
 00000000:0000007100066A94       _ZN2nn3htc23BindHostConnectionEventEPNS_2os11SystemEventE
 00000000:0000007100066B30       _ZN2nn3htc26BindHostDisconnectionEventEPNS_2os11SystemEventE
 00000000:0000007100066BCC       _ZN2nn3htc32BindHostConnectionEventForSystemEPNS_2os11SystemEventE
 00000000:0000007100066C68       _ZN2nn3htc35BindHostDisconnectionEventForSystemEPNS_2os11SystemEventE
 00000000:0000007100066D04       _ZN2nn3htc18GetBridgeIpAddressEPcm
 00000000:0000007100066D74       _ZN2nn3htc13GetBridgePortEPcm
 00000000:0000007100066E04       _ZN2nn3htc22CreateHtcManagerByHipcEv
 00000000:0000007100067108       _ZN2nn2sf4hipc6client24Hipc2ClientCoreProcessorILNS1_6detail11MessageTypeE4ENS0_4cmif6detail14CoreMethodInfoINSt3__15tupleIJNS7_18OutRawArgumentInfoILm4ELm4ELl0EEENS7_18BufferArgumentInfoILi0ELi6ELm0EEENSD_ILi1ELi5ELm0EEEEEELm0ELm4ELb0EEESG_E7ProcessEPNS2_26Hipc2ClientProxyBaseObjectENS6_6client24OutRawClientArgumentTypeILm4ELm4EEENSL_24BufferClientArgumentTypeESO_j
 00000000:0000007100067288       _ZN2nn2sf4hipc6client24Hipc2ClientCoreProcessorILNS1_6detail11MessageTypeE4ENS0_4cmif6detail14CoreMethodInfoINSt3__15tupleIJNS7_18OutRawArgumentInfoILm4ELm4ELl0EEENS7_18BufferArgumentInfoILi0ELi5ELm0EEEEEELm0ELm4ELb0EEESF_E7ProcessEPNS2_26Hipc2ClientProxyBaseObjectENS6_6client24OutRawClientArgumentTypeILm4ELm4EEENSK_24BufferClientArgumentTypeEj
 00000000:00000071000673F0       _ZN2nn2sf4hipc6client24Hipc2ClientCoreProcessorILNS1_6detail11MessageTypeE4ENS0_4cmif6detail14CoreMethodInfoINSt3__15tupleIJNS7_21OutHandleArgumentInfoILi0ELi1EEEEEELm0ELm0ELb0EEESD_E7ProcessEPNS2_26Hipc2ClientProxyBaseObjectENS6_6client27OutHandleClientArgumentTypeEj
 00000000:000000710006753C       _ZN2nn2sf4hipc6client24Hipc2ClientCoreProcessorILNS1_6detail11MessageTypeE4ENS0_4cmif6detail14CoreMethodInfoINSt3__15tupleIJNS7_17InRawArgumentInfoILm1ELm1ELl0EEEEEELm1ELm0ELb0EEESD_E7ProcessEPNS2_26Hipc2ClientProxyBaseObjectENS6_6client23InRawClientArgumentTypeILm1ELm1EvEEj
 00000000:000000710006766C       _ZN2nn3htc34GetTargetEnvironmentVariableLengthEPmPKc
 00000000:0000007100067C14       _ZN2nn3htc28GetTargetEnvironmentVariableEPmPcmPKc
 00000000:0000007100067D0C       _ZN2nn3htc43WaitUntilTargetEnvironmentVariableAvailableENS_8TimeSpanE
 00000000:0000007100067D9C       _ZN2nn2sf13SharedPointerINS_3htc4tenv15IServiceManagerEED2Ev
 00000000:0000007100067DB4       _ZNK2nn6result6detail19ResultAutoConvertercvT_INS_2sf13SharedPointerINS_3htc4tenv8IServiceEEEEEv
 00000000:0000007100067EF0       _ZN2nn2sf4cmif6client34CmifDomainProxyClientCoreProcessorINS0_4hipc6client38Hipc2ClientSessionManagedProxyKindBaseINS5_18Hipc2ProxyKindBaseILNS4_6detail11MessageTypeE4EEEEENS1_6detail14CoreMethodInfoINSt3__15tupleIJNSC_21OutObjectArgumentInfoILi0ELi0EEENSC_17InRawArgumentInfoILm8ELm8ELl0EEEEEELm8ELm0ELb1EEESK_E21ProcessWithOutObjectsEPNS2_23CmifDomainClientMessageISB_E15ProxyBaseObjectENS2_27OutObjectClientArgumentTypeENS2_23InRawClientArgumentTypeILm8ELm8EvEEjPNS0_13SharedPointerINS0_14IServiceObjectEEE
 00000000:000000710006827C       _ZN2nn2sf4cmif6client34CmifDomainProxyClientCoreProcessorINS0_4hipc6client38Hipc2ClientSessionManagedProxyKindBaseINS5_18Hipc2ProxyKindBaseILNS4_6detail11MessageTypeE4EEEEENS1_6detail14CoreMethodInfoINSt3__15tupleIJNSC_18OutRawArgumentInfoILm8ELm8ELl0EEENSC_18BufferArgumentInfoILi0ELi6ELm0EEENSC_17InRawArgumentInfoILm64ELm1ELl0EEEEEELm64ELm8ELb0EEESM_E7ProcessEPNS2_23CmifDomainClientMessageISB_E15ProxyBaseObjectENS2_24OutRawClientArgumentTypeILm8ELm8EEENS2_24BufferClientArgumentTypeENS2_23InRawClientArgumentTypeILm64ELm1EvEEj
 00000000:0000007100068468       _ZN2nn2sf4cmif6client34CmifDomainProxyClientCoreProcessorINS0_4hipc6client38Hipc2ClientSessionManagedProxyKindBaseINS5_18Hipc2ProxyKindBaseILNS4_6detail11MessageTypeE4EEEEENS1_6detail14CoreMethodInfoINSt3__15tupleIJNSC_18OutRawArgumentInfoILm8ELm8ELl0EEENSC_17InRawArgumentInfoILm64ELm1ELl0EEEEEELm64ELm8ELb0EEESK_E7ProcessEPNS2_23CmifDomainClientMessageISB_E15ProxyBaseObjectENS2_24OutRawClientArgumentTypeILm8ELm8EEENS2_23InRawClientArgumentTypeILm64ELm1EvEEj
 00000000:00000071000685CC       _ZN2nn6result6detail27ResultToReturnTypeConverterINS_2sf13SharedPointerINS_3htc4tenv8IServiceEEEvE7ConvertENS_6ResultE
 00000000:0000007100068624       nninitInitializeSdkModule
 00000000:0000007100068658       nninitFinalizeSdkModule
 00000000:000000710006865C       InitLibc0
 00000000:0000007100068660       InitLibc1
 00000000:0000007100068664       InitLibc2
 00000000:0000007100068668       _ZN2nn4init5StartEmmPFvvES2_
 00000000:00000071000686C8       _ZN2nn4lmem12SetFillValueENS0_8FillTypeEj
 00000000:00000071000686CC       _ZN2nn4lmem12GetFillValueENS0_8FillTypeE
 00000000:00000071000686D0       _ZN2nn4lmem12GetTotalSizeEPNS0_6detail8HeapHeadE
 00000000:000000710006871C       _ZN2nn4lmem15GetStartAddressEPNS0_6detail8HeapHeadE
 00000000:0000007100068760       _ZN2nn4lmem10HasAddressEPNS0_6detail8HeapHeadEPv
 00000000:00000071000687B4       _ZN2nn4lmem13CreateExpHeapEPvmi
 00000000:00000071000687F0       _ZN2nn4lmem14DestroyExpHeapEPNS0_6detail8HeapHeadE
 00000000:0000007100068820       _ZN2nn4lmem19AllocateFromExpHeapEPNS0_6detail8HeapHeadEm
 00000000:0000007100068878       _ZN2nn4lmem19AllocateFromExpHeapEPNS0_6detail8HeapHeadEmi
 00000000:00000071000688DC       _ZN2nn4lmem13FreeToExpHeapEPNS0_6detail8HeapHeadEPv
 00000000:0000007100068930       _ZN2nn4lmem18ResizeExpHeapBlockEPNS0_6detail8HeapHeadEPvm
 00000000:0000007100068994       _ZN2nn4lmem13AdjustExpHeapEPNS0_6detail8HeapHeadE
 00000000:00000071000689F0       _ZN2nn4lmem23GetExpHeapTotalFreeSizeEPNS0_6detail8HeapHeadE
 00000000:0000007100068A3C       _ZN2nn4lmem25GetExpHeapAllocatableSizeEPNS0_6detail8HeapHeadEi
 00000000:0000007100068A90       _ZN2nn4lmem24SetExpHeapAllocationModeEPNS0_6detail8HeapHeadENS0_14AllocationModeE
 00000000:0000007100068AE4       _ZN2nn4lmem24GetExpHeapAllocationModeEPNS0_6detail8HeapHeadE
 00000000:0000007100068B30       _ZN2nn4lmem30SetExpHeapUseMarginOfAlignmentEPNS0_6detail8HeapHeadEb
 00000000:0000007100068B84       _ZN2nn4lmem30GetExpHeapUseMarginOfAlignmentEPNS0_6detail8HeapHeadE
 00000000:0000007100068BD0       _ZN2nn4lmem17SetExpHeapGroupIdEPNS0_6detail8HeapHeadEt
 00000000:0000007100068C24       _ZN2nn4lmem17GetExpHeapGroupIdEPNS0_6detail8HeapHeadE
 00000000:0000007100068C70       _ZN2nn4lmem19GetExpHeapBlockSizeEPKv
 00000000:0000007100068C74       _ZN2nn4lmem24GetExpHeapGroupIdOfBlockEPKv
 00000000:0000007100068C78       _ZN2nn4lmem36GetExpHeapAllocationDirectionOfBlockEPKv
 00000000:0000007100068C90       _ZN2nn4lmem12CheckExpHeapEPNS0_6detail8HeapHeadEi
 00000000:0000007100068CE4       _ZN2nn4lmem17CheckExpHeapBlockEPNS0_6detail8HeapHeadEPKvi
 00000000:0000007100068D48       _ZN2nn4lmem21VisitExpHeapAllBlocksEPNS0_6detail8HeapHeadEPFvPvS3_mEm
 00000000:0000007100068DB0       _ZN2nn4lmem11DumpExpHeapEPNS0_6detail8HeapHeadE
 00000000:0000007100068DFC       _ZN2nn4lmem15CreateFrameHeapEPvmi
 00000000:0000007100068E38       _ZN2nn4lmem15CreateFrameHeapEPvmiPNS0_6detail8HeapHeadE
 00000000:0000007100068E74       _ZN2nn4lmem16DestroyFrameHeapEPNS0_6detail8HeapHeadE
 00000000:0000007100068EA4       _ZN2nn4lmem15AdjustFrameHeapEPNS0_6detail8HeapHeadENS0_10AdjustModeE
 00000000:0000007100068F08       _ZN2nn4lmem21AllocateFromFrameHeapEPNS0_6detail8HeapHeadEm
 00000000:0000007100068F60       _ZN2nn4lmem21AllocateFromFrameHeapEPNS0_6detail8HeapHeadEmi
 00000000:0000007100068FC4       _ZN2nn4lmem15FreeToFrameHeapEPNS0_6detail8HeapHeadENS0_8FreeModeE
 00000000:0000007100069018       _ZN2nn4lmem20ResizeFrameHeapBlockEPNS0_6detail8HeapHeadEPvm
 00000000:000000710006907C       _ZN2nn4lmem27GetFrameHeapAllocatableSizeEPNS0_6detail8HeapHeadEi
 00000000:00000071000690D0       _ZN2nn4lmem17GetFrameHeapStateEPNS0_6detail8HeapHeadE
 00000000:000000710006912C       _ZN2nn4lmem21RestoreFrameHeapStateEPNS0_6detail8HeapHeadERKNS0_14FrameHeapStateE
 00000000:0000007100069180       _ZN2nn4lmem13DumpFrameHeapEPNS0_6detail8HeapHeadE
 00000000:00000071000691CC       _ZN2nn4lmem14CreateUnitHeapEPvmmi
 00000000:0000007100069218       _ZN2nn4lmem14CreateUnitHeapEPvmmiiNS0_13InfoPlacementE
 00000000:0000007100069260       _ZN2nn4lmem14CreateUnitHeapEPvmmiiPNS0_6detail8HeapHeadE
 00000000:00000071000692B0       _ZN2nn4lmem15DestroyUnitHeapEPNS0_6detail8HeapHeadE
 00000000:00000071000692E0       _ZN2nn4lmem18InvalidateUnitHeapEPNS0_6detail8HeapHeadE
 00000000:000000710006932C       _ZN2nn4lmem18ExtendUnitHeapAreaEPNS0_6detail8HeapHeadEm
 00000000:0000007100069380       _ZN2nn4lmem20AllocateFromUnitHeapEPNS0_6detail8HeapHeadE
 00000000:00000071000693CC       _ZN2nn4lmem14FreeToUnitHeapEPNS0_6detail8HeapHeadEPv
 00000000:0000007100069420       _ZN2nn4lmem19GetUnitHeapUnitSizeEPNS0_6detail8HeapHeadE
 00000000:0000007100069424       _ZN2nn4lmem27GetUnitHeapAllocatableCountEPNS0_6detail8HeapHeadE
 00000000:0000007100069470       _ZN2nn4lmem25GetUnitHeapAllocatedCountEPNS0_6detail8HeapHeadE
 00000000:00000071000694BC       _ZN2nn4lmem20GetUnitHeapAlignmentEPNS0_6detail8HeapHeadE
 00000000:00000071000694C0       _ZN2nn4lmem23GetRequiredUnitHeapSizeEmiib
 00000000:00000071000694C8       _ZN2nn4lmem12DumpUnitHeapEPNS0_6detail8HeapHeadE
 00000000:0000007100069514       _ZN2nn4lmem6detail12InitHeapHeadEPNS1_8HeapHeadEjPvS4_i
 00000000:0000007100069524       _ZN2nn4lmem6detail12FinalizeHeapEPNS1_8HeapHeadE
 00000000:0000007100069528       _ZN2nn4lmem6detail12DumpHeapHeadEPKNS1_8HeapHeadE
 00000000:000000710006952C       _ZN2nn4lmem6detail14SetHeapFillValEij
 00000000:0000007100069544       _ZN2nn4lmem6detail14GetHeapFillValEi
 00000000:0000007100069554       _ZN2nn4lmem6detail10HasAddressEPNS1_8HeapHeadEPv
 00000000:00000071000695B8       _ZN2nn4lmem6detail16GetHeapTotalSizeEPNS1_8HeapHeadE
 00000000:000000710006961C       _ZN2nn4lmem6detail13CreateExpHeapEPvmi
 00000000:00000071000696B0       _ZN2nn4lmem6detail14DestroyExpHeapEPNS1_8HeapHeadE
 00000000:00000071000696B4       _ZN2nn4lmem6detail16AllocFromExpHeapEPNS1_8HeapHeadEmi
 00000000:0000007100069850       _ZN2nn4lmem6detail24ResizeExpHeapMemoryBlockEPNS1_8HeapHeadEPvm
 00000000:0000007100069AD0       _ZN2nn4lmem6detail13FreeToExpHeapEPNS1_8HeapHeadEPv
 00000000:0000007100069B3C       _ZN2nn4lmem6detail23GetExpHeapTotalFreeSizeEPNS1_8HeapHeadE
 00000000:0000007100069B64       _ZN2nn4lmem6detail25GetExpHeapAllocatableSizeEPNS1_8HeapHeadEi
 00000000:0000007100069BE0       _ZN2nn4lmem6detail19SetExpHeapAllocModeEPNS1_8HeapHeadEt
 00000000:0000007100069BF8       _ZN2nn4lmem6detail19GetExpHeapAllocModeEPNS1_8HeapHeadE
 00000000:0000007100069C04       _ZN2nn4lmem6detail30SetUseExpHeapMarginOfAlignmentEPNS1_8HeapHeadEb
 00000000:0000007100069C18       _ZN2nn4lmem6detail30GetUseExpHeapMarginOfAlignmentEPNS1_8HeapHeadE
 00000000:0000007100069C20       _ZN2nn4lmem6detail17SetExpHeapGroupIdEPNS1_8HeapHeadEt
 00000000:0000007100069C30       _ZN2nn4lmem6detail17GetExpHeapGroupIdEPNS1_8HeapHeadE
 00000000:0000007100069C38       _ZN2nn4lmem6detail25GetExpHeapMemoryBlockSizeEPKv
 00000000:0000007100069C40       _ZN2nn4lmem6detail25GetMemoryBlockHeapGroupIdEPKv
 00000000:0000007100069C48       _ZN2nn4lmem6detail26GetMemoryBlockHeapAllocDirEPKv
 00000000:0000007100069C54       _ZN2nn4lmem6detail13AdjustExpHeapEPNS1_8HeapHeadE
 00000000:0000007100069CD0       _ZN2nn4lmem6detail12CheckExpHeapEPNS1_8HeapHeadEj
 00000000:0000007100069E74       _ZN2nn4lmem6detail23CheckExpHeapMemoryBlockEPKvPNS1_8HeapHeadEj
 00000000:000000710006A018       _ZN2nn4lmem6detail21VisitExpHeapAllocatedEPNS1_8HeapHeadEPFvPvS3_mEm
 00000000:000000710006A068       _ZN2nn4lmem6detail11DumpExpHeapEPNS1_8HeapHeadE
 00000000:000000710006A260       _ZN2nn4lmem6detail17GetNextBlockFrontEPNS1_8HeapHeadE
 00000000:000000710006A268       _ZN2nn4lmem6detail16GetNextBlockRearEPNS1_8HeapHeadE
 00000000:000000710006A270       _ZN2nn4lmem6detail15CreateFrameHeapEPvmi
 00000000:000000710006A2D8       _ZN2nn4lmem6detail15CreateFrameHeapEPvmiPNS1_8HeapHeadE
 00000000:000000710006A338       _ZN2nn4lmem6detail16DestroyFrameHeapEPNS1_8HeapHeadE
 00000000:000000710006A33C       _ZN2nn4lmem6detail18AllocFromFrameHeapEPNS1_8HeapHeadEmi
 00000000:000000710006A3D8       _ZN2nn4lmem6detail15FreeToFrameHeapEPNS1_8HeapHeadENS0_8FreeModeE
 00000000:000000710006A3F4       _ZN2nn4lmem6detail30GetAllocatableSizeForFrameHeapEPNS1_8HeapHeadEi
 00000000:000000710006A420       _ZN2nn4lmem6detail17GetFrameHeapStateEPNS1_8HeapHeadE
 00000000:000000710006A42C       _ZN2nn4lmem6detail21RestoreFrameHeapStateEPNS1_8HeapHeadERKNS0_14FrameHeapStateE
 00000000:000000710006A440       _ZN2nn4lmem6detail15AdjustFrameHeapEPNS1_8HeapHeadENS0_10AdjustModeE
 00000000:000000710006A4BC       _ZN2nn4lmem6detail29ResizeForMemoryBlockFrameHeapEPNS1_8HeapHeadEPvm
 00000000:000000710006A508       _ZN2nn4lmem6detail13DumpFrameHeapEPNS1_8HeapHeadE
 00000000:000000710006A50C       _ZN2nn4lmem6detail14CreateUnitHeapEPvmmitNS0_13InfoPlacementEPNS1_8HeapHeadE
 00000000:000000710006A6BC       _ZN2nn4lmem6detail15DestroyUnitHeapEPNS1_8HeapHeadE
 00000000:000000710006A6CC       _ZN2nn4lmem6detail18InvalidateUnitHeapEPNS1_8HeapHeadE
 00000000:000000710006A6D4       _ZN2nn4lmem6detail18ExtendUnitHeapAreaEPNS1_8HeapHeadEm
 00000000:000000710006A760       _ZN2nn4lmem6detail17AllocFromUnitHeapEPNS1_8HeapHeadE
 00000000:000000710006A784       _ZN2nn4lmem6detail14FreeToUnitHeapEPNS1_8HeapHeadEPv
 00000000:000000710006A7A4       _ZN2nn4lmem6detail19GetUnitHeapUnitSizeEPNS1_8HeapHeadE
 00000000:000000710006A7AC       _ZN2nn4lmem6detail27GetUnitHeapAllocatableCountEPNS1_8HeapHeadE
 00000000:000000710006A7D0       _ZN2nn4lmem6detail25GetUnitHeapAllocatedCountEPNS1_8HeapHeadE
 00000000:000000710006A7D8       _ZN2nn4lmem6detail20GetUnitHeapAlignmentEPNS1_8HeapHeadE
 00000000:000000710006A7E0       _ZN2nn4lmem6detail23GetRequiredUnitHeapSizeEmiib
 00000000:000000710006A824       _ZN2nn4lmem6detail12DumpUnitHeapEPNS1_8HeapHeadE
 00000000:000000710006A854       nnmem_nlib_spinlock_lock_
 00000000:000000710006AA5C       nnmem_nlib_spinlock_unlock_
 00000000:000000710006AA9C       nnmem_nlib_getversion
 00000000:000000710006AAA8       nnmem_nlib_compiler_version
 00000000:000000710006AAB0       nnmem_nlib_once
 00000000:000000710006AC34       nnmem_nlib_thread_attr_init
 00000000:000000710006AC78       nnmem_nlib_thread_attr_destroy
 00000000:000000710006AC80       nnmem_nlib_thread_attr_setint
 00000000:000000710006AD3C       def_710006ACE0
 00000000:000000710006AD94       nnmem_nlib_thread_attr_getint
 00000000:000000710006AE2C       def_710006ADF4
 00000000:000000710006AE84       nnmem_nlib_thread_attr_setptr
 00000000:000000710006AE8C       nnmem_nlib_thread_attr_getptr
 00000000:000000710006AE94       nnmem_nlib_thread_attr_setstack
 00000000:000000710006AF30       nnmem_nlib_thread_attr_getstack
 00000000:000000710006AFD8       nnmem_nlib_rwlock_init
 00000000:000000710006B064       nnmem_nlib_rwlock_destroy
 00000000:000000710006B0B8       nnmem_nlib_rwlock_rdlock
 00000000:000000710006B130       nnmem_nlib_rwlock_tryrdlock
 00000000:000000710006B1AC       nnmem_nlib_rwlock_tryrdlock_for
 00000000:000000710006B228       nnmem_nlib_rwlock_tryrdlock_until
 00000000:000000710006B2C4       nnmem_nlib_rwlock_rdunlock
 00000000:000000710006B334       nnmem_nlib_rwlock_wrlock
 00000000:000000710006B3EC       nnmem_nlib_rwlock_trywrlock
 00000000:000000710006B474       nnmem_nlib_rwlock_trywrlock_until
 00000000:000000710006B584       nnmem_nlib_rwlock_trywrlock_for
 00000000:000000710006B5C8       nnmem_nlib_rwlock_wrunlock
 00000000:000000710006B604       nnmem_nlib_condrwlock_init
 00000000:000000710006B638       nnmem_nlib_condrwlock_destroy
 00000000:000000710006B664       nnmem_nlib_condrwlock_signal
 00000000:000000710006B6A0       nnmem_nlib_condrwlock_broadcast
 00000000:000000710006B6DC       nnmem_nlib_condrwlock_wait
 00000000:000000710006B7EC       nnmem_nlib_condrwlock_wait_for
 00000000:000000710006B90C       nnmem_nlib_condrwlock_wait_until
 00000000:000000710006BA2C       nnmem_nlib_error_string
 00000000:000000710006BA50       nnmem_nlib_snprintf
 00000000:000000710006BAD8       nnmem_nlib_vdprintf
 00000000:000000710006BCF0       nnmem_nlib_dprintf
 00000000:000000710006BD84       nnmem_nlib_printf
 00000000:000000710006BE4C       nnmem_nlib_snwprintf
 00000000:000000710006BED4       nnmem_nlib_vdwprintf
 00000000:000000710006C124       nnmem_nlib_wide_to_utf8
 00000000:000000710006C128       nnmem_nlib_dwprintf
 00000000:000000710006C1BC       nnmem_nlib_wprintf
 00000000:000000710006C270       nnmem_nlib_memcmp_generic
 00000000:000000710006C4CC       nnmem_nlib_memchr_generic
 00000000:000000710006C68C       nnmem_nlib_memrchr_generic
 00000000:000000710006C7EC       nnmem_nlib_memchr_not_generic
 00000000:000000710006C978       nnmem_nlib_memchr_range_not_generic
 00000000:000000710006CBC8       nnmem_nlib_memchr_lt
 00000000:000000710006CD64       nnmem_nlib_memchr_gt
 00000000:000000710006CEFC       nnmem_nlib_memchr_mb
 00000000:000000710006D088       nnmem_nlib_memspn
 00000000:000000710006D11C       def_710006D0D8
 00000000:000000710006D65C       nnmem_nlib_memcspn
 00000000:000000710006DACC       def_710006D6A8
 00000000:000000710006DC08       nnmem_nlib_strlen
 00000000:000000710006DD18       nnmem_nlib_memccpy
 00000000:000000710006DDC8       nnmem_nlib_skipws_generic
 00000000:000000710006DE8C       nnmem_nlib_strnlen
 00000000:000000710006DFC4       nnmem_nlib_strcpy
 00000000:000000710006E020       nnmem_nlib_strncpy
 00000000:000000710006E088       nnmem_nlib_strchr_generic
 00000000:000000710006E230       nnmem_nlib_strrchr_generic
 00000000:000000710006E340       nnmem_nlib_wcslen
 00000000:000000710006E3A0       nnmem_nlib_wcsnlen
 00000000:000000710006E42C       nnmem_nlib_wcscpy
 00000000:000000710006E48C       nnmem_nlib_wcsncpy
 00000000:000000710006E4F4       nnmem_nlib_strcat
 00000000:000000710006E56C       nnmem_nlib_strncat
 00000000:000000710006E5F8       nnmem_nlib_wcscat
 00000000:000000710006E674       nnmem_nlib_wcsncat
 00000000:000000710006E700       nnmem_nlib_utf32_to_utf8
 00000000:000000710006E91C       nnmem_nlib_utf8_to_wide
 00000000:000000710006E920       nnmem_nlib_utf8_to_utf32
 00000000:000000710006EB10       nnmem_nlib_memwide_to_utf8
 00000000:000000710006EB14       nnmem_nlib_memutf32_to_utf8
 00000000:000000710006ED50       nnmem_nlib_memutf8_to_wide
 00000000:000000710006ED54       nnmem_nlib_memutf8_to_utf32
 00000000:000000710006EFEC       def_710006EEBC
 00000000:000000710006F028       nnmem_nlib_strcplen
 00000000:000000710006F164       nnmem_nlib_memcplen
 00000000:000000710006F2BC       def_710006F1DC
 00000000:000000710006F30C       nnmem_nlib_wcscplen
 00000000:000000710006F35C       nnmem_nlib_utf32cplen
 00000000:000000710006F3B0       nnmem_nlib_swapendian_16_generic
 00000000:000000710006F44C       nnmem_nlib_swapendian_32
 00000000:000000710006F4C4       nnmem_nlib_swapendian_64_generic
 00000000:000000710006F53C       nnmem_nlib_utf16len_generic
 00000000:000000710006F5A4       nnmem_nlib_utf16nlen_generic
 00000000:000000710006F640       nnmem_nlib_utf16cpy_
 00000000:000000710006F6F0       nnmem_nlib_utf16ncpy_
 00000000:000000710006F7B8       nnmem_nlib_utf32len_
 00000000:000000710006F824       nnmem_nlib_utf32nlen_
 00000000:000000710006F8BC       nnmem_nlib_utf32cpy_
 00000000:000000710006F968       nnmem_nlib_utf32ncpy_
 00000000:000000710006FA2C       nnmem_nlib_utf16cplen_ex_
 00000000:000000710006FAD4       nnmem_nlib_utf16_to_utf32char
 00000000:000000710006FB38       nnmem_nlib_utf32char_to_utf16
 00000000:000000710006FB9C       nnmem_nlib_utf8_to_utf32char
 00000000:000000710006FBDC       def_710006FBC8
 00000000:000000710006FD20       nnmem_nlib_utf32char_to_utf8
 00000000:000000710006FDEC       nnmem_nlib_utf16_to_utf8
 00000000:00000071000700FC       nnmem_nlib_memutf16_to_utf8
 00000000:0000007100070550       nnmem_nlib_utf8_to_utf16
 00000000:00000071000707B8       nnmem_nlib_memutf8_to_utf16
 00000000:0000007100070A4C       def_7100070910
 00000000:0000007100070AC0       nnmem_nlib_log_vprint
 00000000:0000007100070C9C       nnmem_nlib_log_print
 00000000:0000007100070D54       nnmem_nlib_log_attr_setint
 00000000:0000007100071020       nnmem_nlib_fd_readv
 00000000:0000007100071264       nnmem_nlib_fd_writev
 00000000:000000710007140C       nnmem_nlib_fd_preadv
 00000000:000000710007165C       nnmem_nlib_fd_pwritev
 00000000:0000007100071810       nnmem_nlib_basename
 00000000:000000710007183C       nnmem_nlib_dirname
 00000000:00000071000718BC       nnmem_nlib_mkostemps
 00000000:0000007100071BEC       nnmem_nlib_mq_open
 00000000:00000071000720A4       nnmem_nlib_mq_getattr
 00000000:0000007100072368       nnmem_nlib_mq_close
 00000000:00000071000724C8       nnmem_nlib_mq_readonly
 00000000:00000071000725F0       nnmem_nlib_mq_send
 00000000:0000007100072748       nnmem_nlib_mq_send_until
 00000000:00000071000728A4       nnmem_nlib_mq_receive
 00000000:0000007100072A14       nnmem_nlib_mq_receive_until
 00000000:0000007100072B88       nnmem_nlib_mq_drop
 00000000:0000007100072CF8       nnmem_nlib_crc32
 00000000:0000007100072DCC       nnmem_nlib_crc32c
 00000000:0000007100072EA0       nnmem_nlib_vsnprintf_fallback
 00000000:000000710007300C       def_7100072FD8
 00000000:0000007100073058       def_7100073054
 00000000:00000071000737A8       def_7100073068
 00000000:00000071000739C8       def_71000738A8
 00000000:0000007100073A04       def_7100073880
 00000000:0000007100074AEC       nnmem_nlib_snprintf_fallback
 00000000:0000007100074B74       nnmem_nlib_vsnwprintf_fallback
 00000000:0000007100074CE0       def_7100074CAC
 00000000:0000007100074D2C       def_7100074D28
 00000000:0000007100075430       def_7100074D40
 00000000:0000007100075644       def_7100075530
 00000000:0000007100075680       def_7100075508
 00000000:00000071000767B0       nnmem_nlib_snwprintf_fallback
 00000000:0000007100076838       nnmem_nlib_strto_int32_fallback
 00000000:0000007100076A4C       def_7100076990
 00000000:0000007100076BF0       nnmem_nlib_strto_int64_fallback
 00000000:0000007100076CF0       nnmem_nlib_strto_uint32_fallback
 00000000:0000007100076DD4       nnmem_nlib_strto_uint64_fallback
 00000000:0000007100076EAC       nnmem_nlib_strto_double_fallback
 00000000:00000071000772F4       nnmem_nlib_strto_float_fallback
 00000000:00000071000773B0       nnmem_nlib_strto_int32
 00000000:0000007100077488       nnmem_nlib_strto_int64
 00000000:000000710007753C       nnmem_nlib_strto_uint32
 00000000:0000007100077618       nnmem_nlib_strto_uint64
 00000000:00000071000776E8       nnmem_nlib_strto_double
 00000000:000000710007778C       nnmem_nlib_strto_float
 00000000:0000007100077930       nnmem_nlib_timer_create
 00000000:0000007100077EE8       nnmem_nlib_timer_settime
 00000000:00000071000782C8       nnmem_nlib_timer_gettime
 00000000:000000710007836C       nnmem_nlib_timer_delete
 00000000:0000007100079B4C       _ZN2nn7nlibsdk23LockFreePlaceHolderPoolIPvvE4InitEm
 00000000:0000007100079D50       nullsub_81
 00000000:0000007100079D54       nnmem_nlib_get_native_last_error
 00000000:0000007100079D94       nnmem_nlib_epochtime
 00000000:0000007100079DF0       nnmem_nlib_ticktime
 00000000:0000007100079E3C       nnmem_nlib_gen_random
 00000000:0000007100079E54       nnmem_nlib_yield
 00000000:0000007100079E6C       nnmem_nlib_sleep
 00000000:0000007100079F24       nnmem_nlib_mempagesize
 00000000:0000007100079F34       nnmem_nlib_virtual_alloc
 00000000:000000710007A3B8       nnmem_nlib_virtual_free
 00000000:000000710007A458       nnmem_nlib_physical_alloc
 00000000:000000710007A518       nnmem_nlib_physical_free
 00000000:000000710007A5C4       nnmem_nlib_mlock
 00000000:000000710007A5CC       nnmem_nlib_munlock
 00000000:000000710007A5D4       nnmem_nlib_barrier_wait
 00000000:000000710007A5F4       nnmem_nlib_mutex_recursive_init
 00000000:000000710007A630       nnmem_nlib_mutex_recursive_timed_init
 00000000:000000710007A66C       nnmem_nlib_mutex_lock
 00000000:000000710007A700       nnmem_nlib_mutex_trylock
 00000000:000000710007A794       nnmem_nlib_mutex_trylock_for
 00000000:000000710007A9E0       nnmem_nlib_semaphore_init
 00000000:000000710007AA0C       nnmem_nlib_semaphore_wait
 00000000:000000710007AA24       nnmem_nlib_semaphore_trywait
 00000000:000000710007AA44       nnmem_nlib_semaphore_trywait_for
 00000000:000000710007AA6C       nnmem_nlib_semaphore_post
 00000000:000000710007AA90       nnmem_nlib_semaphore_post_ex
 00000000:000000710007AAB4       nnmem_nlib_semaphore_destroy
 00000000:000000710007AACC       nnmem_nlib_cond_wait_for
 00000000:000000710007ABD8       nnmem_nlib_cond_wait_until
 00000000:000000710007ACE0       nnmem_nlib_thread_create
 00000000:000000710007ACE8       nnmem_nlib_thread_join
 00000000:000000710007AD08       nnmem_nlib_thread_detach
 00000000:000000710007AD50       nnmem_nlib_thread_getid
 00000000:000000710007AD78       nnmem_nlib_thread_getcpu
 00000000:000000710007ADA0       nnmem_nlib_thread_setaffinity
 00000000:000000710007ADCC       nnmem_nlib_thread_setname
 00000000:000000710007AE18       _Z19nnmem_nlib_snprintfILm32EEiPmRAT__cPKcz
 00000000:000000710007AF18       nnmem_nlib_thread_getconcurrency
 00000000:000000710007AF50       nnmem_nlib_thread_getpriority
 00000000:000000710007AF8C       nnmem_nlib_thread_setpriority
 00000000:000000710007AF90       nnmem_nlib_thread_priority_min
 00000000:000000710007AFA0       nnmem_nlib_thread_priority_max
 00000000:000000710007AFB0       nnmem_nlib_thread_priority_default
 00000000:000000710007AFBC       nnmem_nlib_thread_exit
 00000000:000000710007AFCC       _Z26nnmem_nlib_thread_exit_cppv
 00000000:000000710007AFD0       nnmem_nlib_write_stdout
 00000000:000000710007AFE8       nnmem_nlib_write_stderr
 00000000:000000710007B000       nnmem_nlib_debug_break
 00000000:000000710007B008       nnmem_nlib_debug_backtrace
 00000000:000000710007B038       nnmem_nlib_debug_backtrace_gettext
 00000000:000000710007B054       nnmem_nlib_getenv
 00000000:000000710007B06C       nnmem_nlib_fd_open
 00000000:000000710007B098       nnmem_nlib_fd_close
 00000000:000000710007B0B8       nnmem_nlib_fd_read
 00000000:000000710007B11C       nnmem_nlib_fd_write
 00000000:000000710007B170       nnmem_nlib_fd_seek
 00000000:000000710007B1CC       nnmem_nlib_fd_pread
 00000000:000000710007B224       nnmem_nlib_fd_pwrite
 00000000:000000710007B27C       nnmem_nlib_fd_truncate
 00000000:000000710007B2AC       nnmem_nlib_fd_getsize
 00000000:000000710007B300       nnmem_nlib_fd_flush
 00000000:000000710007B308       nnmem_nlib_fd_sync
 00000000:000000710007B310       nnmem_nlib_fd_native_handle
 00000000:000000710007B320       nnmem_nlib_unlink
 00000000:000000710007B34C       nnmem_nlib_mkdir
 00000000:000000710007B37C       nnmem_nlib_rmdir
 00000000:000000710007B3A8       nnmem_nlib_remove
 00000000:000000710007B3D8       nnmem_nlib_rename
 00000000:000000710007B418       nnmem_nlib_dir_open
 00000000:000000710007B464       nnmem_nlib_dir_close
 00000000:000000710007B484       nnmem_nlib_dir_read
 00000000:000000710007B50C       nnmem_nlib_is_dir
 00000000:000000710007B580       nnmem_nlib_exist_path
 00000000:000000710007B5F0       nnmem_nlib_disk_freespace
 00000000:000000710007B604       nnmem_nlib_fd_fileid
 00000000:000000710007B60C       nnmem_nlib_readlink
 00000000:000000710007B614       nnmem_nlib_vsnprintf
 00000000:000000710007B6C4       nnmem_nlib_vsnwprintf
 00000000:000000710007B7C0       nnmem_nlib_malloc
 00000000:000000710007B7C8       nnmem_nlib_free
 00000000:000000710007B7CC       nnmem_nlib_calloc
 00000000:000000710007B7D4       nnmem_nlib_realloc
 00000000:000000710007B7DC       nnmem_nlib_memalign
 00000000:000000710007B7E4       nnmem_nlib_free_size
 00000000:000000710007B7E8       nnmem_nlib_malloc_size
 00000000:000000710007B7F0       nnmem_nlib_mount_host_nx
 00000000:000000710007B814       _ZN2nn7nlibsdk4heap12TlsHeapCache15ReleaseAllCacheEv
 00000000:000000710007B870       _ZN2nn7nlibsdk4heap14TlsHeapCentral22UncacheSmallMemoryListEPNS1_12TlsHeapCacheEPv
 00000000:000000710007B940       _ZN2nn7nlibsdk4heap12TlsHeapCache8FinalizeEv
 00000000:000000710007BA14       _ZN2nn7nlibsdk4heap12TlsHeapCache10CheckCacheEv
 00000000:000000710007BA1C       _ZN2nn7nlibsdk4heap12TlsHeapCache22GetAllocSizeFunc_Mode0EPS2_PKv
 00000000:000000710007BADC       _ZN2nn7nlibsdk4heap14TlsHeapCentral15GetClassFromPtrEPKv
 00000000:000000710007BB90       _ZN2nn7nlibsdk4heap12TlsHeapCacheC1EPNS1_14TlsHeapCentralEj
 00000000:000000710007BCF0       _ZN2nn7nlibsdk4heap12TlsHeapCache15AllocFunc_Mode0INSt3__117integral_constantIbLb0EEEEEPvPS2_m
 00000000:000000710007BE10       _ZN2nn7nlibsdk4heap12TlsHeapCache19AllocFuncAlgn_Mode0INSt3__117integral_constantIbLb0EEEEEPvPS2_mm
 00000000:000000710007BFEC       _ZN2nn7nlibsdk4heap12TlsHeapCache14FreeFunc_Mode0INSt3__117integral_constantIbLb0EEEEEiPS2_Pv
 00000000:000000710007C0DC       _ZN2nn7nlibsdk4heap12TlsHeapCache18FreeFuncSize_Mode0INSt3__117integral_constantIbLb0EEEEEiPS2_Pvm
 00000000:000000710007C1CC       _ZN2nn7nlibsdk4heap12TlsHeapCache17ReallocFunc_Mode0INSt3__117integral_constantIbLb0EEEEEiPS2_PvmPS8_
 00000000:000000710007C33C       _ZN2nn7nlibsdk4heap12TlsHeapCache15AllocFunc_Mode0INSt3__117integral_constantIbLb1EEEEEPvPS2_m
 00000000:000000710007C548       _ZN2nn7nlibsdk4heap12TlsHeapCache19AllocFuncAlgn_Mode0INSt3__117integral_constantIbLb1EEEEEPvPS2_mm
 00000000:000000710007C804       _ZN2nn7nlibsdk4heap12TlsHeapCache14FreeFunc_Mode0INSt3__117integral_constantIbLb1EEEEEiPS2_Pv
 00000000:000000710007C9B0       _ZN2nn7nlibsdk4heap12TlsHeapCache18FreeFuncSize_Mode0INSt3__117integral_constantIbLb1EEEEEiPS2_Pvm
 00000000:000000710007CB64       _ZN2nn7nlibsdk4heap12TlsHeapCache17ReallocFunc_Mode0INSt3__117integral_constantIbLb1EEEEEiPS2_PvmPS8_
 00000000:000000710007CCD4       _ZN2nn7nlibsdk4heap14TlsHeapCentral18FreeSpanToSpanPageEPNS1_4SpanEPNS1_8SpanPageE
 00000000:000000710007CD5C       _ZN2nn7nlibsdk4heap14TlsHeapCentral21AllocSpanFromSpanPageEPNS1_8SpanPageE
 00000000:000000710007CDE4       _ZN2nn7nlibsdk4heap14TlsHeapCentral22DestroySpanPageIfEmptyEPNS1_8SpanPageEb
 00000000:000000710007D37C       _ZN2nn7nlibsdk4heap14TlsHeapCentral9FreePagesEPNS1_4SpanE
 00000000:000000710007D464       _ZN2nn7nlibsdk4heap14TlsHeapCentralC2Ev
 00000000:000000710007D46C       _ZN2nn7nlibsdk4heap14TlsHeapCentralD2Ev
 00000000:000000710007D480       _ZN2nn7nlibsdk4heap14TlsHeapCentral8AllocPhyEPvm
 00000000:000000710007D580       _ZN2nn7nlibsdk4heap14TlsHeapCentral7FreePhyEPvm
 00000000:000000710007D678       _ZN2nn7nlibsdk4heap14TlsHeapCentral4InitEPvmb
 00000000:000000710007DAA8       _ZN2nn7nlibsdk4heap14TlsHeapCentral10AllocPagesEm
 00000000:000000710007E0C8       _ZN2nn7nlibsdk4heap14TlsHeapCentral12MakeFreeSpanEm
 00000000:000000710007E130       _ZN2nn7nlibsdk4heap14TlsHeapCentral14SearchFreeSpanEm
 00000000:000000710007E290       _ZN2nn7nlibsdk4heap14TlsHeapCentral9SplitSpanEPNS1_4SpanEmS4_
 00000000:000000710007E62C       _ZN2nn7nlibsdk4heap14TlsHeapCentral22AllocPagesWithBigAlignEmm
 00000000:000000710007F1C0       _ZN2nn7nlibsdk4heap14TlsHeapCentral17MergeIntoFreeListERPNS1_4SpanE
 00000000:000000710007F644       _ZN2nn7nlibsdk4heap15DoubleFreeErrorEPKv
 00000000:000000710007F648       _ZN2nn7nlibsdk4heap14TlsHeapCentral13AllocSpanPageEv
 00000000:000000710007FB78       _ZN2nn7nlibsdk4heap14TlsHeapCentral14MergeFreeSpansEPNS1_4SpanES4_m
 00000000:000000710007FCB4       _ZN2nn7nlibsdk4heap14TlsHeapCentral17CacheSmallMemory_EPhmb
 00000000:0000007100080354       _ZN2nn7nlibsdk4heap14TlsHeapCentral21CacheSmallMemoryList_EPNS1_12TlsHeapCacheEPhmPPvim
 00000000:000000710008099C       _ZN2nn7nlibsdk4heap14TlsHeapCentral19UncacheSmallMemory_EPv
 00000000:0000007100080B3C       _ZN2nn7nlibsdk4heap14TlsHeapCentral18ReallocLargeMemoryEPvmPS3_
 00000000:0000007100081168       _ZN2nn7nlibsdk4heap14TlsHeapCentral14GetPhyFreeSizeEPm
 00000000:00000071000811B4       _ZN2nn7nlibsdk4heap14TlsHeapCentral12GetMemStats_EPNS1_15TlsHeapMemStatsE
 00000000:0000007100081328       _ZN2nn7nlibsdk4heap14TlsHeapCentral5Dump_E15NMallocDumpModei
 00000000:000000710008148C       _ZN2nn7nlibsdk4heap14TlsHeapCentral18WalkAllocatedPtrs_EPFiPvmS3_ES3_
 00000000:0000007100081680       _ZN2nn7nlibsdk4heap14TlsHeapCentral14CheckSpanList_Ev
 00000000:0000007100081874       _ZN2nn7nlibsdk4heap14TlsHeapCentral12CalcHeapHashEP8HeapHash
 00000000:0000007100081A10       _ZN2nn7nlibsdk4heap14TlsHeapCentral7IsCleanEv
 00000000:0000007100081B48       _ZN2nn7nlibsdk4heap18NotNMallocPtrErrorEPKv
 00000000:0000007100081B4C       _ZN2nn7nlibsdk4heap19DataCorruptionErrorEPKv
 00000000:0000007100081B50       _ZN2nn7nlibsdk4heap11CentralHeap4InitEPvmj
 00000000:0000007100081CB0       _ZN2nn7nlibsdk4heap11CentralHeap8FinalizeEv
 00000000:0000007100081D10       _ZN2nn7nlibsdk4heap11CentralHeap9MakeCacheEPNS1_10CachedHeapE
 00000000:0000007100081DE8       _ZN2nn7nlibsdk4heap11CentralHeap5AllocEmm
 00000000:0000007100081F88       _ZN2nn7nlibsdk4heap11CentralHeap4FreeEPv
 00000000:0000007100082084       _ZN2nn7nlibsdk4heap11CentralHeap12FreeWithSizeEPvm
 00000000:0000007100082174       _ZN2nn7nlibsdk4heap11CentralHeap12GetAllocSizeEPKv
 00000000:0000007100082234       _ZN2nn7nlibsdk4heap11CentralHeap7ReallocEPvmPS3_
 00000000:0000007100082434       _ZN2nn7nlibsdk4heap11CentralHeap6QueryVEiSt9__va_list
 00000000:0000007100082974       def_7100082474
 00000000:0000007100082B14       _ZN2nn7nlibsdk4heap11CentralHeap5QueryEiz
 00000000:0000007100082BA8       _ZN2nn7nlibsdk4heap11CentralHeap17WalkAllocatedPtrsEPFiPvmS3_ES3_
 00000000:0000007100082C10       _ZN2nn7nlibsdk4heap10CachedHeap5AllocEm
 00000000:0000007100082C1C       _ZN2nn7nlibsdk4heap10CachedHeap5AllocEmm
 00000000:0000007100082C28       _ZN2nn7nlibsdk4heap10CachedHeap12GetAllocSizeEPKv
 00000000:0000007100082C34       _ZN2nn7nlibsdk4heap10CachedHeap4FreeEPv
 00000000:0000007100082C40       _ZN2nn7nlibsdk4heap10CachedHeap12FreeWithSizeEPvm
 00000000:0000007100082C4C       _ZN2nn7nlibsdk4heap10CachedHeap7ReallocEPvmPS3_
 00000000:0000007100082C58       _ZN2nn7nlibsdk4heap10CachedHeap15ReleaseAllCacheEv
 00000000:0000007100082C68       _ZN2nn7nlibsdk4heap10CachedHeap10CheckCacheEv
 00000000:0000007100082C98       _ZN2nn7nlibsdk4heap10CachedHeap5QueryEiz
 00000000:0000007100082DA4       _ZN2nn7nlibsdk4heap10CachedHeap8FinalizeEv
 00000000:0000007100082DD0       _ZN2nn7nlibsdk4heap10CachedHeap5ResetEPNS1_12TlsHeapCacheE
 00000000:0000007100082E04       _ZN2nn7nlibsdk4heap10CachedHeap7ReleaseEv
 00000000:0000007100082E14       _ZN2nn7nlibsdk4heap10CachedHeap6QueryVEiSt9__va_list
 00000000:0000007100082EE0       _ZN2nn3mem17StandardAllocatorC2Ev
 00000000:0000007100082F00       _ZN2nn3mem17StandardAllocatorC1EPvm
 00000000:0000007100082F24       _ZN2nn3mem17StandardAllocator10InitializeEPvm
 00000000:0000007100082F2C       _ZN2nn3mem17StandardAllocatorC1EPvmb
 00000000:0000007100082F50       _ZN2nn3mem17StandardAllocator10InitializeEPvmb
 00000000:0000007100083044       _ZN2nn3mem17StandardAllocator8FinalizeEv
 00000000:00000071000830A0       _ZN2nn3mem17StandardAllocator8AllocateEmm
 00000000:0000007100083190       _ZN2nn3mem17StandardAllocator8AllocateEm
 00000000:0000007100083198       _ZN2nn3mem17StandardAllocator4FreeEPv
 00000000:00000071000831F8       _ZN2nn3mem17StandardAllocator10ReallocateEPvm
 00000000:0000007100083324       _ZNK2nn3mem17StandardAllocator9GetSizeOfEPKv
 00000000:00000071000833DC       _ZNK2nn3mem17StandardAllocator16GetTotalFreeSizeEv
 00000000:0000007100083420       _ZNK2nn3mem17StandardAllocator18GetAllocatableSizeEv
 00000000:0000007100083464       _ZNK2nn3mem17StandardAllocator16ClearThreadCacheEv
 00000000:00000071000834B8       _ZNK2nn3mem17StandardAllocator19WalkAllocatedBlocksEPFiPvmS2_ES2_
 00000000:0000007100083530       _ZNK2nn3mem17StandardAllocator4DumpEv
 00000000:000000710008357C       _ZNK2nn3mem17StandardAllocator4HashEv
 00000000:000000710008369C       _ZN2nn3mem19NumberLineAllocator10InitializeEPFPvmS2_ES2_PFvS2_S2_ES2_
 00000000:0000007100083814       _ZN2nn3mem22NumberLineAllocatorPrvD2Ev
 00000000:0000007100083930       _ZN2nn3mem19NumberLineAllocator10InitializeEPFPvmS2_ES2_PFvS2_S2_ES2_b
 00000000:000000710008393C       _ZN2nn3mem19NumberLineAllocator8FinalizeEv
 00000000:000000710008398C       _ZN2nn3mem19NumberLineAllocator8AddRangeEii
 00000000:0000007100083A08       _ZN2nn3mem22NumberLineAllocatorPrv8AddRangeEjj
 00000000:0000007100083ED4       _ZN2nn3mem19NumberLineAllocator11RemoveRangeEii
 00000000:0000007100083F50       _ZN2nn3mem22NumberLineAllocatorPrv11RemoveRangeEjj
 00000000:0000007100084428       _ZN2nn3mem19NumberLineAllocator8AllocateEPii
 00000000:0000007100084B3C       _ZN2nn3mem19NumberLineAllocator8AllocateEPiiPvPFvS3_E
 00000000:0000007100084C04       _ZN2nn3mem19NumberLineAllocator8AllocateEPiii
 00000000:0000007100085480       _ZN2nn3mem19NumberLineAllocator8AllocateEPiiiPvPFvS3_E
 00000000:0000007100085554       _ZN2nn3mem19NumberLineAllocator4FreeEi
 00000000:00000071000855B8       _ZN2nn3mem22NumberLineAllocatorPrv4FreeEj
 00000000:00000071000858E0       _ZN2nn3mem19NumberLineAllocator12FindUserDataEPPvi
 00000000:00000071000859F8       _ZN2nn3mem19NumberLineAllocator9GetSizeOfEi
 00000000:0000007100085B04       _ZN2nn3mem19NumberLineAllocator16GetTotalFreeSizeEv
 00000000:0000007100085BEC       _ZN2nn3mem19NumberLineAllocator18GetAllocatableSizeEv
 00000000:0000007100085CDC       _ZN2nn3mem19NumberLineAllocator4DumpEmi
 00000000:0000007100085D20       _ZN2nn3mem22NumberLineAllocatorPrv10CompactionEv
 00000000:0000007100086228       _ZN2nn2os11SetHostArgcEi
 00000000:0000007100086238       _ZN2nn2os11GetHostArgcEv
 00000000:0000007100086248       _ZN2nn2os11SetHostArgvEPPc
 00000000:0000007100086258       _ZN2nn2os11GetHostArgvEv
 00000000:0000007100086268       _ZN2nn2os17InitializeBarrierEPNS0_11BarrierTypeEi
 00000000:00000071000862A4       _ZN2nn2os15FinalizeBarrierEPNS0_11BarrierTypeE
 00000000:00000071000862AC       _ZN2nn2os12AwaitBarrierEPNS0_11BarrierTypeE
 00000000:0000007100086384       _ZN2nn2os14FlushDataCacheEPKvm
 00000000:00000071000863BC       _ZN2nn2os20FlushEntireDataCacheEv
 00000000:00000071000863C0       _ZN2nn2os27InitializeConditionVariableEPNS0_21ConditionVariableTypeE
 00000000:00000071000863EC       _ZN2nn2os25FinalizeConditionVariableEPNS0_21ConditionVariableTypeE
 00000000:00000071000863F4       _ZN2nn2os23SignalConditionVariableEPNS0_21ConditionVariableTypeE
 00000000:00000071000863FC       _ZN2nn2os26BroadcastConditionVariableEPNS0_21ConditionVariableTypeE
 00000000:0000007100086404       _ZN2nn2os21WaitConditionVariableEPNS0_21ConditionVariableTypeEPNS0_9MutexTypeE
 00000000:0000007100086484       _ZN2nn2os26TimedWaitConditionVariableEPNS0_21ConditionVariableTypeEPNS0_9MutexTypeENS_8TimeSpanE
 00000000:0000007100086564       _ZN2nn2os19GetCurrentStackInfoEPmS1_
 00000000:00000071000865B0       _ZN2nn2os27GetCurrentStackInfoForDebugEPmS1_
 00000000:00000071000865FC       _ZN2nn2os15QueryMemoryInfoEPNS0_10MemoryInfoE
 00000000:0000007100086600       _ZN2nn2os23QueryMemoryInfoForDebugEPNS0_10MemoryInfoE
 00000000:0000007100086604       _ZN2nn2os16GetIdleTickCountEv
 00000000:000000710008665C       _ZN2nn2os14IsMemoryLockedEmm
 00000000:0000007100086678       _ZN2nn2os14IsMemoryLockedEPvm
 00000000:0000007100086694       _ZN2nn2os15InitializeEventEPNS0_9EventTypeEbNS0_14EventClearModeE
 00000000:00000071000866F0       _ZN2nn2os13FinalizeEventEPNS0_9EventTypeE
 00000000:00000071000866F8       _ZN2nn2os11SignalEventEPNS0_9EventTypeE
 00000000:000000710008679C       _ZN2nn2os10ClearEventEPNS0_9EventTypeE
 00000000:00000071000867CC       _ZN2nn2os9WaitEventEPNS0_9EventTypeE
 00000000:0000007100086868       _ZN2nn2os12TryWaitEventEPNS0_9EventTypeE
 00000000:00000071000868B8       _ZN2nn2os14TimedWaitEventEPNS0_9EventTypeENS_8TimeSpanE
 00000000:0000007100086990       _ZN2nn2os25InitializeMultiWaitHolderEPNS0_19MultiWaitHolderTypeEPNS0_9EventTypeE
 00000000:00000071000869B8       _ZN2nn2os20InitializeLightEventEPNS0_14LightEventTypeEbNS0_14EventClearModeE
 00000000:0000007100086A1C       _ZN2nn2os18FinalizeLightEventEPNS0_14LightEventTypeE
 00000000:0000007100086A28       _ZN2nn2os16SignalLightEventEPNS0_14LightEventTypeE
 00000000:0000007100086ADC       _ZN2nn2os15ClearLightEventEPNS0_14LightEventTypeE
 00000000:0000007100086B58       _ZN2nn2os14WaitLightEventEPNS0_14LightEventTypeE
 00000000:0000007100086C8C       _ZN2nn2os17TryWaitLightEventEPNS0_14LightEventTypeE
 00000000:0000007100086CD8       _ZN2nn2os19TimedWaitLightEventEPNS0_14LightEventTypeENS_8TimeSpanE
 00000000:0000007100086E68       _ZN2nn2os15InitializeFiberEPNS0_9FiberTypeEPFS2_PvES3_S3_mi
 00000000:0000007100086FA8       _ZN2nn2os13FinalizeFiberEPNS0_9FiberTypeE
 00000000:0000007100086FE8       _ZN2nn2os13SwitchToFiberEPNS0_9FiberTypeE
 00000000:0000007100087108       _ZN2nn2os6detail16GetCurrentThreadEv
 00000000:0000007100087114       _ZN2nn2os6detail18FiberImplByHorizon6SwitchEPNS0_9FiberTypeES4_
 00000000:0000007100087120       _ZN2nn2os15GetCurrentFiberEv
 00000000:0000007100087130       _ZN2nn2os20InitializeTimerEventEPNS0_14TimerEventTypeENS0_14EventClearModeE
 00000000:0000007100087180       _ZN2nn2os18FinalizeTimerEventEPNS0_14TimerEventTypeE
 00000000:0000007100087188       _ZN2nn2os22StartOneShotTimerEventEPNS0_14TimerEventTypeENS_8TimeSpanE
 00000000:0000007100087208       _ZN2nn2os23StartPeriodicTimerEventEPNS0_14TimerEventTypeENS_8TimeSpanES3_
 00000000:000000710008728C       _ZN2nn2os14StopTimerEventEPNS0_14TimerEventTypeE
 00000000:00000071000872F0       _ZN2nn2os16SignalTimerEventEPNS0_14TimerEventTypeE
 00000000:00000071000873A4       _ZN2nn2os15ClearTimerEventEPNS0_14TimerEventTypeE
 00000000:0000007100087458       _ZN2nn2os14WaitTimerEventEPNS0_14TimerEventTypeE
 00000000:00000071000875D0       _ZN2nn2os17TryWaitTimerEventEPNS0_14TimerEventTypeE
 00000000:00000071000876B0       _ZN2nn2os25InitializeMultiWaitHolderEPNS0_19MultiWaitHolderTypeEPNS0_14TimerEventTypeE
 00000000:00000071000876D8       _ZN2nn2os24InitializeInterruptEventEPNS0_18InterruptEventTypeEiNS0_14EventClearModeE
 00000000:0000007100087708       _ZN2nn2os22FinalizeInterruptEventEPNS0_18InterruptEventTypeE
 00000000:0000007100087714       _ZN2nn2os19ClearInterruptEventEPNS0_18InterruptEventTypeE
 00000000:000000710008771C       _ZN2nn2os18WaitInterruptEventEPNS0_18InterruptEventTypeE
 00000000:0000007100087724       _ZN2nn2os21TryWaitInterruptEventEPNS0_18InterruptEventTypeE
 00000000:000000710008772C       _ZN2nn2os23TimedWaitInterruptEventEPNS0_18InterruptEventTypeENS_8TimeSpanE
 00000000:0000007100087734       _ZN2nn2os25InitializeMultiWaitHolderEPNS0_19MultiWaitHolderTypeEPNS0_18InterruptEventTypeE
 00000000:000000710008775C       _ZN2nn2os17CreateSystemEventEPNS0_15SystemEventTypeENS0_14EventClearModeEb
 00000000:00000071000877B4       _ZN2nn2os17AttachSystemEventEPNS0_15SystemEventTypeEjbjbNS0_14EventClearModeE
 00000000:00000071000877E4       _ZN2nn2os33AttachReadableHandleToSystemEventEPNS0_15SystemEventTypeEjbNS0_14EventClearModeE
 00000000:0000007100087820       _ZN2nn2os33AttachWritableHandleToSystemEventEPNS0_15SystemEventTypeEjbNS0_14EventClearModeE
 00000000:0000007100087864       _ZN2nn2os33DetachReadableHandleOfSystemEventEPNS0_15SystemEventTypeE
 00000000:0000007100087868       _ZN2nn2os33DetachWritableHandleOfSystemEventEPNS0_15SystemEventTypeE
 00000000:000000710008786C       _ZN2nn2os18DestroySystemEventEPNS0_15SystemEventTypeE
 00000000:00000071000878AC       _ZN2nn2os15WaitSystemEventEPNS0_15SystemEventTypeE
 00000000:00000071000878E8       _ZN2nn2os18TryWaitSystemEventEPNS0_15SystemEventTypeE
 00000000:0000007100087924       _ZN2nn2os20TimedWaitSystemEventEPNS0_15SystemEventTypeENS_8TimeSpanE
 00000000:0000007100087960       _ZN2nn2os17SignalSystemEventEPNS0_15SystemEventTypeE
 00000000:000000710008799C       _ZN2nn2os16ClearSystemEventEPNS0_15SystemEventTypeE
 00000000:00000071000879D8       _ZN2nn2os30GetReadableHandleOfSystemEventEPKNS0_15SystemEventTypeE
 00000000:00000071000879DC       _ZN2nn2os30GetWritableHandleOfSystemEventEPKNS0_15SystemEventTypeE
 00000000:00000071000879E0       _ZN2nn2os30GetReadableHandleOfSystemEventEPNS0_15SystemEventTypeE
 00000000:00000071000879E4       _ZN2nn2os30GetWritableHandleOfSystemEventEPNS0_15SystemEventTypeE
 00000000:00000071000879E8       _ZN2nn2os25InitializeMultiWaitHolderEPNS0_19MultiWaitHolderTypeEPNS0_15SystemEventTypeE
 00000000:0000007100087A5C       _ZN2nn2os22InitializeMessageQueueEPNS0_16MessageQueueTypeEPmm
 00000000:0000007100087AC0       _ZN2nn2os20FinalizeMessageQueueEPNS0_16MessageQueueTypeE
 00000000:0000007100087AC8       _ZN2nn2os16SendMessageQueueEPNS0_16MessageQueueTypeEm
 00000000:0000007100087B84       _ZN2nn2os19TrySendMessageQueueEPNS0_16MessageQueueTypeEm
 00000000:0000007100087C30       _ZN2nn2os21TimedSendMessageQueueEPNS0_16MessageQueueTypeEmNS_8TimeSpanE
 00000000:0000007100087D68       _ZN2nn2os15JamMessageQueueEPNS0_16MessageQueueTypeEm
 00000000:0000007100087E18       _ZN2nn2os18TryJamMessageQueueEPNS0_16MessageQueueTypeEm
 00000000:0000007100087EC4       _ZN2nn2os20TimedJamMessageQueueEPNS0_16MessageQueueTypeEmNS_8TimeSpanE
 00000000:0000007100087FF0       _ZN2nn2os19ReceiveMessageQueueEPmPNS0_16MessageQueueTypeE
 00000000:000000710008809C       _ZN2nn2os22TryReceiveMessageQueueEPmPNS0_16MessageQueueTypeE
 00000000:0000007100088148       _ZN2nn2os24TimedReceiveMessageQueueEPmPNS0_16MessageQueueTypeENS_8TimeSpanE
 00000000:0000007100088270       _ZN2nn2os16PeekMessageQueueEPmPKNS0_16MessageQueueTypeE
 00000000:00000071000882D8       _ZN2nn2os19TryPeekMessageQueueEPmPKNS0_16MessageQueueTypeE
 00000000:0000007100088340       _ZN2nn2os21TimedPeekMessageQueueEPmPKNS0_16MessageQueueTypeENS_8TimeSpanE
 00000000:0000007100088424       _ZN2nn2os25InitializeMultiWaitHolderEPNS0_19MultiWaitHolderTypeEPNS0_16MessageQueueTypeENS0_20MessageQueueWaitTypeE
 00000000:0000007100088494       _ZN2nn2os19InitializeMultiWaitEPNS0_13MultiWaitTypeE
 00000000:00000071000884D4       _ZN2nn2os17FinalizeMultiWaitEPNS0_13MultiWaitTypeE
 00000000:00000071000884DC       _ZN2nn2os7WaitAnyEPNS0_13MultiWaitTypeE
 00000000:00000071000884EC       _ZN2nn2os10TryWaitAnyEPNS0_13MultiWaitTypeE
 00000000:00000071000884FC       _ZN2nn2os12TimedWaitAnyEPNS0_13MultiWaitTypeENS_8TimeSpanE
 00000000:0000007100088510       _ZN2nn2os23FinalizeMultiWaitHolderEPNS0_19MultiWaitHolderTypeE
 00000000:0000007100088514       _ZN2nn2os19LinkMultiWaitHolderEPNS0_13MultiWaitTypeEPNS0_19MultiWaitHolderTypeE
 00000000:0000007100088538       _ZN2nn2os21UnlinkMultiWaitHolderEPNS0_19MultiWaitHolderTypeE
 00000000:000000710008856C       _ZN2nn2os24UnlinkAllMultiWaitHolderEPNS0_13MultiWaitTypeE
 00000000:00000071000885A8       _ZN2nn2os22MoveAllMultiWaitHolderEPNS0_13MultiWaitTypeES2_
 00000000:0000007100088610       _ZN2nn2os26SetMultiWaitHolderUserDataEPNS0_19MultiWaitHolderTypeEm
 00000000:0000007100088618       _ZN2nn2os26GetMultiWaitHolderUserDataEPKNS0_19MultiWaitHolderTypeE
 00000000:0000007100088620       _ZN2nn2os25InitializeMultiWaitHolderEPNS0_19MultiWaitHolderTypeEj
 00000000:000000710008864C       _ZN2nn2os15InitializeMutexEPNS0_9MutexTypeEbi
 00000000:0000007100088698       _ZN2nn2os13FinalizeMutexEPNS0_9MutexTypeE
 00000000:00000071000886A0       _ZN2nn2os9LockMutexEPNS0_9MutexTypeE
 00000000:000000710008870C       _ZN2nn2os12TryLockMutexEPNS0_9MutexTypeE
 00000000:000000710008878C       _ZN2nn2os11UnlockMutexEPNS0_9MutexTypeE
 00000000:00000071000887AC       _ZN2nn2os28IsMutexLockedByCurrentThreadEPKNS0_9MutexTypeE
 00000000:00000071000887C4       _ZN2nn2os19GenerateRandomBytesEPvm
 00000000:000000710008883C       _ZN2nn2os26InitializeReaderWriterLockEPNS0_20ReaderWriterLockTypeE
 00000000:0000007100088884       _ZN2nn2os24FinalizeReaderWriterLockEPNS0_20ReaderWriterLockTypeE
 00000000:000000710008888C       _ZN2nn2os15AcquireReadLockEPNS0_20ReaderWriterLockTypeE
 00000000:0000007100088914       _ZN2nn2os18TryAcquireReadLockEPNS0_20ReaderWriterLockTypeE
 00000000:0000007100088974       _ZN2nn2os15ReleaseReadLockEPNS0_20ReaderWriterLockTypeE
 00000000:00000071000889DC       _ZN2nn2os16AcquireWriteLockEPNS0_20ReaderWriterLockTypeE
 00000000:0000007100088A8C       _ZN2nn2os19TryAcquireWriteLockEPNS0_20ReaderWriterLockTypeE
 00000000:0000007100088B24       _ZN2nn2os16ReleaseWriteLockEPNS0_20ReaderWriterLockTypeE
 00000000:0000007100088B90       _ZN2nn2os14IsReadLockHeldEPKNS0_20ReaderWriterLockTypeE
 00000000:0000007100088BA0       _ZN2nn2os30IsWriteLockHeldByCurrentThreadEPKNS0_20ReaderWriterLockTypeE
 00000000:0000007100088BB8       _ZN2nn2os19InitializeSemaphoreEPNS0_13SemaphoreTypeEii
 00000000:0000007100088C04       _ZN2nn2os17FinalizeSemaphoreEPNS0_13SemaphoreTypeE
 00000000:0000007100088C0C       _ZN2nn2os16AcquireSemaphoreEPNS0_13SemaphoreTypeE
 00000000:0000007100088C68       _ZN2nn2os19TryAcquireSemaphoreEPNS0_13SemaphoreTypeE
 00000000:0000007100088CBC       _ZN2nn2os21TimedAcquireSemaphoreEPNS0_13SemaphoreTypeENS_8TimeSpanE
 00000000:0000007100088D88       _ZN2nn2os16ReleaseSemaphoreEPNS0_13SemaphoreTypeE
 00000000:0000007100088DF0       _ZN2nn2os16ReleaseSemaphoreEPNS0_13SemaphoreTypeEi
 00000000:0000007100088E5C       _ZN2nn2os24GetCurrentSemaphoreCountEPKNS0_13SemaphoreTypeE
 00000000:0000007100088E64       _ZN2nn2os25InitializeMultiWaitHolderEPNS0_19MultiWaitHolderTypeEPNS0_13SemaphoreTypeE
 00000000:0000007100088E8C       _ZN2nn2os12CreateThreadEPNS0_10ThreadTypeEPFvPvES3_S3_mii
 00000000:0000007100088EE8       _ZN2nn2os12CreateThreadEPNS0_10ThreadTypeEPFvPvES3_S3_mi
 00000000:0000007100088F3C       _ZN2nn2os13DestroyThreadEPNS0_10ThreadTypeE
 00000000:0000007100088F54       _ZN2nn2os11StartThreadEPNS0_10ThreadTypeE
 00000000:0000007100088F6C       _ZN2nn2os13SetThreadNameEPNS0_10ThreadTypeEPKc
 00000000:0000007100089150       _ZN2nn2os20SetThreadNamePointerEPNS0_10ThreadTypeEPKc
 00000000:0000007100089174       _ZN2nn2os20GetThreadNamePointerEPKNS0_10ThreadTypeE
 00000000:000000710008917C       _ZN2nn2os16GetCurrentThreadEv
 00000000:0000007100089188       _ZN2nn2os20ChangeThreadPriorityEPNS0_10ThreadTypeEi
 00000000:00000071000891E8       _ZN2nn2os17GetThreadPriorityEPKNS0_10ThreadTypeE
 00000000:00000071000891F0       _ZN2nn2os24GetThreadCurrentPriorityEPKNS0_10ThreadTypeE
 00000000:0000007100089208       _ZN2nn2os11YieldThreadEv
 00000000:0000007100089218       _ZN2nn2os11SleepThreadENS_8TimeSpanE
 00000000:000000710008921C       _ZN2nn2os10WaitThreadEPNS0_10ThreadTypeE
 00000000:0000007100089234       _ZN2nn2os20GetCurrentCoreNumberEv
 00000000:0000007100089244       _ZN2nn2os25GetCurrentProcessorNumberEv
 00000000:0000007100089254       _ZN2nn2os25InitializeMultiWaitHolderEPNS0_19MultiWaitHolderTypeEPNS0_10ThreadTypeE
 00000000:000000710008927C       _ZN2nn2os17SetThreadCoreMaskEPNS0_10ThreadTypeEim
 00000000:00000071000892A4       _ZN2nn2os17GetThreadCoreMaskEPiPmPKNS0_10ThreadTypeE
 00000000:00000071000892CC       _ZN2nn2os26GetThreadAvailableCoreMaskEv
 00000000:00000071000892DC       _ZN2nn2os11GetThreadIdEPKNS0_10ThreadTypeE
 00000000:00000071000892F4       _ZN2nn2os9QuickExitEv
 00000000:000000710008930C       _ZN2nn2os6detail13ThreadManager9QuickExitEv
 00000000:0000007100089318       _ZN2nn2os6detail26ThreadManagerImplByHorizon9QuickExitEv
 00000000:0000007100089328       _ZN2nn2os13SuspendThreadEPNS0_10ThreadTypeE
 00000000:0000007100089340       _ZN2nn2os12ResumeThreadEPNS0_10ThreadTypeE
 00000000:0000007100089358       _ZN2nn2os21GetThreadSuspendCountEPKNS0_10ThreadTypeE
 00000000:0000007100089360       _ZN2nn2os16GetThreadContextEPNS0_24ThreadContextInfoAarch64EPKNS0_10ThreadTypeE
 00000000:0000007100089380       _ZN2nn2os15AllocateTlsSlotEPNS0_7TlsSlotEPFvmE
 00000000:00000071000893C0       _ZN2nn2os18SdkAllocateTlsSlotEPNS0_7TlsSlotEPFvmE
 00000000:0000007100089400       _ZN2nn2os11FreeTlsSlotENS0_7TlsSlotE
 00000000:0000007100089414       _ZN2nn2os11GetTlsValueENS0_7TlsSlotE
 00000000:0000007100089428       _ZN2nn2os11SetTlsValueENS0_7TlsSlotEm
 00000000:000000710008943C       _ZN2nn2os19GetUsedTlsSlotCountEv
 00000000:000000710008944C       _ZN2nn2os13GetSystemTickEv
 00000000:0000007100089454       _ZN2nn2os22GetSystemTickFrequencyEv
 00000000:0000007100089460       _ZN2nn2os17ConvertToTimeSpanENS0_4TickE
 00000000:0000007100089478       _ZN2nn2os13ConvertToTickENS_8TimeSpanE
 00000000:0000007100089490       _ZN2nn2os17SetMemoryHeapSizeEm
 00000000:00000071000894BC       _ZN2nn2os20GetMemoryHeapAddressEv
 00000000:00000071000894CC       _ZN2nn2os17GetMemoryHeapSizeEv
 00000000:00000071000894DC       _ZN2nn2os19AllocateMemoryBlockEPmm
 00000000:0000007100089510       _ZN2nn2os15FreeMemoryBlockEmm
 00000000:0000007100089570       _ZN2nn2os19SetMemoryPermissionEmmNS0_16MemoryPermissionE
 00000000:0000007100089574       _ZN2nn2os18SetMemoryAttributeEmmNS0_15MemoryAttributeE
 00000000:0000007100089578       _ZN2nn2os18CreateSharedMemoryEPNS0_16SharedMemoryTypeEmNS0_16MemoryPermissionES3_
 00000000:00000071000895D4       _ZN2nn2os18AttachSharedMemoryEPNS0_16SharedMemoryTypeEmjb
 00000000:0000007100089614       _ZN2nn2os19DestroySharedMemoryEPNS0_16SharedMemoryTypeE
 00000000:00000071000896AC       _ZN2nn2os17UnmapSharedMemoryEPNS0_16SharedMemoryTypeE
 00000000:0000007100089708       _ZN2nn2os15MapSharedMemoryEPNS0_16SharedMemoryTypeENS0_16MemoryPermissionE
 00000000:000000710008987C       _ZN2nn2os22GetSharedMemoryAddressEPKNS0_16SharedMemoryTypeE
 00000000:0000007100089884       _ZN2nn2os19GetSharedMemorySizeEPKNS0_16SharedMemoryTypeE
 00000000:000000710008988C       _ZN2nn2os21GetSharedMemoryHandleEPKNS0_16SharedMemoryTypeE
 00000000:0000007100089894       _ZN2nn2os20CreateTransferMemoryEPNS0_18TransferMemoryTypeEPvmNS0_16MemoryPermissionE
 00000000:00000071000898F0       _ZN2nn2os20AttachTransferMemoryEPNS0_18TransferMemoryTypeEmjb
 00000000:0000007100089930       _ZN2nn2os20DetachTransferMemoryEPNS0_18TransferMemoryTypeE
 00000000:000000710008994C       _ZN2nn2os21DestroyTransferMemoryEPNS0_18TransferMemoryTypeE
 00000000:00000071000899E4       _ZN2nn2os19UnmapTransferMemoryEPNS0_18TransferMemoryTypeE
 00000000:0000007100089A40       _ZN2nn2os17MapTransferMemoryEPPvPNS0_18TransferMemoryTypeENS0_16MemoryPermissionE
 00000000:0000007100089BB0       _ZN2nn2os17CloseNativeHandleEj
 00000000:0000007100089BFC       _ZN2nn2os23SetUserExceptionHandlerEPFvPNS0_17UserExceptionInfoEEPvmS2_
 00000000:0000007100089C5C       _ZN2nn2os37EnableUserExceptionHandlerOnDebuggingEb
 00000000:0000007100089C70       _ZN2nn2os27DefaultUserExceptionHandlerEPNS0_17UserExceptionInfoE
 00000000:0000007100089CB8       _ZN2nn2os32SetMemoryAllocatorForThreadLocalEPFPvmmEPFvS1_mE
 00000000:0000007100089D08       _ZN2nn2os40MemoryAllocatorForThreadLocalInitializedEv
 00000000:0000007100089D1C       nnosAllocateMemoryForThreadLocal
 00000000:0000007100089D2C       nnosFreeMemoryForThreadLocal
 00000000:0000007100089D44       nnosGetModuleCountMax
 00000000:0000007100089D4C       _ZN2nn2os17GetLastThreadInfoEPPNS0_10ThreadTypeEPNS0_20SdkLastThreadContextEPj
 00000000:0000007100089DF8       _ZN2nn2os18GetThreadStackInfoEPmS1_PKNS0_10ThreadTypeE
 00000000:0000007100089E5C       _ZN2nn2dd23GetCurrentProcessHandleEv
 00000000:0000007100089E64       _ZN2nn2os23GetCurrentProcessHandleEv
 00000000:0000007100089E6C       nnosExitProcess
 00000000:0000007100089E84       _ZN2nn2os6detail13ThreadManager11ExitProcessEv
 00000000:0000007100089E90       _ZN2nn2os6detail26ThreadManagerImplByHorizon15ExitProcessImplEv
 00000000:0000007100089EB4       nnosNotifyDebugger
 00000000:0000007100089EB8       nnosBreak
 00000000:0000007100089EDC       _ZN2nn2os30InitializeVirtualAddressMemoryEv
 00000000:0000007100089EEC       _ZN2nn2os21AllocateAddressRegionEPmm
 00000000:0000007100089F20       _ZN2nn2os14AllocateMemoryEPmm
 00000000:0000007100089F54       _ZN2nn2os19AllocateMemoryPagesEmm
 00000000:0000007100089F88       _ZN2nn2os17FreeAddressRegionEm
 00000000:0000007100089FB4       _ZN2nn2os15FreeMemoryPagesEmm
 00000000:0000007100089FE8       _ZN2nn2os36GetVirtualAddressMemoryResourceUsageEv
 00000000:0000007100089FF8       _ZN2nn2os29IsVirtualAddressMemoryEnabledEv
 00000000:000000710008A008       nnosCreateThread
 00000000:000000710008A020       nnosCreateThreadWithCoreNumber
 00000000:000000710008A038       nnosDestroyThread
 00000000:000000710008A03C       nnosStartThread
 00000000:000000710008A040       nnosGetCurrentThread
 00000000:000000710008A044       nnosWaitThread
 00000000:000000710008A048       nnosYieldThread
 00000000:000000710008A04C       nnosSleepThread
 00000000:000000710008A050       nnosChangeThreadPriority
 00000000:000000710008A054       nnosGetThreadPriority
 00000000:000000710008A058       nnosGetThreadCurrentPriority
 00000000:000000710008A05C       nnosSetThreadName
 00000000:000000710008A060       nnosSetThreadNamePointer
 00000000:000000710008A064       nnosGetThreadNamePointer
 00000000:000000710008A068       nnosGetCurrentProcessorNumber
 00000000:000000710008A06C       nnosGetCurrentCoreNumber
 00000000:000000710008A070       nnosQuickExit
 00000000:000000710008A07C       nnosInitializeMultiWaitHolderForThread
 00000000:000000710008A080       nnosInitializeSemaphore
 00000000:000000710008A084       nnosFinalizeSemaphore
 00000000:000000710008A088       nnosAcquireSemaphore
 00000000:000000710008A08C       nnosTryAcquireSemaphore
 00000000:000000710008A090       nnosTimedAcquireSemaphore
 00000000:000000710008A094       nnosReleaseSemaphore
 00000000:000000710008A098       nnosReleaseSemaphoreCount
 00000000:000000710008A09C       nnosGetCurrentSemaphoreCount
 00000000:000000710008A0A0       nnosInitializeMultiWaitHolderForSemaphore
 00000000:000000710008A0A4       nnosInitializeTimerEvent
 00000000:000000710008A0A8       nnosFinalizeTimerEvent
 00000000:000000710008A0AC       nnosStartOneShotTimerEvent
 00000000:000000710008A0B0       nnosStartPeriodicTimerEvent
 00000000:000000710008A0B4       nnosStopTimerEvent
 00000000:000000710008A0B8       nnosSignalTimerEvent
 00000000:000000710008A0BC       nnosClearTimerEvent
 00000000:000000710008A0C0       nnosWaitTimerEvent
 00000000:000000710008A0C4       nnosTryWaitTimerEvent
 00000000:000000710008A0C8       nnosInitializeMultiWaitHolderForTimerEvent
 00000000:000000710008A0CC       nnosInitializeMutex
 00000000:000000710008A0D4       nnosFinalizeMutex
 00000000:000000710008A0D8       nnosLockMutex
 00000000:000000710008A0DC       nnosTryLockMutex
 00000000:000000710008A0E0       nnosUnlockMutex
 00000000:000000710008A0E4       nnosInitializeConditionVariable
 00000000:000000710008A0E8       nnosFinalizeConditionVariable
 00000000:000000710008A0EC       nnosSignalConditionVariable
 00000000:000000710008A0F0       nnosBroadcastConditionVariable
 00000000:000000710008A0F4       nnosWaitConditionVariable
 00000000:000000710008A0F8       nnosTimedWaitConditionVariable
 00000000:000000710008A0FC       nnosCreateSystemEvent
 00000000:000000710008A118       nnosAttachSystemEvent
 00000000:000000710008A124       nnosAttachReadableHandleToSystemEvent
 00000000:000000710008A12C       nnosAttachWritableHandleToSystemEvent
 00000000:000000710008A134       nnosDetachReadableHandleOfSystemEvent
 00000000:000000710008A138       nnosDetachWritableHandleOfSystemEvent
 00000000:000000710008A13C       nnosDestroySystemEvent
 00000000:000000710008A140       nnosWaitSystemEvent
 00000000:000000710008A144       nnosTryWaitSystemEvent
 00000000:000000710008A148       nnosTimedWaitSystemEvent
 00000000:000000710008A14C       nnosSignalSystemEvent
 00000000:000000710008A150       nnosClearSystemEvent
 00000000:000000710008A154       nnosGetReadableHandleOfSystemEvent
 00000000:000000710008A158       nnosGetWritableHandleOfSystemEvent
 00000000:000000710008A15C       nnosInitializeMultiWaitHolderForSystemEvent
 00000000:000000710008A160       nnosInitializeEvent
 00000000:000000710008A168       nnosFinalizeEvent
 00000000:000000710008A16C       nnosWaitEvent
 00000000:000000710008A170       nnosTimedWaitEvent
 00000000:000000710008A174       nnosTryWaitEvent
 00000000:000000710008A178       nnosSignalEvent
 00000000:000000710008A17C       nnosClearEvent
 00000000:000000710008A180       nnosInitializeMultiWaitHolderForEvent
 00000000:000000710008A184       nnosInitializeInterruptEvent
 00000000:000000710008A188       nnosFinalizeInterruptEvent
 00000000:000000710008A18C       nnosWaitInterruptEvent
 00000000:000000710008A190       nnosTimedWaitInterruptEvent
 00000000:000000710008A194       nnosTryWaitInterruptEvent
 00000000:000000710008A198       nnosClearInterruptEvent
 00000000:000000710008A19C       nnosInitializeMultiWaitHolderForInterruptEvent
 00000000:000000710008A1A0       nnosInitializeMessageQueue
 00000000:000000710008A1A4       nnosFinalizeMessageQueue
 00000000:000000710008A1A8       nnosSendMessageQueue
 00000000:000000710008A1AC       nnosTrySendMessageQueue
 00000000:000000710008A1B0       nnosTimedSendMessageQueue
 00000000:000000710008A1B4       nnosJamMessageQueue
 00000000:000000710008A1B8       nnosTryJamMessageQueue
 00000000:000000710008A1BC       nnosTimedJamMessageQueue
 00000000:000000710008A1C0       nnosReceiveMessageQueue
 00000000:000000710008A1C4       nnosTryReceiveMessageQueue
 00000000:000000710008A1C8       nnosTimedReceiveMessageQueue
 00000000:000000710008A1CC       nnosPeekMessageQueue
 00000000:000000710008A1D0       nnosTryPeekMessageQueue
 00000000:000000710008A1D4       nnosTimedPeekMessageQueue
 00000000:000000710008A1D8       nnosInitializeMultiWaitHolderForMessageQueue
 00000000:000000710008A1DC       nnosInitializeMultiWait
 00000000:000000710008A1E0       nnosFinalizeMultiWait
 00000000:000000710008A1E4       nnosWaitAny
 00000000:000000710008A1E8       nnosTryWaitAny
 00000000:000000710008A1EC       nnosTimedWaitAny
 00000000:000000710008A1F0       nnosFinalizeMultiWaitHolder
 00000000:000000710008A1F4       nnosLinkMultiWaitHolder
 00000000:000000710008A1F8       nnosUnlinkMultiWaitHolder
 00000000:000000710008A1FC       nnosUnlinkAllMultiWaitHolder
 00000000:000000710008A200       nnosMoveAllMultiWaitHolder
 00000000:000000710008A204       nnosSetMultiWaitHolderUserData
 00000000:000000710008A208       nnosGetMultiWaitHolderUserData
 00000000:000000710008A20C       nnosCloseNativeHandle
 00000000:000000710008A210       nnosAllocateTlsSlot
 00000000:000000710008A228       nnosFreeTlsSlot
 00000000:000000710008A230       nnosGetTlsValue
 00000000:000000710008A238       nnosSetTlsValue
 00000000:000000710008A240       nnosGetUsedTlsSlotCount
 00000000:000000710008A244       nnosGetSystemTick
 00000000:000000710008A248       nnosGetSystemTickFrequency
 00000000:000000710008A24C       nnosConvertTickToNanoSeconds
 00000000:000000710008A250       nnosConvertNanoSecondsToTick
 00000000:000000710008A254       _ZN2nn2os6detail14NotImplementedEPKci
 00000000:000000710008A274       _ZN2nn2os6detail26ExpandUnsignedValueToAsciiEPcmi
 00000000:000000710008A2DC       _ZN2nn2os6detail23CreateInterProcessEventEPNS1_21InterProcessEventTypeENS0_14EventClearModeE
 00000000:000000710008A344       _ZN2nn2os6detail24DestroyInterProcessEventEPNS1_21InterProcessEventTypeE
 00000000:000000710008A3A8       _ZN2nn2os6detail23AttachInterProcessEventEPNS1_21InterProcessEventTypeEjbjbNS0_14EventClearModeE
 00000000:000000710008A3D8       _ZN2nn2os6detail39DetachReadableHandleOfInterProcessEventEPNS1_21InterProcessEventTypeE
 00000000:000000710008A3EC       _ZN2nn2os6detail39DetachWritableHandleOfInterProcessEventEPNS1_21InterProcessEventTypeE
 00000000:000000710008A400       _ZN2nn2os6detail21WaitInterProcessEventEPNS1_21InterProcessEventTypeE
 00000000:000000710008A410       _ZN2nn2os6detail24TryWaitInterProcessEventEPNS1_21InterProcessEventTypeE
 00000000:000000710008A420       _ZN2nn2os6detail26TimedWaitInterProcessEventEPNS1_21InterProcessEventTypeENS_8TimeSpanE
 00000000:000000710008A438       _ZN2nn2os6detail23SignalInterProcessEventEPNS1_21InterProcessEventTypeE
 00000000:000000710008A440       _ZN2nn2os6detail22ClearInterProcessEventEPNS1_21InterProcessEventTypeE
 00000000:000000710008A454       _ZN2nn2os6detail36GetReadableHandleOfInterProcessEventEPKNS1_21InterProcessEventTypeE
 00000000:000000710008A45C       _ZN2nn2os6detail36GetWritableHandleOfInterProcessEventEPKNS1_21InterProcessEventTypeE
 00000000:000000710008A464       _ZN2nn2os6detail23SetupThreadObjectUnsafeEPNS0_10ThreadTypeEPFvPvES4_S4_mi
 00000000:000000710008A504       _ZN2nn2os6detail13ThreadManager13CleanupThreadEv
 00000000:000000710008A580       _ZN2nn2os6detail13ThreadManager22CreateAliasStackUnsafeEPNS0_10ThreadTypeE
 00000000:000000710008A64C       _ZN2nn2os6detail13ThreadManager22DeleteAliasStackUnsafeEPNS0_10ThreadTypeE
 00000000:000000710008A680       _ZN2nn2os6detail13ThreadManager12CreateThreadEPNS0_10ThreadTypeEPFvPvES5_S5_mii
 00000000:000000710008A91C       _ZN2nn2os6detail13ThreadManager12CreateThreadEPNS0_10ThreadTypeEPFvPvES5_S5_mi
 00000000:000000710008A938       _ZN2nn2os6detail13ThreadManager11StartThreadEPNS0_10ThreadTypeE
 00000000:000000710008A98C       _ZN2nn2os6detail13ThreadManager10WaitThreadEPNS0_10ThreadTypeE
 00000000:000000710008A9EC       _ZN2nn2os6detail13ThreadManager13DestroyThreadEPNS0_10ThreadTypeE
 00000000:000000710008AAF8       _ZN2nn2os6detail13ThreadManager13SuspendThreadEPNS0_10ThreadTypeE
 00000000:000000710008AB54       _ZN2nn2os6detail13ThreadManager12ResumeThreadEPNS0_10ThreadTypeE
 00000000:000000710008ABB8       _ZN2nn2os6detail13ThreadManager16GetThreadContextEPNS0_24ThreadContextInfoAarch64EPKNS0_10ThreadTypeE
 00000000:000000710008AC04       _ZN2nn2os6detail13ThreadManager26SetZeroToAllThreadsTlsSafeEi
 00000000:000000710008AC64       _ZN2nn2os6detail13ThreadManager26SetInitialThreadNameUnsafeEPNS0_10ThreadTypeE
 00000000:000000710008ACE0       _ZN2nn2os6detail13ThreadManagerC2Ev
 00000000:000000710008ADA4       _ZNK2nn2os6detail10TlsManager25SearchUnusedTlsSlotUnsafeEb
 00000000:000000710008B048       _ZN2nn2os6detail10TlsManagerC2Ev
 00000000:000000710008B080       _ZN2nn2os6detail10TlsManager20InvokeTlsDestructorsEv
 00000000:000000710008B130       _ZN2nn2os6detail10TlsManager15AllocateTlsSlotEPNS0_7TlsSlotEPFvmEb
 00000000:000000710008B220       nullsub_82
 00000000:000000710008B224       _ZN2nn2os6detail10TlsManager11FreeTlsSlotENS0_7TlsSlotE
 00000000:000000710008B2B4       _ZNK2nn2os6detail11TickManager17ConvertToTimeSpanENS0_4TickE
 00000000:000000710008B300       _ZNK2nn2os6detail11TickManager13ConvertToTickENS_8TimeSpanE
 00000000:000000710008B364       _ZN2nn2os6detail17MemoryHeapManager39ConcatenatePreviousFreeMemoryNodeUnsafeENS_4util13IntrusiveListINS1_14FreeMemoryNodeENS3_29IntrusiveListMemberNodeTraitsIS5_XadL_ZNS5_6m_nodeEEES5_EEE8iteratorE
 00000000:000000710008B3C8       _ZN2nn2os6detail17MemoryHeapManager19FindFreeSpaceUnsafeEm
 00000000:000000710008B414       _ZN2nn2os6detail17MemoryHeapManager25SplitFreeMemoryNodeUnsafeENS_4util13IntrusiveListINS1_14FreeMemoryNodeENS3_29IntrusiveListMemberNodeTraitsIS5_XadL_ZNS5_6m_nodeEEES5_EEE8iteratorEm
 00000000:000000710008B450       _ZN2nn2os6detail17MemoryHeapManager20AddToFreeSpaceUnsafeEmm
 00000000:000000710008B53C       _ZN2nn2os6detail17MemoryHeapManager29IsRegionAllocatedMemoryUnsafeEmm
 00000000:000000710008B58C       _ZN2nn2os6detail17MemoryHeapManager11SetHeapSizeEm
 00000000:000000710008B7D4       _ZN2nn2os6detail17MemoryHeapManager16AllocateFromHeapEPmm
 00000000:000000710008B908       _ZN2nn2os6detail17MemoryHeapManager13ReleaseToHeapEmm
 00000000:000000710008BACC       _ZNK2nn2os6detail13TimeoutHelper19GetLeftTimeOnTargetEv
 00000000:000000710008BAFC       _ZN2nn2os6detail12SaturatedAddENS_8TimeSpanES2_
 00000000:000000710008BB10       _ZN2nn2os6detail15StopTimerUnsafeEPNS0_14TimerEventTypeE
 00000000:000000710008BB1C       _ZN2nn2os6detail48UpdateSignalStateAndRecalcNextTimeToWakeupUnsafeEPNS0_14TimerEventTypeENS_8TimeSpanE
 00000000:000000710008BBFC       _ZN2nn2os6detail13MultiWaitImpl22RecalcMultiWaitTimeoutEPNS_8TimeSpanES3_
 00000000:000000710008BC84       _ZN2nn2os6detail13MultiWaitImpl21ConstructObjectsArrayEPjPPNS1_19MultiWaitHolderBaseEi
 00000000:000000710008BD14       _ZN2nn2os6detail13MultiWaitImpl38AddToEachObjectListAndCheckObjectStateEv
 00000000:000000710008BD90       _ZN2nn2os6detail13MultiWaitImpl24RemoveFromEachObjectListEv
 00000000:000000710008BDD0       _ZN2nn2os6detail13MultiWaitImpl19InternalWaitAnyImplEbNS_8TimeSpanE
 00000000:000000710008C084       _ZN2nn2os6detail13MultiWaitImpl11WaitAnyImplEbNS_8TimeSpanE
 00000000:000000710008C15C       _ZN2nn2os6detail13MultiWaitImpl21NotifyAndWakeupThreadEPNS1_19MultiWaitHolderBaseE
 00000000:000000710008C1A8       _ZNK2nn2os6detail23MultiWaitHolderOfThread10IsSignaledEv
 00000000:000000710008C1F0       _ZN2nn2os6detail23MultiWaitHolderOfThread15AddToObjectListEv
 00000000:000000710008C240       _ZN2nn2os6detail23MultiWaitHolderOfThread20RemoveFromObjectListEv
 00000000:000000710008C2A0       _ZNK2nn2os6detail31MultiWaitHolderOfUserWaitObject15GetNativeHandleEPj
 00000000:000000710008C2A8       _ZNK2nn2os6detail19MultiWaitHolderBase23GetAbsoluteTimeToWakeupEv
 00000000:000000710008C2B0       _ZNK2nn2os6detail26MultiWaitHolderOfSemaphore10IsSignaledEv
 00000000:000000710008C2F8       _ZN2nn2os6detail26MultiWaitHolderOfSemaphore15AddToObjectListEv
 00000000:000000710008C348       _ZN2nn2os6detail26MultiWaitHolderOfSemaphore20RemoveFromObjectListEv
 00000000:000000710008C3A4       _ZNK2nn2os6detail22MultiWaitHolderOfEvent10IsSignaledEv
 00000000:000000710008C3E4       _ZN2nn2os6detail22MultiWaitHolderOfEvent15AddToObjectListEv
 00000000:000000710008C434       _ZN2nn2os6detail22MultiWaitHolderOfEvent20RemoveFromObjectListEv
 00000000:000000710008C490       _ZNK2nn2os6detail27MultiWaitHolderOfTimerEvent10IsSignaledEv
 00000000:000000710008C4DC       _ZN2nn2os6detail27MultiWaitHolderOfTimerEvent15AddToObjectListEv
 00000000:000000710008C52C       _ZN2nn2os6detail27MultiWaitHolderOfTimerEvent20RemoveFromObjectListEv
 00000000:000000710008C588       _ZNK2nn2os6detail27MultiWaitHolderOfTimerEvent23GetAbsoluteTimeToWakeupEv
 00000000:000000710008C5D8       _ZNK2nn2os6detail31MultiWaitHolderOfInterruptEvent10IsSignaledEv
 00000000:000000710008C5E0       _ZNK2nn2os6detail31MultiWaitHolderOfInterruptEvent15GetNativeHandleEPj
 00000000:000000710008C5F4       _ZN2nn2os6detail33MultiWaitHolderOfNativeWaitObject15AddToObjectListEv
 00000000:000000710008C5F8       _ZN2nn2os6detail33MultiWaitHolderOfNativeWaitObject20RemoveFromObjectListEv
 00000000:000000710008C5FC       _ZNK2nn2os6detail34MultiWaitHolderOfInterProcessEvent10IsSignaledEv
 00000000:000000710008C604       _ZNK2nn2os6detail34MultiWaitHolderOfInterProcessEvent15GetNativeHandleEPj
 00000000:000000710008C618       _ZNK2nn2os6detail36MultiWaitHolderOfMessageQueueNotFull10IsSignaledEv
 00000000:000000710008C660       _ZN2nn2os6detail36MultiWaitHolderOfMessageQueueNotFull15AddToObjectListEv
 00000000:000000710008C6B0       _ZN2nn2os6detail36MultiWaitHolderOfMessageQueueNotFull20RemoveFromObjectListEv
 00000000:000000710008C70C       _ZNK2nn2os6detail37MultiWaitHolderOfMessageQueueNotEmpty10IsSignaledEv
 00000000:000000710008C754       _ZN2nn2os6detail37MultiWaitHolderOfMessageQueueNotEmpty15AddToObjectListEv
 00000000:000000710008C7A4       _ZN2nn2os6detail37MultiWaitHolderOfMessageQueueNotEmpty20RemoveFromObjectListEv
 00000000:000000710008C804       _ZNK2nn2os6detail29MultiWaitHolderOfNativeHandle10IsSignaledEv
 00000000:000000710008C80C       _ZNK2nn2os6detail29MultiWaitHolderOfNativeHandle15GetNativeHandleEPj
 00000000:000000710008C81C       _ZN2nn2os6detail21AddressSpaceAllocatorC2Emmm
 00000000:000000710008C868       _ZN2nn2os6detail21AddressSpaceAllocator30GetNextNonOverlappedNodeUnsafeEmm
 00000000:000000710008C8C8       _ZN2nn2os6detail21AddressSpaceAllocator13AllocateSpaceEmm
 00000000:000000710008C9C4       _ZN2nn2os6detail21AddressSpaceAllocator15CheckGuardSpaceEmmm
 00000000:000000710008CA5C       _ZN2nn2os6detail10RngManager17GenerateRandomU64Ev
 00000000:000000710008CAB0       _ZN2nn2os6detail11VammManagerC2Ev
 00000000:000000710008CAE0       _ZN2nn2os6detail24VammManagerImplByHorizon21GetReservedRegionImplEPmS3_
 00000000:000000710008CB80       _ZN2nn2os6detail11VammManager19InitializeIfEnabledEv
 00000000:000000710008CBF8       _ZNK2nn2os6detail11VammManager29IsVirtualAddressMemoryEnabledEv
 00000000:000000710008CC3C       _ZN2nn2os6detail20AddressRegionManagerC2Emm
 00000000:000000710008CD5C       _ZN2nn2os6detail11VammManager21AllocateAddressRegionEPmm
 00000000:000000710008CF30       _ZN2nn2os6detail11VammManager14AllocateMemoryEPmm
 00000000:000000710008D47C       _ZN2nn2os6detail11VammManager19AllocateMemoryPagesEmm
 00000000:000000710008D630       _ZN2nn2os6detail11VammManager17FreeAddressRegionEm
 00000000:000000710008D740       _ZN2nn2os6detail11VammManager15FreeMemoryPagesEmm
 00000000:000000710008D904       _ZN2nn2os6detail11VammManager36GetVirtualAddressMemoryResourceUsageEv
 00000000:000000710008DCC4       _ZN2nn2os6detail18DebugImplByHorizon19GetCurrentStackInfoEPmS3_
 00000000:000000710008DD6C       _ZN2nn2os6detail18DebugImplByHorizon15QueryMemoryInfoEPNS0_10MemoryInfoE
 00000000:000000710008DE48       _ZN2nn2os6detail38ExamineWholeAddressSpaceHasNoAttributeEmm
 00000000:000000710008DED0       _ZN2nn2os6detail18FiberImplByHorizon10InitializeEPNS0_9FiberTypeEPFvS4_E
 00000000:000000710008DEE8       _ZN2nn2os6detail18FiberImplByHorizon13MapAliasStackEPKvS4_m
 00000000:000000710008DF04       _ZN2nn2os6detail18FiberImplByHorizon15UnmapAliasStackEPKvS4_m
 00000000:000000710008DF20       _ZN2nn2os6detail20DispatchFiberContextEPPNS1_22FiberContextForHorizonES4_
 00000000:000000710008DF98       _ZN2nn2os6detail17CallFiberFunctionEPFPNS0_9FiberTypeEPvES4_
 00000000:000000710008DFB4       _ZN2nn2os6detail25SharedMemoryImplByHorizon6CreateEPjmNS0_16MemoryPermissionES4_
 00000000:000000710008E088       _ZN2nn2os6detail25SharedMemoryImplByHorizon5CloseEj
 00000000:000000710008E0D0       _ZN2nn2os6detail25SharedMemoryImplByHorizon3MapEPPvjS3_mNS0_16MemoryPermissionE
 00000000:000000710008E194       _ZN2nn2os6detail25SharedMemoryImplByHorizon5UnmapEjPvm
 00000000:000000710008E1DC       _ZN2nn2os6detail27TransferMemoryImplByHorizon6CreateEPjPvmNS0_16MemoryPermissionE
 00000000:000000710008E2B4       _ZN2nn2os6detail27TransferMemoryImplByHorizon5CloseEj
 00000000:000000710008E2FC       _ZN2nn2os6detail27TransferMemoryImplByHorizon3MapEPPvjS3_mNS0_16MemoryPermissionE
 00000000:000000710008E3F0       _ZN2nn2os6detail27TransferMemoryImplByHorizon5UnmapEjPvm
 00000000:000000710008E438       _ZN2nn2os6detail22MultiWaitImplByHorizon20WaitSynchronizationNEiPjil
 00000000:000000710008E4CC       _ZN2nn2os6detail22MultiWaitImplByHorizon10CancelWaitEv
 00000000:000000710008E514       _ZN2nn2os6detail26ThreadManagerImplByHorizonC1EPNS0_10ThreadTypeE
 00000000:000000710008E5F8       _ZNK2nn2os6detail26ThreadManagerImplByHorizon13MapAliasStackEPKvS4_m
 00000000:000000710008E72C       _ZNK2nn2os6detail26ThreadManagerImplByHorizon15UnmapAliasStackEPKvS4_m
 00000000:000000710008E754       _ZN2nn2os6detail26ThreadManagerImplByHorizon12CreateThreadEPNS0_10ThreadTypeEPFvS4_Ei
 00000000:000000710008E9A0       _ZN2nn2os6detail26ThreadManagerImplByHorizon11StartThreadEPKNS0_10ThreadTypeE
 00000000:000000710008E9E8       _ZN2nn2os6detail26ThreadManagerImplByHorizon19DestroyThreadUnsafeEPNS0_10ThreadTypeE
 00000000:000000710008EA38       _ZN2nn2os6detail26ThreadManagerImplByHorizon17WaitForExitThreadEPNS0_10ThreadTypeE
 00000000:000000710008EADC       _ZN2nn2os6detail26ThreadManagerImplByHorizon11YieldThreadEv
 00000000:000000710008EAE4       _ZN2nn2os6detail26ThreadManagerImplByHorizon14ChangePriorityEPNS0_10ThreadTypeEi
 00000000:000000710008EB34       _ZNK2nn2os6detail26ThreadManagerImplByHorizon18GetCurrentPriorityEPKNS0_10ThreadTypeE
 00000000:000000710008EB88       _ZNK2nn2os6detail26ThreadManagerImplByHorizon11GetThreadIdEPKNS0_10ThreadTypeE
 00000000:000000710008EBF4       _ZN2nn2os6detail26ThreadManagerImplByHorizon19SuspendThreadUnsafeEPNS0_10ThreadTypeE
 00000000:000000710008EC40       _ZN2nn2os6detail26ThreadManagerImplByHorizon18ResumeThreadUnsafeEPNS0_10ThreadTypeE
 00000000:000000710008EC8C       _ZN2nn2os6detail26ThreadManagerImplByHorizon22GetThreadContextUnsafeEPNS0_24ThreadContextInfoAarch64EPKNS0_10ThreadTypeE
 00000000:000000710008ED48       _ZNK2nn2os6detail26ThreadManagerImplByHorizon20GetCurrentCoreNumberEv
 00000000:000000710008ED4C       _ZNK2nn2os6detail26ThreadManagerImplByHorizon17SetThreadCoreMaskEPNS0_10ThreadTypeEim
 00000000:000000710008ED9C       _ZNK2nn2os6detail26ThreadManagerImplByHorizon17GetThreadCoreMaskEPiPmPKNS0_10ThreadTypeE
 00000000:000000710008EE14       _ZNK2nn2os6detail26ThreadManagerImplByHorizon26GetThreadAvailableCoreMaskEv
 00000000:000000710008EE6C       _ZN2nn2os6detail27InterruptEventImplByHorizonC1EiNS0_14EventClearModeE
 00000000:000000710008EEDC       _ZN2nn2os6detail27InterruptEventImplByHorizonD2Ev
 00000000:000000710008EF24       _ZN2nn2os6detail27InterruptEventImplByHorizon5ClearEv
 00000000:000000710008EF6C       _ZN2nn2os6detail27InterruptEventImplByHorizon4WaitEv
 00000000:000000710008EFF4       _ZN2nn2os6detail27InterruptEventImplByHorizon7TryWaitEv
 00000000:000000710008F068       _ZN2nn2os6detail27InterruptEventImplByHorizon9TimedWaitENS_8TimeSpanE
 00000000:000000710008F150       _ZN2nn2os6detail30InterProcessEventImplByHorizon6CreateEPjS3_
 00000000:000000710008F1FC       _ZN2nn2os6detail30InterProcessEventImplByHorizon5CloseEj
 00000000:000000710008F248       _ZN2nn2os6detail30InterProcessEventImplByHorizon6SignalEj
 00000000:000000710008F290       _ZN2nn2os6detail30InterProcessEventImplByHorizon5ClearEj
 00000000:000000710008F2D8       _ZN2nn2os6detail30InterProcessEventImplByHorizon4WaitEjb
 00000000:000000710008F390       _ZN2nn2os6detail30InterProcessEventImplByHorizon7TryWaitEjb
 00000000:000000710008F3F8       _ZN2nn2os6detail30InterProcessEventImplByHorizon9TimedWaitEjbNS_8TimeSpanE
 00000000:000000710008F514       _ZN2nn2os6detail30MemoryHeapManagerImplByHorizon11SetHeapSizeEPmm
 00000000:000000710008F5A0       _ZN2nn2os6detail23SetMemoryPermissionImplEmmNS0_16MemoryPermissionE
 00000000:000000710008F69C       _ZN2nn2os6detail22SetMemoryAttributeImplEmmNS0_15MemoryAttributeE
 00000000:000000710008F77C       _ZN2nn2os6detail38InternalConditionVariableImplByHorizonC2Ev
 00000000:000000710008F784       _ZN2nn2os6detail38InternalConditionVariableImplByHorizon6SignalEv
 00000000:000000710008F78C       _ZN2nn2os6detail38InternalConditionVariableImplByHorizon9BroadcastEv
 00000000:000000710008F794       _ZN2nn2os6detail38InternalConditionVariableImplByHorizon4WaitEPNS1_23InternalCriticalSectionE
 00000000:000000710008F7FC       _ZN2nn2os6detail38InternalConditionVariableImplByHorizon9TimedWaitEPNS1_23InternalCriticalSectionERKNS1_13TimeoutHelperE
 00000000:000000710008F89C       nnosInitialize
 00000000:000000710008FA78       _ZN2nn2os6detail17OsResourceManagerC2Ev
 00000000:000000710008FB80       _ZN2nn2os6detail29AslrSpaceManagerImplByHorizon22GetAslrSpaceEndAddressEv
 00000000:000000710008FC04       _ZN2nn2os6detail30StackGuardManagerImplByHorizon23GetStackGuardEndAddressEv
 00000000:000000710008FC88       _ZN2nn2os6detail36InternalCriticalSectionImplByHorizonC2Ev
 00000000:000000710008FC90       _ZN2nn2os6detail36InternalCriticalSectionImplByHorizon5EnterEv
 00000000:000000710008FD20       _ZN2nn2os6detail36InternalCriticalSectionImplByHorizon8TryEnterEv
 00000000:000000710008FD50       _ZN2nn2os6detail36InternalCriticalSectionImplByHorizon5LeaveEv
 00000000:000000710008FD84       _ZN2nn2os6detail10RngManagerC2Ev
 00000000:000000710008FDF4       _ZN2nn2os6detail20InitializeRandomImplEPNS_4util6TinyMtE
 00000000:000000710008FE60       _ZN2nn2os6detail18NotifyDebuggerImplE22nnosNotificationReasonmm
 00000000:000000710008FE70       _ZN2nn2os6detail9BreakImplE15nnosBreakReasonmm
 00000000:000000710008FEA4       _ZN2nn2os6detail20UserExceptionHandlerEv
 00000000:00000071000901F8       _ZN2nn6result6detail17OnUnhandledResultENS_6ResultE
 00000000:0000007100090230       nnResultGetModule
 00000000:0000007100090238       nnResultGetDescription
 00000000:0000007100090240       nnResultIsSuccess
 00000000:000000710009024C       nnResultIsFailure
 00000000:0000007100090258       nnResultSuccess
 00000000:0000007100090260       _ZN2nn2ro10InitializeEv
 00000000:0000007100090438       _ZN2nn2ro8FinalizeEv
 00000000:00000071000905CC       _ZN2nn2ro13GetBufferSizeEPmPKv
 00000000:00000071000905F8       _ZN2nn2ro18RegisterModuleInfoEPNS0_16RegistrationInfoEPKv
 00000000:00000071000906FC       _ZN2nn2ro20UnregisterModuleInfoEPNS0_16RegistrationInfoE
 00000000:00000071000907E4       _ZN2nn2ro10LoadModuleEPNS0_6ModuleEPKvPvmi
 00000000:0000007100090A5C       _ZN2nn2ro12LookupSymbolEPmPKc
 00000000:0000007100090B70       _ZN2nn2ro18LookupModuleSymbolEPmPKNS0_6ModuleEPKc
 00000000:0000007100090BC0       _ZN2nn2ro12UnloadModuleEPNS0_6ModuleE
 00000000:0000007100090D24       _ZN2nn2sf13SharedPointerINS_2ro6detail12IRoInterfaceEED2Ev
 00000000:0000007100090EC4       _ZN2nn2sf4hipc6client24Hipc2ClientCoreProcessorILNS1_6detail11MessageTypeE4ENS0_4cmif6detail14CoreMethodInfoINSt3__15tupleIJNS7_18OutRawArgumentInfoILm8ELm8ELl0EEENS7_17InRawArgumentInfoILm8ELm8ELl0EEENSD_ILm8ELm8ELl8EEENSD_ILm8ELm8ELl16EEENSD_ILm8ELm8ELl24EEENSD_ILm8ELm8ELl32EEEEEELm40ELm8ELb1EEESJ_E7ProcessEPNS2_26Hipc2ClientProxyBaseObjectENS6_6client24OutRawClientArgumentTypeILm8ELm8EEENSO_23InRawClientArgumentTypeILm8ELm8EvEESS_SS_SS_SS_j
 00000000:0000007100090FF8       _ZN2nn2sf4hipc6client24Hipc2ClientCoreProcessorILNS1_6detail11MessageTypeE4ENS0_4cmif6detail14CoreMethodInfoINSt3__15tupleIJNS7_17InRawArgumentInfoILm8ELm8ELl0EEENSB_ILm8ELm8ELl8EEEEEELm16ELm0ELb1EEESE_E7ProcessEPNS2_26Hipc2ClientProxyBaseObjectENS6_6client23InRawClientArgumentTypeILm8ELm8EvEESL_j
 00000000:00000071000910F8       _ZN2nn2sf4hipc6client24Hipc2ClientCoreProcessorILNS1_6detail11MessageTypeE4ENS0_4cmif6detail14CoreMethodInfoINSt3__15tupleIJNS7_17InRawArgumentInfoILm8ELm8ELl0EEENSB_ILm8ELm8ELl8EEENSB_ILm8ELm8ELl16EEEEEELm24ELm0ELb1EEESF_E7ProcessEPNS2_26Hipc2ClientProxyBaseObjectENS6_6client23InRawClientArgumentTypeILm8ELm8EvEESM_SM_j
 00000000:0000007100091200       _ZN2nn2sf4hipc6client24Hipc2ClientCoreProcessorILNS1_6detail11MessageTypeE4ENS0_4cmif6detail14CoreMethodInfoINSt3__15tupleIJNS7_17InRawArgumentInfoILm8ELm8ELl0EEENS7_20InHandleArgumentInfoILi0ELi1EEEEEELm8ELm0ELb1EEESF_E7ProcessEPNS2_26Hipc2ClientProxyBaseObjectENS6_6client23InRawClientArgumentTypeILm8ELm8EvEENSK_26InHandleClientArgumentTypeEj
 00000000:0000007100091350       _ZN2nn2ro6detail16GetExceptionInfoEPNS1_13ExceptionInfoEm
 00000000:000000710009155C       _ZN2nn2ro6detail4BindEPNS1_8RoModuleEj
 00000000:0000007100091658       _ZN2nn2ro6detail8RoModule8BindLazyEj
 00000000:0000007100091754       _ZN2nn2ro6detail18LookupGlobalManualEPKc
 00000000:0000007100091954       _ZNK2nn2ro6detail8RoModule6LookupEPKc
 00000000:0000007100091A4C       _ZN2nn2ro6detail8RoModule10InitializeEmPKNS1_3Elf5Elf643DynE
 00000000:0000007100091AE8       def_7100091AD4
 00000000:0000007100091C40       _ZN2nn2ro6detail8RoModule8CallInitEv
 00000000:0000007100091C50       _ZN2nn2ro6detail8RoModule8CallFiniEv
 00000000:0000007100091C60       _ZNK2nn2ro6detail8RoModule10ResolveSymEPmNS1_3Elf5Elf643SymE
 00000000:0000007100091DDC       _ZN2nn2ro6detail8RoModule10RelocationEb
 00000000:0000007100092288       _ZN2nn2ro6detail8RoModule13BindVariablesEPKS2_
 00000000:00000071000925E4       _ZN2nn2ro6detail8RoModule15RestoreFunctionEm
 00000000:00000071000926B4       _ZN2nn2ro6detail8RoModule15RestoreVariableEPKcmm
 00000000:0000007100092904       _ZN2nn2ro6detail8RoModule15RevertReferenceEPS2_m
 00000000:0000007100092A5C       _ZN2nn2ro9BindEntryEv
 00000000:0000007100092AD8       _ZN2nn2sf26GetNewDeleteMemoryResourceEv
 00000000:0000007100092B1C       _ZN2nn2sf30GetGlobalDefaultMemoryResourceEv
 00000000:0000007100092B2C       _ZN2nn2sf30SetGlobalDefaultMemoryResourceEPNS_14MemoryResourceE
 00000000:0000007100092B44       _ZN2nn2sf24GetCurrentMemoryResourceEv
 00000000:0000007100092BDC       _ZN2nn2sf24SetCurrentMemoryResourceEPNS_14MemoryResourceE
 00000000:0000007100092C8C       _ZN2nn2sf33GetCurrentEffectiveMemoryResourceEv
 00000000:0000007100092CE8       _ZN2nn2sf33ScopedCurrentMemoryResourceSetterC1EPNS_14MemoryResourceE
 00000000:0000007100092D20       _ZN2nn2sf33ScopedCurrentMemoryResourceSetterD2Ev
 00000000:0000007100092D34       _ZN2nn2sf6detail19DefaultAllocateImplEmmm
 00000000:0000007100092DB4       _ZN2nn2sf6detail21DefaultDeallocateImplEPvmmm
 00000000:0000007100092DF8       _ZN2nn14MemoryResourceD2Ev
 00000000:0000007100092DFC       j__ZdlPv_0
 00000000:0000007100092E34       _ZN2nn2sf4cmif6server23CmifServerDomainManager14EntryAllocatorC1EPNSt3__115aligned_storageILm48ELm8EE4typeEi
 00000000:0000007100092EC8       _ZN2nn2sf4cmif6server23CmifServerDomainManager14EntryAllocatorD2Ev
 00000000:0000007100092F30       _ZN2nn2sf4cmif6server23CmifServerDomainManager6DomainC2EPS3_
 00000000:0000007100092F5C       _ZN2nn2sf4cmif6server23CmifServerDomainManager6DomainD2Ev
 00000000:0000007100093030       _ZN2nn2sf4cmif6server23CmifServerDomainManager14EntryAllocator15DeallocateEntryEPNS3_5EntryE
 00000000:0000007100093074       _ZN2nn2sf4cmif6server23CmifServerDomainManager6Domain11DisposeImplEv
 00000000:00000071000930A8       _ZN2nn2sf4cmif6server23CmifServerDomainManager6Domain12ReserveEntryEPNS1_18CmifDomainObjectIdEi
 00000000:0000007100093160       _ZN2nn2sf4cmif6server23CmifServerDomainManager14EntryAllocator13AllocateEntryEv
 00000000:00000071000931AC       _ZThn8_N2nn2sf4cmif6server23CmifServerDomainManager6Domain12ReserveEntryEPNS1_18CmifDomainObjectIdEi
 00000000:0000007100093264       _ZN2nn2sf4cmif6server23CmifServerDomainManager6Domain14UnReserveEntryEPKNS1_18CmifDomainObjectIdEi
 00000000:0000007100093304       _ZThn8_N2nn2sf4cmif6server23CmifServerDomainManager6Domain14UnReserveEntryEPKNS1_18CmifDomainObjectIdEi
 00000000:00000071000933A4       _ZN2nn2sf4cmif6server23CmifServerDomainManager6Domain14RegisterObjectENS1_18CmifDomainObjectIdEONS2_20CmifServerObjectInfoE
 00000000:0000007100093458       _ZThn8_N2nn2sf4cmif6server23CmifServerDomainManager6Domain14RegisterObjectENS1_18CmifDomainObjectIdEONS2_20CmifServerObjectInfoE
 00000000:000000710009350C       _ZN2nn2sf4cmif6server23CmifServerDomainManager6Domain16UnregisterObjectENS1_18CmifDomainObjectIdE
 00000000:0000007100093648       _ZThn8_N2nn2sf4cmif6server23CmifServerDomainManager6Domain16UnregisterObjectENS1_18CmifDomainObjectIdE
 00000000:0000007100093654       _ZN2nn2sf4cmif6server23CmifServerDomainManager6Domain9GetObjectENS1_18CmifDomainObjectIdE
 00000000:0000007100093738       _ZThn8_N2nn2sf4cmif6server23CmifServerDomainManager6Domain9GetObjectENS1_18CmifDomainObjectIdE
 00000000:000000710009381C       _ZN2nn2sf4cmif6server23CmifServerDomainManagerC2EPNSt3__115aligned_storageILm48ELm8EE4typeEi
 00000000:00000071000938D0       _ZN2nn2sf4cmif6server23CmifServerDomainManager12CreateDomainEv
 00000000:0000007100093924       _ZN2nn2sf4cmif6server23CmifServerDomainManager6Domain12AddReferenceEv
 00000000:000000710009392C       _ZN2nn2sf4cmif6server23CmifServerDomainManager6Domain7ReleaseEv
 00000000:000000710009397C       _ZN2nn2sf14IServiceObject12GetProxyInfoEv
 00000000:0000007100093984       _ZN2nn2sf4cmif6server23CmifServerDomainManager6Domain9GetDomainEv
 00000000:000000710009398C       _ZN2nn2sf4hipc6client24HipcClientSessionManager19ConvertToDomainImplEPNS0_4cmif18CmifDomainObjectIdENS_3svc6HandleE
 00000000:00000071000939E8       _ZN2nn2sf4hipc6client24HipcClientSessionManager16CreateNewSessionEPNS_3svc6HandleE
 00000000:0000007100093A48       _ZN2nn2sf4hipc6client22QueryPointerBufferSizeEPtNS_3svc6HandleE
 00000000:0000007100093A9C       _ZN2nn2sf4hipc6client22ConvertSessionToDomainEPNS0_4cmif18CmifDomainObjectIdENS_3svc6HandleE
 00000000:0000007100093AF0       _ZN2nn2sf4hipc6client16DuplicateSessionEPNS_3svc6HandleES4_
 00000000:0000007100093BB8       _ZN2nn2sf4hipc6client18DuplicateSessionExEPNS_3svc6HandleES4_j
 00000000:0000007100093C80       nullsub_1
 00000000:0000007100093C84       nullsub_2
 00000000:0000007100094300       _ZNK2nn2sf4hipc6client22Hipc2ClientMessageBase19GetOutNativeHandlesEPNS0_12NativeHandleE
 00000000:00000071000943F4       _ZN2nn2sf4hipc6detail25HipcMessageBufferAccessor6GetTagEPvm
 00000000:0000007100094424       _ZN2nn2sf4hipc6detail25HipcMessageBufferAccessor15SetHeadPointersERKNS2_21HipcMessageHeaderInfoE
 00000000:000000710009457C       _ZN2nn2sf4hipc6detail25HipcMessageBufferAccessor11SetupHeaderEPvmRKNS2_21HipcMessageHeaderInfoE
 00000000:0000007100094730       def_71000945BC
 00000000:000000710009475C       _ZN2nn2sf4hipc6detail25HipcMessageBufferAccessor11ParseHeaderEPNS2_21HipcMessageHeaderInfoEPvm
 00000000:0000007100094838       _ZN2nn2sf4hipc6detail25HipcMessageBufferAccessor6SetTagEt
 00000000:0000007100094844       _ZNK2nn2sf4hipc6detail25HipcMessageBufferAccessor6GetTagEv
 00000000:0000007100094850       _ZN2nn2sf4hipc6detail25HipcMessageBufferAccessor12SetProcessIdEm
 00000000:000000710009485C       _ZNK2nn2sf4hipc6detail25HipcMessageBufferAccessor12GetProcessIdEv
 00000000:0000007100094868       _ZN2nn2sf4hipc6detail25HipcMessageBufferAccessor13SetCopyHandleEij
 00000000:0000007100094874       _ZNK2nn2sf4hipc6detail25HipcMessageBufferAccessor13GetCopyHandleEi
 00000000:0000007100094880       _ZN2nn2sf4hipc6detail25HipcMessageBufferAccessor13SetMoveHandleEij
 00000000:000000710009488C       _ZNK2nn2sf4hipc6detail25HipcMessageBufferAccessor13GetMoveHandleEi
 00000000:0000007100094898       _ZN2nn2sf4hipc6detail25HipcMessageBufferAccessor10SetPointerEimmi
 00000000:00000071000948D0       _ZNK2nn2sf4hipc6detail25HipcMessageBufferAccessor10GetPointerEi
 00000000:00000071000948F8       _ZNK2nn2sf4hipc6detail25HipcMessageBufferAccessor22GetPointerReceiveIndexEi
 00000000:000000710009490C       _ZN2nn2sf4hipc6detail25HipcMessageBufferAccessor7SetSendEimmj
 00000000:0000007100094960       _ZNK2nn2sf4hipc6detail25HipcMessageBufferAccessor7GetSendEi
 00000000:000000710009499C       _ZN2nn2sf4hipc6detail25HipcMessageBufferAccessor10SetReceiveEimmj
 00000000:00000071000949F0       _ZNK2nn2sf4hipc6detail25HipcMessageBufferAccessor10GetReceiveEi
 00000000:0000007100094A2C       _ZN2nn2sf4hipc6detail25HipcMessageBufferAccessor11SetExchangeEimmj
 00000000:0000007100094A80       _ZNK2nn2sf4hipc6detail25HipcMessageBufferAccessor11GetExchangeEi
 00000000:0000007100094ABC       _ZNK2nn2sf4hipc6detail25HipcMessageBufferAccessor13GetRawPointerEv
 00000000:0000007100094AC4       _ZN2nn2sf4hipc6detail25HipcMessageBufferAccessor14SetReceiveListEimm
 00000000:0000007100094AE0       _ZNK2nn2sf4hipc6detail25HipcMessageBufferAccessor14GetReceiveListEi
 00000000:0000007100094B00       _ZN2nn2sf4hipc6server6detail29HipcAllInOneServerManagerBaseC2EPNSt3__115aligned_storageILm48ELm8EE4typeEi
 00000000:0000007100094BF0       _ZN2nn2sf4hipc6server6detail29HipcAllInOneServerManagerBaseD2Ev
 00000000:0000007100094CF4       _ZN2nn2sf4hipc6server6detail29HipcAllInOneServerManagerBase16RegisterPortImplEPNS4_15PortForAllInOneENS_3svc6HandleE
 00000000:0000007100094D5C       _ZN2nn2sf4hipc6server6detail29HipcAllInOneServerManagerBase14InitializePortEiNS_3svc6HandleE
 00000000:0000007100094D98       _ZN2nn2sf4hipc6server6detail29HipcAllInOneServerManagerBase18InitializePortImplEiONS0_4cmif6server20CmifServerObjectInfoENS_3svc6HandleE
 00000000:0000007100094E7C       _ZN2nn2sf4hipc6server6detail29HipcAllInOneServerManagerBase14InitializePortEiiPKc
 00000000:0000007100094ED4       _ZN2nn2sf4hipc6server6detail29HipcAllInOneServerManagerBase18InitializePortImplEiONS0_4cmif6server20CmifServerObjectInfoEiPKc
 00000000:0000007100095000       _ZN2nn2sf4hipc6server6detail29HipcAllInOneServerManagerBase5StartEv
 00000000:0000007100095008       _ZN2nn2sf4hipc6server6detail29HipcAllInOneServerManagerBase11RequestStopEv
 00000000:0000007100095010       _ZN2nn2sf4hipc6server6detail29HipcAllInOneServerManagerBase12WaitSignaledEv
 00000000:00000071000950F4       _ZN2nn2sf4hipc6server6detail29HipcAllInOneServerManagerBase16ReceiveAsSessionEPNS_2os19MultiWaitHolderTypeE
 00000000:0000007100095184       _ZN2nn2sf4hipc6server6detail29HipcAllInOneServerManagerBase16ReceiveAsSessionEPNS_2os19MultiWaitHolderTypeEPvm
 00000000:0000007100095214       _ZN2nn2sf4hipc6server6detail29HipcAllInOneServerManagerBase16ProcessAsSessionEPNS_2os19MultiWaitHolderTypeE
 00000000:00000071000952C0       _ZN2nn2sf4hipc6server6detail29HipcAllInOneServerManagerBase16ProcessAsSessionEPNS_2os19MultiWaitHolderTypeEPvm
 00000000:000000710009536C       _ZN2nn2sf4hipc6server6detail29HipcAllInOneServerManagerBase20ProcessInvokeRequestEPNS_2os19MultiWaitHolderTypeE
 00000000:0000007100095478       _ZN2nn2sf4hipc6server6detail29HipcAllInOneServerManagerBase29ProcessInvokeRequestWithDeferEPNS_2os19MultiWaitHolderTypeE
 00000000:00000071000955EC       _ZN2nn2sf4hipc6server6detail29HipcAllInOneServerManagerBase13ProcessAsPortEPNS_2os19MultiWaitHolderTypeE
 00000000:000000710009574C       _ZN2nn2sf4hipc6server6detail29HipcAllInOneServerManagerBase27RegisterServerSessionToWaitEPNS2_17HipcServerSessionE
 00000000:00000071000957AC       _ZN2nn2sf4hipc6server6detail29HipcAllInOneServerManagerBase11ProcessAutoEPNS_2os19MultiWaitHolderTypeE
 00000000:000000710009581C       _ZN2nn2sf4hipc6server6detail29HipcAllInOneServerManagerBase22WaitAndProcessAutoImplEv
 00000000:00000071000958CC       _ZN2nn2sf4hipc6server6detail29HipcAllInOneServerManagerBase18WaitAndProcessAutoEv
 00000000:00000071000958D0       _ZN2nn2sf4hipc6server6detail29HipcAllInOneServerManagerBase8LoopAutoEv
 00000000:00000071000958F8       _ZN2nn2sf4hipc6server6detail29HipcAllInOneServerManagerBase17AddUserWaitHolderEPNS_2os19MultiWaitHolderTypeE
 00000000:000000710009594C       _ZN2nn2sf4hipc6server24HipcServerSessionManager20DestroyServerSessionEPNS2_21HipcServerSessionBaseE
 00000000:00000071000959B0       _ZN2nn2sf4hipc6server24HipcServerSessionManager31RegisterServerSessionToWaitBaseEPNS2_21HipcServerSessionBaseE
 00000000:00000071000959BC       _ZN2nn2sf4hipc6server24HipcServerSessionManager19CreateServerSessionEONS0_4cmif6server20CmifServerObjectInfoE
 00000000:0000007100095A38       _ZN2nn2sf4hipc6server24HipcServerSessionManager29AllocatePointerTransferBufferEPmPNS2_17HipcServerSessionE
 00000000:0000007100095A44       _ZN2nn2sf4hipc6server24HipcServerSessionManager31DeallocatePointerTransferBufferEPNS2_17HipcServerSessionEPvm
 00000000:0000007100095A48       _ZN2nn2sf4hipc6server24HipcServerSessionManager35GetHipcServerSessionManagerInternalEj
 00000000:0000007100095A4C       _ZNK2nn2sf4cmif6server20CmifServerObjectInfo19FunctionForBoolTypeEv
 00000000:0000007100095A50       _ZNK2nn2sf13SharedPointerINS0_14IServiceObjectEE19FunctionForBoolTypeEv
 00000000:0000007100095A54       _ZN2nn2sf4hipc6server21HipcServerSessionBase5ReplyEPvm
 00000000:0000007100095A70       _ZN2nn2sf4hipc6server28HipcServerSessionManagerBase12RegisterBaseEPNS2_21HipcServerSessionBaseENS_3svc6HandleE
 00000000:0000007100095AC8       _ZN2nn2sf4hipc6server28HipcServerSessionManagerBase10AcceptBaseEPNS2_21HipcServerSessionBaseENS_3svc6HandleE
 00000000:0000007100095B3C       _ZN2nn2sf4hipc6server28HipcServerSessionManagerBase18ReceiveRequestBaseEPNS2_21HipcServerSessionBaseEPvmS6_m
 00000000:0000007100095C9C       _ZN2nn2sf4hipc6server28HipcServerSessionManagerBase14ProcessRequestEPNS2_21HipcServerSessionBaseEPvm
 00000000:0000007100095E38       _ZN2nn2sf4hipc6server28HipcServerSessionManagerBase16CloseSessionBaseEPNS2_21HipcServerSessionBaseE
 00000000:0000007100095E84       _ZN2nn2sf4hipc6server24HipcServerSessionManager23ProcessInvokeMethodImplEONS0_4cmif6server20CmifServerObjectInfoEPNS2_17HipcServerSessionEPKNS1_6detail25HipcMessageBufferAccessorEPKNSA_21HipcMessageHeaderInfoEPvm
 00000000:0000007100095F24       _ZN2nn2sf4hipc6server24HipcServerSessionManager20ProcessManagerInvokeEPNS2_17HipcServerSessionEPKNS1_6detail25HipcMessageBufferAccessorEPKNS6_21HipcMessageHeaderInfoEPvm
 00000000:0000007100095F2C       _ZN2nn2sf4hipc6server24HipcServerSessionManager24Process2InvokeMethodImplEONS0_4cmif6server20CmifServerObjectInfoEPNS2_17HipcServerSessionEPvmSA_m
 00000000:000000710009606C       _ZN2nn2sf4hipc6server24HipcServerSessionManager21Process2ManagerInvokeEPNS2_17HipcServerSessionEPvmS6_m
 00000000:0000007100096074       _ZN2nn2sf4hipc6server24HipcServerSessionManager14ProcessMessageEPNS2_21HipcServerSessionBaseEPKNS1_6detail25HipcMessageBufferAccessorEPKNS6_21HipcMessageHeaderInfoEPvm
 00000000:00000071000961C0       _ZN2nn2sf4hipc6server24HipcServerSessionManager15ProcessMessage2EPNS2_21HipcServerSessionBaseEPvmS6_m
 00000000:000000710009632C       _ZN2nn2sf4hipc6server17HipcServerMessage17PrepareForProcessERKNS0_4cmif19CmifMessageMetaInfoE
 00000000:0000007100096508       _ZNK2nn2sf4hipc6server17HipcServerMessage24OverwriteClientProcessIdEPm
 00000000:0000007100096534       _ZNK2nn2sf4hipc6server17HipcServerMessage10GetBuffersEPNS0_6detail14PointerAndSizeE
 00000000:0000007100096684       _ZNK2nn2sf4hipc6server17HipcServerMessage18GetInNativeHandlesEPNS0_12NativeHandleE
 00000000:0000007100096774       _ZNK2nn2sf4hipc6server17HipcServerMessage12GetInObjectsEPNS0_4cmif6server20CmifServerObjectInfoE
 00000000:000000710009677C       _ZN2nn2sf4hipc6server17HipcServerMessage22BeginPreparingForReplyEPNS0_6detail14PointerAndSizeE
 00000000:000000710009687C       _ZN2nn2sf4hipc6server17HipcServerMessage10SetBuffersEPNS0_6detail14PointerAndSizeE
 00000000:0000007100096910       _ZN2nn2sf4hipc6server17HipcServerMessage13SetOutObjectsEPNS0_4cmif6server20CmifServerObjectInfoE
 00000000:000000710009696C       _ZN2nn2sf4hipc6server17HipcServerMessage19SetOutNativeHandlesEPNS0_12NativeHandleE
 00000000:0000007100096A3C       _ZN2nn2sf4hipc6server17HipcServerMessage27BeginPreparingForErrorReplyEPNS0_6detail14PointerAndSizeEm
 00000000:0000007100096AC8       _ZN2nn2sf4cmif6server17CmifServerMessage20EndPreparingForReplyEv
 00000000:0000007100096ACC       _ZN2nn2sf4hipc6server17HipcServerMessage12SetOutObjectEiONS0_4cmif6server20CmifServerObjectInfoE
 00000000:0000007100096BB0       _ZN2nn2sf4hipc6server18Hipc2ServerMessage17PrepareForProcessERKNS0_4cmif19CmifMessageMetaInfoE
 00000000:0000007100096EC4       _ZNK2nn2sf4hipc6server18Hipc2ServerMessage24OverwriteClientProcessIdEPm
 00000000:0000007100096EE4       _ZNK2nn2sf4hipc6server18Hipc2ServerMessage10GetBuffersEPNS0_6detail14PointerAndSizeE
 00000000:0000007100097100       _ZNK2nn2sf4hipc6server18Hipc2ServerMessage18GetInNativeHandlesEPNS0_12NativeHandleE
 00000000:00000071000971F8       _ZNK2nn2sf4hipc6server18Hipc2ServerMessage12GetInObjectsEPNS0_4cmif6server20CmifServerObjectInfoE
 00000000:0000007100097200       _ZN2nn2sf4hipc6server18Hipc2ServerMessage22BeginPreparingForReplyEPNS0_6detail14PointerAndSizeE
 00000000:0000007100097324       _ZN2nn2sf4hipc6server18Hipc2ServerMessage10SetBuffersEPNS0_6detail14PointerAndSizeE
 00000000:0000007100097430       _ZN2nn2sf4hipc6server18Hipc2ServerMessage13SetOutObjectsEPNS0_4cmif6server20CmifServerObjectInfoE
 00000000:000000710009748C       _ZN2nn2sf4hipc6server18Hipc2ServerMessage19SetOutNativeHandlesEPNS0_12NativeHandleE
 00000000:0000007100097554       _ZN2nn2sf4hipc6server18Hipc2ServerMessage27BeginPreparingForErrorReplyEPNS0_6detail14PointerAndSizeEm
 00000000:0000007100097614       _ZN2nn2sf4hipc6detail23MakeHipcMessageDataInfoERKNS2_21HipcMessageHeaderInfoE
 00000000:00000071000977C0       _ZN2nn2sf4hipc6server18Hipc2ServerMessage12SetOutObjectEiONS0_4cmif6server20CmifServerObjectInfoE
 00000000:0000007100097898       _ZN2nn2sf4hipc6server34HipcServerSessionManagerWithDomain20ProcessManagerInvokeEPNS2_17HipcServerSessionEPKNS1_6detail25HipcMessageBufferAccessorEPKNS6_21HipcMessageHeaderInfoEPvm
 00000000:000000710009792C       _ZN2nn2sf4hipc6server34HipcServerSessionManagerWithDomain21Process2ManagerInvokeEPNS2_17HipcServerSessionEPvmS6_m
 00000000:00000071000979C0       _ZN2nn2sf22UnmanagedServiceObjectINS0_4hipc6detail12IHipcManagerENS2_6server34HipcServerSessionManagerWithDomain15HipcManagerImplEE12AddReferenceEv
 00000000:00000071000979C4       _ZN2nn2sf22UnmanagedServiceObjectINS0_4hipc6detail12IHipcManagerENS2_6server34HipcServerSessionManagerWithDomain15HipcManagerImplEE7ReleaseEv
 00000000:00000071000979C8       _ZN2nn2sf4impl6detail17ImplTemplateBaseTINS0_4hipc6detail12IHipcManagerES6_NS0_6detail27UnmanagedEmplacedImplHolderINS4_6server34HipcServerSessionManagerWithDomain15HipcManagerImplEEESC_S6_E40_nn_sf_sync_ConvertCurrentObjectToDomainENS0_3OutINS0_4cmif18CmifDomainObjectIdEvEE
 00000000:0000007100097AA0       _ZN2nn2sf4impl6detail17ImplTemplateBaseTINS0_4hipc6detail12IHipcManagerES6_NS0_6detail27UnmanagedEmplacedImplHolderINS4_6server34HipcServerSessionManagerWithDomain15HipcManagerImplEEESC_S6_E33_nn_sf_sync_CopyFromCurrentDomainENS0_3OutINS0_12NativeHandleEvEENS0_4cmif18CmifDomainObjectIdE
 00000000:0000007100097AC0       _ZN2nn2sf4impl6detail17ImplTemplateBaseTINS0_4hipc6detail12IHipcManagerES6_NS0_6detail27UnmanagedEmplacedImplHolderINS4_6server34HipcServerSessionManagerWithDomain15HipcManagerImplEEESC_S6_E30_nn_sf_sync_CloneCurrentObjectENS0_3OutINS0_12NativeHandleEvEE
 00000000:0000007100097ADC       _ZN2nn2sf4impl6detail17ImplTemplateBaseTINS0_4hipc6detail12IHipcManagerES6_NS0_6detail27UnmanagedEmplacedImplHolderINS4_6server34HipcServerSessionManagerWithDomain15HipcManagerImplEEESC_S6_E34_nn_sf_sync_QueryPointerBufferSizeENS0_3OutItvEE
 00000000:0000007100097AF0       _ZN2nn2sf4impl6detail17ImplTemplateBaseTINS0_4hipc6detail12IHipcManagerES6_NS0_6detail27UnmanagedEmplacedImplHolderINS4_6server34HipcServerSessionManagerWithDomain15HipcManagerImplEEESC_S6_E32_nn_sf_sync_CloneCurrentObjectExENS0_3OutINS0_12NativeHandleEvEEj
 00000000:0000007100097B44       _ZN2nn2sf4cmif6server22CmifDomainServerObject14ProcessMessageEPNS0_14IServiceObjectEPNS2_17CmifServerMessageERKNS0_6detail14PointerAndSizeE
 00000000:0000007100097B84       _ZN2nn2sf4cmif6server22CmifDomainServerObject18ProcessMessageImplEPNS2_17CmifServerMessageEPNS2_16CmifServerDomainENS0_6detail14PointerAndSizeE
 00000000:0000007100097D18       _ZN2nn2sf4cmif6server22CmifDomainServerObject23CmifDomainServerMessage17PrepareForProcessERKNS1_19CmifMessageMetaInfoE
 00000000:0000007100097E0C       _ZNK2nn2sf4cmif6server22CmifDomainServerObject23CmifDomainServerMessage24OverwriteClientProcessIdEPm
 00000000:0000007100097E30       _ZNK2nn2sf4cmif6server22CmifDomainServerObject23CmifDomainServerMessage10GetBuffersEPNS0_6detail14PointerAndSizeE
 00000000:0000007100097E54       _ZNK2nn2sf4cmif6server22CmifDomainServerObject23CmifDomainServerMessage18GetInNativeHandlesEPNS0_12NativeHandleE
 00000000:0000007100097E78       _ZNK2nn2sf4cmif6server22CmifDomainServerObject23CmifDomainServerMessage12GetInObjectsEPNS2_20CmifServerObjectInfoE
 00000000:0000007100097F1C       _ZN2nn2sf4cmif6server22CmifDomainServerObject23CmifDomainServerMessage22BeginPreparingForReplyEPNS0_6detail14PointerAndSizeE
 00000000:0000007100097F88       _ZN2nn2sf4cmif6server22CmifDomainServerObject23CmifDomainServerMessage10SetBuffersEPNS0_6detail14PointerAndSizeE
 00000000:0000007100097F98       _ZN2nn2sf4cmif6server22CmifDomainServerObject23CmifDomainServerMessage13SetOutObjectsEPNS2_20CmifServerObjectInfoE
 00000000:0000007100098058       _ZN2nn2sf4cmif6server22CmifDomainServerObject23CmifDomainServerMessage19SetOutNativeHandlesEPNS0_12NativeHandleE
 00000000:0000007100098068       _ZN2nn2sf4cmif6server22CmifDomainServerObject23CmifDomainServerMessage27BeginPreparingForErrorReplyEPNS0_6detail14PointerAndSizeEm
 00000000:00000071000980DC       _ZN2nn2sf4cmif6server22CmifDomainServerObject23CmifDomainServerMessage20EndPreparingForReplyEv
 00000000:00000071000980EC       _ZN2nn2sf4hipc6server34HipcServerSessionManagerWithDomain15HipcManagerImpl21CopyFromCurrentDomainENS0_3OutINS0_12NativeHandleEvEENS0_4cmif18CmifDomainObjectIdE
 00000000:0000007100098254       _ZN2nn2sf4hipc6server34HipcServerSessionManagerWithDomain15HipcManagerImpl22CloneCurrentObjectImplENS0_3OutINS0_12NativeHandleEvEEPNS2_24HipcServerSessionManagerE
 00000000:00000071000983A4       _ZN2nn2sf4cmif6server6detail38CmifProcessFunctionTableGetterImplBaseINS0_4hipc6detail12IHipcManagerEE20ProcessServerMessageEPNS0_14IServiceObjectEPNS2_17CmifServerMessageERKNS0_6detail14PointerAndSizeE
 00000000:00000071000984A8       def_7100098430
 00000000:0000007100098538       _ZN2nn2sf4cmif6server6detail34CmifProcessFunctionTableGetterImplINS0_4hipc6detail12IHipcManagerEE36Process_ConvertCurrentObjectToDomainEPPNS1_13CmifOutHeaderEPS7_PNS2_17CmifServerMessageEONS0_6detail14PointerAndSizeE
 00000000:0000007100098684       _ZN2nn2sf4cmif6server6detail34CmifProcessFunctionTableGetterImplINS0_4hipc6detail12IHipcManagerEE29Process_CopyFromCurrentDomainEPPNS1_13CmifOutHeaderEPS7_PNS2_17CmifServerMessageEONS0_6detail14PointerAndSizeE
 00000000:00000071000987F0       _ZN2nn2sf4cmif6server6detail34CmifProcessFunctionTableGetterImplINS0_4hipc6detail12IHipcManagerEE26Process_CloneCurrentObjectEPPNS1_13CmifOutHeaderEPS7_PNS2_17CmifServerMessageEONS0_6detail14PointerAndSizeE
 00000000:0000007100098944       _ZN2nn2sf4cmif6server6detail34CmifProcessFunctionTableGetterImplINS0_4hipc6detail12IHipcManagerEE30Process_QueryPointerBufferSizeEPPNS1_13CmifOutHeaderEPS7_PNS2_17CmifServerMessageEONS0_6detail14PointerAndSizeE
 00000000:0000007100098A90       _ZN2nn2sf4cmif6server6detail34CmifProcessFunctionTableGetterImplINS0_4hipc6detail12IHipcManagerEE28Process_CloneCurrentObjectExEPPNS1_13CmifOutHeaderEPS7_PNS2_17CmifServerMessageEONS0_6detail14PointerAndSizeE
 00000000:0000007100098BFC       _ZN2nn2sf4impl6detail21ServiceObjectImplBase12AddReferenceEv
 00000000:0000007100098C3C       _ZN2nn2sf4impl6detail21ServiceObjectImplBase7ReleaseEv
 00000000:0000007100098C88       _ZN2nn2sf4impl6detail22ServiceObjectImplBase216AddReferenceImplEv
 00000000:0000007100098CC4       _ZN2nn2sf4impl6detail22ServiceObjectImplBase211ReleaseImplEv
 00000000:0000007100098D04       _ZN2nn2sf4hipc21CloseClientPortHandleENS_3svc6HandleE
 00000000:0000007100098D4C       _ZN2nn2sf4hipc13ConnectToPortEPNS_3svc6HandleES3_
 00000000:0000007100098D68       _ZN2nn2sf4hipc24CloseClientSessionHandleENS_3svc6HandleE
 00000000:0000007100098DB0       _ZN2nn2sf4hipc21GetMessageBufferOnTlsEv
 00000000:0000007100098DB8       _ZN2nn2sf4hipc15SendSyncRequestENS_3svc6HandleEPvm
 00000000:0000007100098E1C       _ZN2nn2sf4hipc16SendAsyncRequestEPNS_3svc6HandleES3_Pvm
 00000000:0000007100098E68       _ZN2nn2sf4hipc23WaitClientRequestHandleENS_3svc6HandleEPvm
 00000000:0000007100098EE0       _ZN2nn2sf4hipc24CloseClientRequestHandleENS_3svc6HandleE
 00000000:0000007100098F28       _ZN2nn2sf4hipc10CreatePortEPNS_3svc6HandleES4_i
 00000000:0000007100098F48       _ZN2nn2sf4hipc21CloseServerPortHandleENS_3svc6HandleE
 00000000:0000007100098F90       _ZN2nn2sf4hipc25AttachWaitHolderForAcceptEPNS_2os19MultiWaitHolderTypeENS_3svc6HandleE
 00000000:0000007100098F94       _ZN2nn2sf4hipc13AcceptSessionEPNS_3svc6HandleES3_
 00000000:0000007100098FB0       _ZN2nn2sf4hipc13CreateSessionEPNS_3svc6HandleES4_
 00000000:0000007100098FF8       _ZN2nn2sf4hipc24CloseServerSessionHandleENS_3svc6HandleE
 00000000:0000007100099040       _ZN2nn2sf4hipc26AttachWaitHolderForReceiveEPNS_2os19MultiWaitHolderTypeENS_3svc6HandleE
 00000000:0000007100099044       _ZN2nn2sf4hipc7ReceiveEPbNS_3svc6HandleEPvm
 00000000:00000071000990EC       _ZN2nn2sf4hipc7ReceiveEPNS1_13ReceiveResultENS_3svc6HandleEPvm
 00000000:00000071000991B8       _ZN2nn2sf4hipc5ReplyENS_3svc6HandleEPvm
 00000000:0000007100099268       _ZN2nn2sf4hipc24AttachWaitHolderForReplyEPNS_2os19MultiWaitHolderTypeENS_3svc6HandleE
 00000000:000000710009926C       _ZN2nn2sf4hipc31InitializeHipcServiceResolutionEv
 00000000:00000071000992B0       _ZN2nn2sf4hipc29FinalizeHipcServiceResolutionEv
 00000000:00000071000992F4       _ZN2nn2sf4hipc19RegisterHipcServiceEPNS_3svc6HandleEiPKc
 00000000:0000007100099344       _ZN2nn2sf4hipc21UnregisterHipcServiceEPKc
 00000000:0000007100099398       _ZN2nn2sf4hipc23IsHipcServiceRegisteredEPKc
 00000000:00000071000993B8       _ZN2nn2sf4hipc20ConnectToHipcServiceEPNS_3svc6HandleEPKc
 00000000:00000071000993F4       _ZN2nn2sf4hipc23TryConnectToHipcServiceEPbPNS_3svc6HandleEPKc
 00000000:0000007100099414       _ZN2nn2sm10InitializeEv
 00000000:00000071000995E4       _ZN2nn2sm8FinalizeEv
 00000000:00000071000995EC       _ZN2nn2sm16GetServiceHandleEPNS_3svc6HandleEPKcm
 00000000:000000710009971C       _ZN2nn2sm15RegisterServiceEPNS_3svc6HandleEPKcmib
 00000000:0000007100099850       _ZN2nn2sm17UnregisterServiceEPKcm
 00000000:0000007100099B00       _ZN2nn2sf4hipc6client24Hipc2ClientCoreProcessorILNS1_6detail11MessageTypeE4ENS0_4cmif6detail14CoreMethodInfoINSt3__15tupleIJNS7_17InRawArgumentInfoILm8ELm8ELl0EEEEEELm8ELm0ELb1EEESD_E7ProcessEPNS2_26Hipc2ClientProxyBaseObjectENS6_6client23InRawClientArgumentTypeILm8ELm8EvEEj
 00000000:0000007100099BF4       _ZN2nn2sf4hipc6client24Hipc2ClientCoreProcessorILNS1_6detail11MessageTypeE4ENS0_4cmif6detail14CoreMethodInfoINSt3__15tupleIJNS7_21OutHandleArgumentInfoILi0ELi2EEENS7_17InRawArgumentInfoILm8ELm1ELl0EEEEEELm8ELm0ELb0EEESF_E7ProcessEPNS2_26Hipc2ClientProxyBaseObjectENS6_6client27OutHandleClientArgumentTypeENSK_23InRawClientArgumentTypeILm8ELm1EvEEj
 00000000:0000007100099D50       _ZN2nn2sf4hipc6client24Hipc2ClientCoreProcessorILNS1_6detail11MessageTypeE4ENS0_4cmif6detail14CoreMethodInfoINSt3__15tupleIJNS7_21OutHandleArgumentInfoILi0ELi2EEENS7_17InRawArgumentInfoILm8ELm1ELl0EEENSD_ILm4ELm4ELl12EEENSD_ILm1ELm1ELl8EEEEEELm16ELm0ELb0EEESH_E7ProcessEPNS2_26Hipc2ClientProxyBaseObjectENS6_6client27OutHandleClientArgumentTypeENSM_23InRawClientArgumentTypeILm8ELm1EvEENSO_ILm4ELm4EvEENSO_ILm1ELm1EvEEj
 00000000:0000007100099EC8       _ZN2nn2sf4hipc6client24Hipc2ClientCoreProcessorILNS1_6detail11MessageTypeE4ENS0_4cmif6detail14CoreMethodInfoINSt3__15tupleIJNS7_17InRawArgumentInfoILm8ELm1ELl0EEEEEELm8ELm0ELb0EEESD_E7ProcessEPNS2_26Hipc2ClientProxyBaseObjectENS6_6client23InRawClientArgumentTypeILm8ELm1EvEEj
 00000000:0000007100099FB0       _ZN2nn2sm20InitializeForManagerEv
 00000000:000000710009A0B0       _ZN2nn2sm18FinalizeForManagerEv
 00000000:000000710009A0D0       _ZN2nn2sm15RegisterProcessENS_2os9ProcessIdEPKvmS4_m
 00000000:000000710009A11C       _ZN2nn2sm17UnregisterProcessENS_2os9ProcessIdE
 00000000:000000710009A150       _ZN2nn2sf13SharedPointerINS_2sm6detail17IManagerInterfaceEED2Ev
 00000000:000000710009A2A0       _ZN2nn2sf4hipc6client24Hipc2ClientCoreProcessorILNS1_6detail11MessageTypeE4ENS0_4cmif6detail14CoreMethodInfoINSt3__15tupleIJNS7_17InRawArgumentInfoILm8ELm8ELl0EEENS7_18BufferArgumentInfoILi0ELi5ELm0EEENSD_ILi1ELi5ELm0EEEEEELm8ELm0ELb0EEESG_E7ProcessEPNS2_26Hipc2ClientProxyBaseObjectENS6_6client23InRawClientArgumentTypeILm8ELm8EvEENSL_24BufferClientArgumentTypeESO_j
 00000000:000000710009A418       _ZN2nn2sf4hipc6client24Hipc2ClientCoreProcessorILNS1_6detail11MessageTypeE4ENS0_4cmif6detail14CoreMethodInfoINSt3__15tupleIJNS7_17InRawArgumentInfoILm8ELm8ELl0EEEEEELm8ELm0ELb0EEESD_E7ProcessEPNS2_26Hipc2ClientProxyBaseObjectENS6_6client23InRawClientArgumentTypeILm8ELm8EvEEj
 00000000:000000710009A524       _ZN2nn6socket4RecvEiPvmi
 00000000:000000710009A528       _ZN2nn6socket8RecvFromEiPvmiP8sockaddrPj
 00000000:000000710009A52C       _ZN2nn6socket4SendEiPKvmi
 00000000:000000710009A530       _ZN2nn6socket6SendToEiPKvmiPK8sockaddrj
 00000000:000000710009A534       _ZN2nn6socket6AcceptEiP8sockaddrPj
 00000000:000000710009A538       _ZN2nn6socket4BindEiPK8sockaddrj
 00000000:000000710009A53C       _ZN2nn6socket7ConnectEiPK8sockaddrj
 00000000:000000710009A540       _ZN2nn6socket11GetPeerNameEiP8sockaddrPj
 00000000:000000710009A544       _ZN2nn6socket11GetSockNameEiP8sockaddrPj
 00000000:000000710009A548       _ZN2nn6socket10GetSockOptEiiiPvPj
 00000000:000000710009A54C       _ZN2nn6socket6ListenEii
 00000000:000000710009A550       _ZN2nn6socket10SetSockOptEiiiPKvj
 00000000:000000710009A554       _ZN2nn6socket10SockAtMarkEi
 00000000:000000710009A558       _ZN2nn6socket8ShutdownEii
 00000000:000000710009A55C       _ZN2nn6socket18ShutdownAllSocketsEb
 00000000:000000710009A564       _ZN2nn6socket6SocketEiii
 00000000:000000710009A568       _ZN2nn6socket12SocketExemptEiii
 00000000:000000710009A56C       _ZN2nn6socket5WriteEiPKvm
 00000000:000000710009A570       _ZN2nn6socket4ReadEiPvm
 00000000:000000710009A574       _ZN2nn6socket5CloseEi
 00000000:000000710009A578       _ZN2nn6socket6SelectEiP6fd_setS2_S2_P7timeval
 00000000:000000710009A57C       _ZN2nn6socket4PollEP6pollfdmi
 00000000:000000710009A580       _ZN2nn6socket5FcntlEiiz
 00000000:000000710009A61C       _ZN2nn6socket8InetPtonEiPKcPv
 00000000:000000710009A620       _ZN2nn6socket8InetNtopEiPKvPcj
 00000000:000000710009A624       _ZN2nn6socket8InetAtonEPKcP7in_addr
 00000000:000000710009A628       _ZN2nn6socket8InetNtoaE7in_addr
 00000000:000000710009A630       _ZN2nn6socket9InetHtonsEt
 00000000:000000710009A634       _ZN2nn6socket9InetHtonlEj
 00000000:000000710009A638       _ZN2nn6socket9InetNtohsEt
 00000000:000000710009A63C       _ZN2nn6socket9InetNtohlEj
 00000000:000000710009A640       _ZN2nn6socket12GetLastErrnoEv
 00000000:000000710009A644       _ZN2nn6socket12SetLastErrnoEi
 00000000:000000710009A648       _ZN2nn6socket7RecvMsgEiP6msghdri
 00000000:000000710009A64C       _ZN2nn6socket8RecvMMsgEiP7mmsghdrmiPNS_8TimeSpanE
 00000000:000000710009A650       _ZN2nn6socket7SendMsgEiPK6msghdri
 00000000:000000710009A654       _ZN2nn6socket8SendMMsgEiPK7mmsghdrmi
 00000000:000000710009A658       _ZN2nn6socket5IoctlEijPvm
 00000000:000000710009A65C       _ZN2nn6socket4OpenEPKci
 00000000:000000710009A660       _ZN2nn6socket10InitializeEPvmmi
 00000000:000000710009A678       _ZN2nn6socket10InitializeERKNS0_6ConfigE
 00000000:000000710009A690       _ZN2nn6socket8FinalizeEv
 00000000:000000710009A6A8       _ZN2nn6socket11GetAddrInfoEPKcS2_PK8addrinfoPPS3_
 00000000:000000710009A6AC       _ZN2nn6socket11GetAddrInfoEPKcS2_PK8addrinfoPPS3_i
 00000000:000000710009A6B0       _ZN2nn6socket28GetAddrInfoWithoutNsdResolveEPKcS2_PK8addrinfoPPS3_
 00000000:000000710009A6B4       _ZN2nn6socket28GetAddrInfoWithoutNsdResolveEPKcS2_PK8addrinfoPPS3_i
 00000000:000000710009A6B8       _ZN2nn6socket12FreeAddrInfoEP8addrinfo
 00000000:000000710009A6BC       _ZN2nn6socket11GetNameInfoEPK8sockaddrjPcjS4_ji
 00000000:000000710009A6C0       _ZN2nn6socket11GetNameInfoEPK8sockaddrjPcjS4_jii
 00000000:000000710009A6C4       _ZN2nn6socket13GetHostByNameEPKc
 00000000:000000710009A6C8       _ZN2nn6socket13GetHostByNameEPKci
 00000000:000000710009A6CC       _ZN2nn6socket30GetHostByNameWithoutNsdResolveEPKc
 00000000:000000710009A6D0       _ZN2nn6socket30GetHostByNameWithoutNsdResolveEPKci
 00000000:000000710009A6D4       _ZN2nn6socket13GetHostByAddrEPKvji
 00000000:000000710009A6D8       _ZN2nn6socket13GetHostByAddrEPKvjii
 00000000:000000710009A6DC       _ZN2nn6socket19RequestCancelHandleEv
 00000000:000000710009A6E0       _ZN2nn6socket6CancelEi
 00000000:000000710009A6E4       _ZN2nn6socket9GetHErrnoEv
 00000000:000000710009A6E8       _ZN2nn6socket9HStrErrorEi
 00000000:000000710009A6EC       _ZN2nn6socket11GAIStrErrorEi
 00000000:000000710009A6F0       _ZN2nn6socket6SysctlEPimPvPmS2_m
 00000000:000000710009A6F4       _ZN2nn6socket15DuplicateSocketEim
 00000000:000000710009A6F8       _ZN2nn6socket21GetResourceStatisticsEPNS0_18ResourceStatisticsEm
 00000000:000000710009A6FC       nnsocketRecv
 00000000:000000710009A700       nnsocketRecvFrom
 00000000:000000710009A704       nnsocketSend
 00000000:000000710009A708       nnsocketSendTo
 00000000:000000710009A70C       nnsocketAccept
 00000000:000000710009A710       nnsocketBind
 00000000:000000710009A714       nnsocketConnect
 00000000:000000710009A718       nnsocketGetPeerName
 00000000:000000710009A71C       nnsocketGetSockName
 00000000:000000710009A720       nnsocketGetSockOpt
 00000000:000000710009A724       nnsocketListen
 00000000:000000710009A728       nnsocketSetSockOpt
 00000000:000000710009A72C       nnsocketSockAtMark
 00000000:000000710009A730       nnsocketShutdown
 00000000:000000710009A734       nnsocketSocket
 00000000:000000710009A738       nnsocketWrite
 00000000:000000710009A73C       nnsocketRead
 00000000:000000710009A740       nnsocketClose
 00000000:000000710009A744       nnsocketSelect
 00000000:000000710009A748       nnsocketPoll
 00000000:000000710009A74C       nnsocketFcntl
 00000000:000000710009A7E8       nnsocketInetPton
 00000000:000000710009A7EC       nnsocketInetNtop
 00000000:000000710009A7F0       nnsocketInetAton
 00000000:000000710009A7F4       nnsocketInetNtoa
 00000000:000000710009A7FC       nnsocketInetHtons
 00000000:000000710009A800       nnsocketInetHtonl
 00000000:000000710009A804       nnsocketInetNtohs
 00000000:000000710009A808       nnsocketInetNtohl
 00000000:000000710009A80C       nnsocketGetLastErrno
 00000000:000000710009A810       nnsocketSetLastErrno
 00000000:000000710009A814       nnsocketRecvMsg
 00000000:000000710009A818       nnsocketSendMsg
 00000000:000000710009A81C       nnsocketIoctl
 00000000:000000710009A820       nnsocketOpen
 00000000:000000710009A824       nnsocketInitialize
 00000000:000000710009A83C       nnsocketFinalize
 00000000:000000710009A854       nnsocketGetAddrInfo
 00000000:000000710009A858       nnsocketGetAddrInfoCancel
 00000000:000000710009A85C       nnsocketGetAddrInfoWithoutNsdResolve
 00000000:000000710009A860       nnsocketGetAddrInfoWithoutNsdResolveCancel
 00000000:000000710009A864       nnsocketFreeAddrInfo
 00000000:000000710009A868       nnsocketGetNameInfo
 00000000:000000710009A86C       nnsocketGetNameInfoCancel
 00000000:000000710009A870       nnsocketGetHostByName
 00000000:000000710009A874       nnsocketGetHostByNameCancel
 00000000:000000710009A878       nnsocketGetHostByNameWithoutNsdResolve
 00000000:000000710009A87C       nnsocketGetHostByNameWithoutNsdResolveCancel
 00000000:000000710009A880       nnsocketGetHostByAddr
 00000000:000000710009A884       nnsocketGetHostByAddrCancel
 00000000:000000710009A888       nnsocketRequestCancelHandle
 00000000:000000710009A88C       nnsocketCancel
 00000000:000000710009A890       nnsocketGetHErrno
 00000000:000000710009A894       nnsocketHStrError
 00000000:000000710009A898       nnsocketGAIStrError
 00000000:000000710009A89C       nnsocketSysctl
 00000000:000000710009A8A0       nnsocketDuplicateSocket
 00000000:000000710009A8A4       _ZN2nn2sf13SharedPointerINS_6socket2sf7IClientEED2Ev
 00000000:000000710009A8BC       _ZN2nn6socket6detail5AllocEm
 00000000:000000710009A900       _ZN2nn6socket6detail12AllocAlignedEmm
 00000000:000000710009A94C       _ZN2nn6socket6detail6CallocEmm
 00000000:000000710009A9C4       _ZN2nn6socket6detail7ReallocEPvm
 00000000:000000710009AAA4       _ZN2nn6socket6detail4FreeEPv
 00000000:000000710009AAC8       _ZN2nn6socket6detail15HeapIsAvailableEi
 00000000:000000710009AAF4       _ZN2nn6socket6detail17GetHeapGenerationEv
 00000000:000000710009AB00       _ZN2nn6socket6detail16InitializeCommonERKNS0_6ConfigE
 00000000:000000710009ADBC       _ZN2nn6socket6detail10InitializeEPvmmi
 00000000:000000710009AE20       _ZN2nn6socket6detail10InitializeERKNS0_6ConfigE
 00000000:000000710009AE38       _ZN2nn6socket6detail8FinalizeEv
 00000000:000000710009AEB4       _ZN2nn6socket6detail12SetLastErrnoEi
 00000000:000000710009AEE8       _ZN2nn6socket6detail12GetLastErrnoEv
 00000000:000000710009AF18       _ZN2nn6socket6detail4RecvEiPvmi
 00000000:000000710009B0A8       _ZN2nn6socket6detail8RecvFromEiPvmiP8sockaddrPj
 00000000:000000710009B26C       _ZN2nn6socket6detail7RecvMsgEiP6msghdri
 00000000:000000710009B2C8       _ZN2nn6socket6detail8RecvMMsgEiP7mmsghdrmiPNS_8TimeSpanE
 00000000:000000710009B5AC       _ZN2nn6socket6detail4SendEiPKvmi
 00000000:000000710009B740       _ZN2nn6socket6detail6SendToEiPKvmiPK8sockaddrj
 00000000:000000710009B8F8       _ZN2nn6socket6detail7SendMsgEiPK6msghdri
 00000000:000000710009B954       _ZN2nn6socket6detail8SendMMsgEiPK7mmsghdrmi
 00000000:000000710009BE20       _ZN2nn6socket6detail6AcceptEiP8sockaddrPj
 00000000:000000710009BFB0       _ZN2nn6socket6detail4BindEiPK8sockaddrj
 00000000:000000710009C110       _ZN2nn6socket6detail7ConnectEiPK8sockaddrj
 00000000:000000710009C270       _ZN2nn6socket6detail11GetPeerNameEiP8sockaddrPj
 00000000:000000710009C3E0       _ZN2nn6socket6detail11GetSockNameEiP8sockaddrPj
 00000000:000000710009C550       _ZN2nn6socket6detail10GetSockOptEiiiPvPj
 00000000:000000710009C6D0       _ZN2nn6socket6detail6ListenEii
 00000000:000000710009C808       _ZN2nn6socket6detail5FcntlEiiz
 00000000:000000710009C9D8       _ZN2nn6socket6detail10SetSockOptEiiiPKvj
 00000000:000000710009CB48       _ZN2nn6socket6detail8ShutdownEii
 00000000:000000710009CC80       _ZN2nn6socket6detail18ShutdownAllSocketsEb
 00000000:000000710009CDB0       _ZN2nn6socket6detail5WriteEiPKvm
 00000000:000000710009CF34       _ZN2nn6socket6detail4ReadEiPvm
 00000000:000000710009D0B8       _ZN2nn6socket6detail10SockAtMarkEi
 00000000:000000710009D128       _ZN2nn6socket6detail5IoctlEijPvm
 00000000:000000710009D628       _ZN2nn6socket6detail6SelectEiP6fd_setS3_S3_P7timeval
 00000000:000000710009D838       _ZN2nn6socket6detail4PollEP6pollfdmi
 00000000:000000710009D9CC       _ZN2nn6socket6detail6SocketEiii
 00000000:000000710009DB0C       _ZN2nn6socket6detail12SocketExemptEiii
 00000000:000000710009DC4C       _ZN2nn6socket6detail4OpenEPKci
 00000000:000000710009DDCC       _ZN2nn6socket6detail5CloseEi
 00000000:000000710009DEFC       _ZN2nn6socket6detail6SysctlEPimPvPmS3_m
 00000000:000000710009E0C0       _ZN2nn6socket6detail15DuplicateSocketEim
 00000000:000000710009E1F8       _ZN2nn6socket6detail21GetResourceStatisticsEPNS0_18ResourceStatisticsEm
 00000000:000000710009E36C       _ZN2nn6socket6detail8InetNtopEiPKvPcj
 00000000:000000710009E370       _ZN2nn6socket6detail8InetPtonEiPKcPv
 00000000:000000710009E374       _ZN2nn6socket6detail8InetAtonEPKcP7in_addr
 00000000:000000710009E378       _ZN2nn6socket6detail8InetNtoaE7in_addr
 00000000:000000710009E380       _ZN2nn6socket6detail9InetHtonsEt
 00000000:000000710009E38C       _ZN2nn6socket6detail9InetHtonlEj
 00000000:000000710009E394       _ZN2nn6socket6detail9InetNtohsEt
 00000000:000000710009E3A0       _ZN2nn6socket6detail9InetNtohlEj
 00000000:000000710009E3A8       _ZNK2nn2sf13SharedPointerINS_6socket2sf7IClientEE19FunctionForBoolTypeEv
 00000000:000000710009E408       _ZN2nn6socket6detail10socketAtonEPKcP7in_addr
 00000000:000000710009E54C       def_710009E4D4
 00000000:000000710009E590       _ZN2nn6socket6detail25CreateClientMonitorByHipcEPKc
 00000000:000000710009E674       _ZN2nn6socket6detail25CreateClientServiceByHipcEiPKc
 00000000:000000710009E838       _ZN2nn6socket6detail26DestroyClientMonitorByHipcEPNS_2sf13SharedPointerINS0_2sf7IClientEEE
 00000000:000000710009E890       _ZN2nn6socket6detail26DestroyClientServiceByHipcEPNS_2sf13SharedPointerINS0_2sf7IClientEEE
 00000000:000000710009F098       _ZN2nn2sf4hipc6client24Hipc2ClientCoreProcessorILNS1_6detail11MessageTypeE4ENS0_4cmif6detail14CoreMethodInfoINSt3__15tupleIJNS7_18OutRawArgumentInfoILm4ELm4ELl0EEENS7_17InRawArgumentInfoILm8ELm8ELl32EEENS7_20InHandleArgumentInfoILi0ELi1EEENSD_ILm8ELm8ELl40EEENSD_ILm32ELm4ELl0EEEEEELm48ELm4ELb1EEESJ_E7ProcessEPNS2_26Hipc2ClientProxyBaseObjectENS6_6client24OutRawClientArgumentTypeILm4ELm4EEENSO_23InRawClientArgumentTypeILm8ELm8EvEENSO_26InHandleClientArgumentTypeESS_NSR_ILm32ELm4EvEEj
 00000000:000000710009F210       _ZN2nn2sf4hipc6client24Hipc2ClientCoreProcessorILNS1_6detail11MessageTypeE4ENS0_4cmif6detail14CoreMethodInfoINSt3__15tupleIJNS7_18OutRawArgumentInfoILm4ELm4ELl0EEENSB_ILm4ELm4ELl4EEENS7_17InRawArgumentInfoILm4ELm4ELl0EEENSE_ILm4ELm4ELl4EEENSE_ILm4ELm4ELl8EEEEEELm12ELm8ELb0EEESI_E7ProcessEPNS2_26Hipc2ClientProxyBaseObjectENS6_6client24OutRawClientArgumentTypeILm4ELm4EEESP_NSN_23InRawClientArgumentTypeILm4ELm4EvEESR_SR_j
 00000000:000000710009F330       _ZN2nn2sf4hipc6client24Hipc2ClientCoreProcessorILNS1_6detail11MessageTypeE4ENS0_4cmif6detail14CoreMethodInfoINSt3__15tupleIJNS7_18OutRawArgumentInfoILm4ELm4ELl0EEENSB_ILm4ELm4ELl4EEENS7_18BufferArgumentInfoILi0ELi33ELm0EEENS7_17InRawArgumentInfoILm4ELm4ELl0EEEEEELm4ELm8ELb0EEESI_E7ProcessEPNS2_26Hipc2ClientProxyBaseObjectENS6_6client24OutRawClientArgumentTypeILm4ELm4EEESP_NSN_24BufferClientArgumentTypeENSN_23InRawClientArgumentTypeILm4ELm4EvEEj
 00000000:000000710009F530       _ZN2nn2sf4hipc6client24Hipc2ClientCoreProcessorILNS1_6detail11MessageTypeE4ENS0_4cmif6detail14CoreMethodInfoINSt3__15tupleIJNS7_18OutRawArgumentInfoILm4ELm4ELl0EEENSB_ILm4ELm4ELl4EEENS7_17InRawArgumentInfoILm4ELm4ELl0EEENS7_18BufferArgumentInfoILi0ELi33ELm0EEENSG_ILi1ELi33ELm0EEENSG_ILi2ELi33ELm0EEENSG_ILi3ELi34ELm0EEENSG_ILi4ELi34ELm0EEENSG_ILi5ELi34ELm0EEENSE_ILm24ELm8ELl8EEEEEELm32ELm8ELb0EEESO_E7ProcessEPNS2_26Hipc2ClientProxyBaseObjectENS6_6client24OutRawClientArgumentTypeILm4ELm4EEESV_NST_23InRawClientArgumentTypeILm4ELm4EvEENST_24BufferClientArgumentTypeESY_SY_SY_SY_SY_NSW_ILm24ELm8EvEEj
 00000000:000000710009F7CC       _ZN2nn2sf4hipc6client24Hipc2ClientCoreProcessorILNS1_6detail11MessageTypeE4ENS0_4cmif6detail14CoreMethodInfoINSt3__15tupleIJNS7_18OutRawArgumentInfoILm4ELm4ELl0EEENSB_ILm4ELm4ELl4EEENS7_18BufferArgumentInfoILi0ELi33ELm0EEENSE_ILi1ELi34ELm0EEENS7_17InRawArgumentInfoILm4ELm4ELl0EEENSH_ILm4ELm4ELl4EEEEEELm8ELm8ELb0EEESK_E7ProcessEPNS2_26Hipc2ClientProxyBaseObjectENS6_6client24OutRawClientArgumentTypeILm4ELm4EEESR_NSP_24BufferClientArgumentTypeESS_NSP_23InRawClientArgumentTypeILm4ELm4EvEESU_j
 00000000:000000710009F9E0       _ZN2nn2sf4hipc6client24Hipc2ClientCoreProcessorILNS1_6detail11MessageTypeE4ENS0_4cmif6detail14CoreMethodInfoINSt3__15tupleIJNS7_18OutRawArgumentInfoILm4ELm4ELl0EEENSB_ILm4ELm4ELl4EEENS7_18BufferArgumentInfoILi0ELi33ELm0EEENSE_ILi1ELi34ELm0EEENSB_ILm4ELm4ELl8EEENSE_ILi2ELi33ELm0EEEEEELm0ELm12ELb0EEESJ_E7ProcessEPNS2_26Hipc2ClientProxyBaseObjectENS6_6client24OutRawClientArgumentTypeILm4ELm4EEESQ_NSO_24BufferClientArgumentTypeESR_SQ_SR_j
 00000000:000000710009FC08       _ZN2nn2sf4hipc6client24Hipc2ClientCoreProcessorILNS1_6detail11MessageTypeE4ENS0_4cmif6detail14CoreMethodInfoINSt3__15tupleIJNS7_18OutRawArgumentInfoILm4ELm4ELl0EEENSB_ILm4ELm4ELl4EEENS7_17InRawArgumentInfoILm4ELm4ELl0EEENS7_18BufferArgumentInfoILi0ELi34ELm0EEENSE_ILm4ELm4ELl4EEEEEELm8ELm8ELb0EEESJ_E7ProcessEPNS2_26Hipc2ClientProxyBaseObjectENS6_6client24OutRawClientArgumentTypeILm4ELm4EEESQ_NSO_23InRawClientArgumentTypeILm4ELm4EvEENSO_24BufferClientArgumentTypeESS_j
 00000000:000000710009FE0C       _ZN2nn2sf4hipc6client24Hipc2ClientCoreProcessorILNS1_6detail11MessageTypeE4ENS0_4cmif6detail14CoreMethodInfoINSt3__15tupleIJNS7_18OutRawArgumentInfoILm4ELm4ELl0EEENSB_ILm4ELm4ELl4EEENS7_17InRawArgumentInfoILm4ELm4ELl0EEENS7_18BufferArgumentInfoILi0ELi34ELm0EEENSE_ILm4ELm4ELl4EEENSG_ILi1ELi34ELm0EEENSB_ILm4ELm4ELl8EEEEEELm8ELm12ELb0EEESL_E7ProcessEPNS2_26Hipc2ClientProxyBaseObjectENS6_6client24OutRawClientArgumentTypeILm4ELm4EEESS_NSQ_23InRawClientArgumentTypeILm4ELm4EvEENSQ_24BufferClientArgumentTypeESU_SV_SS_j
 00000000:00000071000A002C       _ZN2nn2sf4hipc6client24Hipc2ClientCoreProcessorILNS1_6detail11MessageTypeE4ENS0_4cmif6detail14CoreMethodInfoINSt3__15tupleIJNS7_18OutRawArgumentInfoILm4ELm4ELl0EEENSB_ILm4ELm4ELl4EEENS7_17InRawArgumentInfoILm4ELm4ELl0EEENS7_18BufferArgumentInfoILi0ELi33ELm0EEENSE_ILm4ELm4ELl4EEEEEELm8ELm8ELb0EEESJ_E7ProcessEPNS2_26Hipc2ClientProxyBaseObjectENS6_6client24OutRawClientArgumentTypeILm4ELm4EEESQ_NSO_23InRawClientArgumentTypeILm4ELm4EvEENSO_24BufferClientArgumentTypeESS_j
 00000000:00000071000A0230       _ZN2nn2sf4hipc6client24Hipc2ClientCoreProcessorILNS1_6detail11MessageTypeE4ENS0_4cmif6detail14CoreMethodInfoINSt3__15tupleIJNS7_18OutRawArgumentInfoILm4ELm4ELl0EEENSB_ILm4ELm4ELl4EEENS7_17InRawArgumentInfoILm4ELm4ELl0EEENS7_18BufferArgumentInfoILi0ELi33ELm0EEENSE_ILm4ELm4ELl4EEENSG_ILi1ELi33ELm0EEEEEELm8ELm8ELb0EEESK_E7ProcessEPNS2_26Hipc2ClientProxyBaseObjectENS6_6client24OutRawClientArgumentTypeILm4ELm4EEESR_NSP_23InRawClientArgumentTypeILm4ELm4EvEENSP_24BufferClientArgumentTypeEST_SU_j
 00000000:00000071000A0444       _ZN2nn2sf4hipc6client24Hipc2ClientCoreProcessorILNS1_6detail11MessageTypeE4ENS0_4cmif6detail14CoreMethodInfoINSt3__15tupleIJNS7_18OutRawArgumentInfoILm4ELm4ELl0EEENSB_ILm4ELm4ELl4EEENS7_17InRawArgumentInfoILm4ELm4ELl0EEENS7_18BufferArgumentInfoILi0ELi34ELm0EEENSB_ILm4ELm4ELl8EEEEEELm4ELm12ELb0EEESJ_E7ProcessEPNS2_26Hipc2ClientProxyBaseObjectENS6_6client24OutRawClientArgumentTypeILm4ELm4EEESQ_NSO_23InRawClientArgumentTypeILm4ELm4EvEENSO_24BufferClientArgumentTypeESQ_j
 00000000:00000071000A0650       _ZN2nn2sf4hipc6client24Hipc2ClientCoreProcessorILNS1_6detail11MessageTypeE4ENS0_4cmif6detail14CoreMethodInfoINSt3__15tupleIJNS7_18OutRawArgumentInfoILm4ELm4ELl0EEENSB_ILm4ELm4ELl4EEENS7_17InRawArgumentInfoILm4ELm4ELl0EEENS7_18BufferArgumentInfoILi0ELi33ELm0EEEEEELm4ELm8ELb0EEESI_E7ProcessEPNS2_26Hipc2ClientProxyBaseObjectENS6_6client24OutRawClientArgumentTypeILm4ELm4EEESP_NSN_23InRawClientArgumentTypeILm4ELm4EvEENSN_24BufferClientArgumentTypeEj
 00000000:00000071000A0850       _ZN2nn2sf4hipc6client24Hipc2ClientCoreProcessorILNS1_6detail11MessageTypeE4ENS0_4cmif6detail14CoreMethodInfoINSt3__15tupleIJNS7_18OutRawArgumentInfoILm4ELm4ELl0EEENSB_ILm4ELm4ELl4EEENS7_17InRawArgumentInfoILm4ELm4ELl0EEENSE_ILm4ELm4ELl4EEENSE_ILm4ELm4ELl8EEENS7_18BufferArgumentInfoILi0ELi34ELm0EEENSB_ILm4ELm4ELl8EEEEEELm12ELm12ELb0EEESL_E7ProcessEPNS2_26Hipc2ClientProxyBaseObjectENS6_6client24OutRawClientArgumentTypeILm4ELm4EEESS_NSQ_23InRawClientArgumentTypeILm4ELm4EvEESU_SU_NSQ_24BufferClientArgumentTypeESS_j
 00000000:00000071000A0A68       _ZN2nn2sf4hipc6client24Hipc2ClientCoreProcessorILNS1_6detail11MessageTypeE4ENS0_4cmif6detail14CoreMethodInfoINSt3__15tupleIJNS7_18OutRawArgumentInfoILm4ELm4ELl0EEENSB_ILm4ELm4ELl4EEENS7_17InRawArgumentInfoILm4ELm4ELl0EEENSE_ILm4ELm4ELl4EEEEEELm8ELm8ELb0EEESH_E7ProcessEPNS2_26Hipc2ClientProxyBaseObjectENS6_6client24OutRawClientArgumentTypeILm4ELm4EEESO_NSM_23InRawClientArgumentTypeILm4ELm4EvEESQ_j
 00000000:00000071000A0B80       _ZN2nn2sf4hipc6client24Hipc2ClientCoreProcessorILNS1_6detail11MessageTypeE4ENS0_4cmif6detail14CoreMethodInfoINSt3__15tupleIJNS7_18OutRawArgumentInfoILm4ELm4ELl0EEENSB_ILm4ELm4ELl4EEENS7_17InRawArgumentInfoILm4ELm4ELl0EEENSE_ILm4ELm4ELl4EEENS7_18BufferArgumentInfoILi0ELi33ELm0EEENSH_ILi1ELi33ELm0EEENSH_ILi2ELi33ELm0EEENSH_ILi3ELi33ELm0EEENSH_ILi4ELi34ELm0EEENSH_ILi5ELi34ELm0EEENSH_ILi6ELi34ELm0EEENSH_ILi7ELi34ELm0EEENSE_ILm4ELm4ELl8EEEEEELm12ELm8ELb0EEESR_E7ProcessEPNS2_26Hipc2ClientProxyBaseObjectENS6_6client24OutRawClientArgumentTypeILm4ELm4EEESY_NSW_23InRawClientArgumentTypeILm4ELm4EvEES10_NSW_24BufferClientArgumentTypeES11_S11_S11_S11_S11_S11_S11_S10_j
 00000000:00000071000A0E3C       _ZN2nn2sf4hipc6client24Hipc2ClientCoreProcessorILNS1_6detail11MessageTypeE4ENS0_4cmif6detail14CoreMethodInfoINSt3__15tupleIJNS7_18OutRawArgumentInfoILm4ELm4ELl0EEENSB_ILm4ELm4ELl4EEENS7_17InRawArgumentInfoILm4ELm4ELl0EEENSE_ILm4ELm4ELl4EEENSE_ILm4ELm4ELl8EEENS7_18BufferArgumentInfoILi0ELi33ELm0EEEEEELm12ELm8ELb0EEESK_E7ProcessEPNS2_26Hipc2ClientProxyBaseObjectENS6_6client24OutRawClientArgumentTypeILm4ELm4EEESR_NSP_23InRawClientArgumentTypeILm4ELm4EvEEST_ST_NSP_24BufferClientArgumentTypeEj
 00000000:00000071000A1048       _ZN2nn2sf4hipc6client24Hipc2ClientCoreProcessorILNS1_6detail11MessageTypeE4ENS0_4cmif6detail14CoreMethodInfoINSt3__15tupleIJNS7_18OutRawArgumentInfoILm4ELm4ELl0EEENSB_ILm4ELm4ELl4EEENS7_17InRawArgumentInfoILm4ELm4ELl0EEEEEELm4ELm8ELb0EEESG_E7ProcessEPNS2_26Hipc2ClientProxyBaseObjectENS6_6client24OutRawClientArgumentTypeILm4ELm4EEESN_NSL_23InRawClientArgumentTypeILm4ELm4EvEEj
 00000000:00000071000A1154       _ZN2nn2sf4hipc6client24Hipc2ClientCoreProcessorILNS1_6detail11MessageTypeE4ENS0_4cmif6detail14CoreMethodInfoINSt3__15tupleIJNS7_18OutRawArgumentInfoILm4ELm4ELl0EEENSB_ILm4ELm4ELl4EEENS7_17InRawArgumentInfoILm4ELm4ELl0EEENS7_18BufferArgumentInfoILi0ELi34ELm0EEEEEELm4ELm8ELb0EEESI_E7ProcessEPNS2_26Hipc2ClientProxyBaseObjectENS6_6client24OutRawClientArgumentTypeILm4ELm4EEESP_NSN_23InRawClientArgumentTypeILm4ELm4EvEENSN_24BufferClientArgumentTypeEj
 00000000:00000071000A1354       _ZN2nn2sf4hipc6client24Hipc2ClientCoreProcessorILNS1_6detail11MessageTypeE4ENS0_4cmif6detail14CoreMethodInfoINSt3__15tupleIJNS7_18OutRawArgumentInfoILm4ELm4ELl0EEENSB_ILm4ELm4ELl4EEENS7_17InRawArgumentInfoILm4ELm4ELl0EEENSE_ILm8ELm8ELl8EEEEEELm16ELm8ELb0EEESH_E7ProcessEPNS2_26Hipc2ClientProxyBaseObjectENS6_6client24OutRawClientArgumentTypeILm4ELm4EEESO_NSM_23InRawClientArgumentTypeILm4ELm4EvEENSP_ILm8ELm8EvEEj
 00000000:00000071000A1474       _ZN2nn2sf4hipc6client24Hipc2ClientCoreProcessorILNS1_6detail11MessageTypeE4ENS0_4cmif6detail14CoreMethodInfoINSt3__15tupleIJNS7_18OutRawArgumentInfoILm4ELm4ELl0EEENSB_ILm4ELm4ELl4EEENS7_17InRawArgumentInfoILm8ELm8ELl0EEENS7_18BufferArgumentInfoILi0ELi34ELm0EEEEEELm8ELm8ELb1EEESI_E7ProcessEPNS2_26Hipc2ClientProxyBaseObjectENS6_6client24OutRawClientArgumentTypeILm4ELm4EEESP_NSN_23InRawClientArgumentTypeILm8ELm8EvEENSN_24BufferClientArgumentTypeEj
 00000000:00000071000A1678       _ZN2nn2sf4hipc6client24Hipc2ClientCoreProcessorILNS1_6detail11MessageTypeE4ENS0_4cmif6detail14CoreMethodInfoINSt3__15tupleIJNS7_18OutRawArgumentInfoILm4ELm4ELl0EEENSB_ILm4ELm4ELl4EEENS7_17InRawArgumentInfoILm4ELm4ELl0EEENS7_18BufferArgumentInfoILi0ELi34ELm0EEENSE_ILm4ELm4ELl4EEENSE_ILm4ELm4ELl8EEENSE_ILm16ELm8ELl16EEEEEELm32ELm8ELb0EEESL_E7ProcessEPNS2_26Hipc2ClientProxyBaseObjectENS6_6client24OutRawClientArgumentTypeILm4ELm4EEESS_NSQ_23InRawClientArgumentTypeILm4ELm4EvEENSQ_24BufferClientArgumentTypeESU_SU_NST_ILm16ELm8EvEEj
 00000000:00000071000A18A0       _ZN2nn2sf4hipc6client24Hipc2ClientCoreProcessorILNS1_6detail11MessageTypeE4ENS0_4cmif6detail14CoreMethodInfoINSt3__15tupleIJNS7_18OutRawArgumentInfoILm4ELm4ELl0EEENSB_ILm4ELm4ELl4EEENS7_17InRawArgumentInfoILm4ELm4ELl0EEENS7_18BufferArgumentInfoILi0ELi33ELm0EEENSE_ILm4ELm4ELl4EEENSG_ILi1ELi33ELm0EEENSE_ILm4ELm4ELl8EEEEEELm12ELm8ELb0EEESL_E7ProcessEPNS2_26Hipc2ClientProxyBaseObjectENS6_6client24OutRawClientArgumentTypeILm4ELm4EEESS_NSQ_23InRawClientArgumentTypeILm4ELm4EvEENSQ_24BufferClientArgumentTypeESU_SV_SU_j
 00000000:00000071000A2258       _ZN2nn2sf4cmif6client34CmifDomainProxyClientCoreProcessorINS0_4hipc6client38Hipc2ClientSessionManagedProxyKindBaseINS5_18Hipc2ProxyKindBaseILNS4_6detail11MessageTypeE4EEEEENS1_6detail14CoreMethodInfoINSt3__15tupleIJNSC_18OutRawArgumentInfoILm4ELm4ELl0EEENSC_17InRawArgumentInfoILm8ELm8ELl32EEENSC_20InHandleArgumentInfoILi0ELi1EEENSI_ILm8ELm8ELl40EEENSI_ILm32ELm4ELl0EEEEEELm48ELm4ELb1EEESO_E7ProcessEPNS2_23CmifDomainClientMessageISB_E15ProxyBaseObjectENS2_24OutRawClientArgumentTypeILm4ELm4EEENS2_23InRawClientArgumentTypeILm8ELm8EvEENS2_26InHandleClientArgumentTypeESY_NSX_ILm32ELm4EvEEj
 00000000:00000071000A2424       _ZN2nn2sf4cmif6client34CmifDomainProxyClientCoreProcessorINS0_4hipc6client38Hipc2ClientSessionManagedProxyKindBaseINS5_18Hipc2ProxyKindBaseILNS4_6detail11MessageTypeE4EEEEENS1_6detail14CoreMethodInfoINSt3__15tupleIJNSC_18OutRawArgumentInfoILm4ELm4ELl0EEENSG_ILm4ELm4ELl4EEENSC_17InRawArgumentInfoILm4ELm4ELl0EEENSJ_ILm4ELm4ELl4EEENSJ_ILm4ELm4ELl8EEEEEELm12ELm8ELb0EEESN_E7ProcessEPNS2_23CmifDomainClientMessageISB_E15ProxyBaseObjectENS2_24OutRawClientArgumentTypeILm4ELm4EEESV_NS2_23InRawClientArgumentTypeILm4ELm4EvEESX_SX_j
 00000000:00000071000A259C       _ZN2nn2sf4cmif6client34CmifDomainProxyClientCoreProcessorINS0_4hipc6client38Hipc2ClientSessionManagedProxyKindBaseINS5_18Hipc2ProxyKindBaseILNS4_6detail11MessageTypeE4EEEEENS1_6detail14CoreMethodInfoINSt3__15tupleIJNSC_18OutRawArgumentInfoILm4ELm4ELl0EEENSG_ILm4ELm4ELl4EEENSC_18BufferArgumentInfoILi0ELi33ELm0EEENSC_17InRawArgumentInfoILm4ELm4ELl0EEEEEELm4ELm8ELb0EEESN_E7ProcessEPNS2_23CmifDomainClientMessageISB_E15ProxyBaseObjectENS2_24OutRawClientArgumentTypeILm4ELm4EEESV_NS2_24BufferClientArgumentTypeENS2_23InRawClientArgumentTypeILm4ELm4EvEEj
 00000000:00000071000A278C       _ZN2nn2sf4cmif6client34CmifDomainProxyClientCoreProcessorINS0_4hipc6client38Hipc2ClientSessionManagedProxyKindBaseINS5_18Hipc2ProxyKindBaseILNS4_6detail11MessageTypeE4EEEEENS1_6detail14CoreMethodInfoINSt3__15tupleIJNSC_18OutRawArgumentInfoILm4ELm4ELl0EEENSG_ILm4ELm4ELl4EEENSC_17InRawArgumentInfoILm4ELm4ELl0EEENSC_18BufferArgumentInfoILi0ELi33ELm0EEENSL_ILi1ELi33ELm0EEENSL_ILi2ELi33ELm0EEENSL_ILi3ELi34ELm0EEENSL_ILi4ELi34ELm0EEENSL_ILi5ELi34ELm0EEENSJ_ILm24ELm8ELl8EEEEEELm32ELm8ELb0EEEST_E7ProcessEPNS2_23CmifDomainClientMessageISB_E15ProxyBaseObjectENS2_24OutRawClientArgumentTypeILm4ELm4EEES11_NS2_23InRawClientArgumentTypeILm4ELm4EvEENS2_24BufferClientArgumentTypeES14_S14_S14_S14_S14_NS12_ILm24ELm8EvEEj
 00000000:00000071000A2A0C       _ZN2nn2sf4cmif6client34CmifDomainProxyClientCoreProcessorINS0_4hipc6client38Hipc2ClientSessionManagedProxyKindBaseINS5_18Hipc2ProxyKindBaseILNS4_6detail11MessageTypeE4EEEEENS1_6detail14CoreMethodInfoINSt3__15tupleIJNSC_18OutRawArgumentInfoILm4ELm4ELl0EEENSG_ILm4ELm4ELl4EEENSC_18BufferArgumentInfoILi0ELi33ELm0EEENSJ_ILi1ELi34ELm0EEENSC_17InRawArgumentInfoILm4ELm4ELl0EEENSM_ILm4ELm4ELl4EEEEEELm8ELm8ELb0EEESP_E7ProcessEPNS2_23CmifDomainClientMessageISB_E15ProxyBaseObjectENS2_24OutRawClientArgumentTypeILm4ELm4EEESX_NS2_24BufferClientArgumentTypeESY_NS2_23InRawClientArgumentTypeILm4ELm4EvEES10_j
 00000000:00000071000A2C10       _ZN2nn2sf4cmif6client34CmifDomainProxyClientCoreProcessorINS0_4hipc6client38Hipc2ClientSessionManagedProxyKindBaseINS5_18Hipc2ProxyKindBaseILNS4_6detail11MessageTypeE4EEEEENS1_6detail14CoreMethodInfoINSt3__15tupleIJNSC_18OutRawArgumentInfoILm4ELm4ELl0EEENSG_ILm4ELm4ELl4EEENSC_18BufferArgumentInfoILi0ELi33ELm0EEENSJ_ILi1ELi34ELm0EEENSG_ILm4ELm4ELl8EEENSJ_ILi2ELi33ELm0EEEEEELm0ELm12ELb0EEESO_E7ProcessEPNS2_23CmifDomainClientMessageISB_E15ProxyBaseObjectENS2_24OutRawClientArgumentTypeILm4ELm4EEESW_NS2_24BufferClientArgumentTypeESX_SW_SX_j
 00000000:00000071000A2E30       _ZN2nn2sf4cmif6client34CmifDomainProxyClientCoreProcessorINS0_4hipc6client38Hipc2ClientSessionManagedProxyKindBaseINS5_18Hipc2ProxyKindBaseILNS4_6detail11MessageTypeE4EEEEENS1_6detail14CoreMethodInfoINSt3__15tupleIJNSC_18OutRawArgumentInfoILm4ELm4ELl0EEENSG_ILm4ELm4ELl4EEENSC_17InRawArgumentInfoILm4ELm4ELl0EEENSC_18BufferArgumentInfoILi0ELi34ELm0EEENSJ_ILm4ELm4ELl4EEEEEELm8ELm8ELb0EEESO_E7ProcessEPNS2_23CmifDomainClientMessageISB_E15ProxyBaseObjectENS2_24OutRawClientArgumentTypeILm4ELm4EEESW_NS2_23InRawClientArgumentTypeILm4ELm4EvEENS2_24BufferClientArgumentTypeESY_j
 00000000:00000071000A3024       _ZN2nn2sf4cmif6client34CmifDomainProxyClientCoreProcessorINS0_4hipc6client38Hipc2ClientSessionManagedProxyKindBaseINS5_18Hipc2ProxyKindBaseILNS4_6detail11MessageTypeE4EEEEENS1_6detail14CoreMethodInfoINSt3__15tupleIJNSC_18OutRawArgumentInfoILm4ELm4ELl0EEENSG_ILm4ELm4ELl4EEENSC_17InRawArgumentInfoILm4ELm4ELl0EEENSC_18BufferArgumentInfoILi0ELi34ELm0EEENSJ_ILm4ELm4ELl4EEENSL_ILi1ELi34ELm0EEENSG_ILm4ELm4ELl8EEEEEELm8ELm12ELb0EEESQ_E7ProcessEPNS2_23CmifDomainClientMessageISB_E15ProxyBaseObjectENS2_24OutRawClientArgumentTypeILm4ELm4EEESY_NS2_23InRawClientArgumentTypeILm4ELm4EvEENS2_24BufferClientArgumentTypeES10_S11_SY_j
 00000000:00000071000A3238       _ZN2nn2sf4cmif6client34CmifDomainProxyClientCoreProcessorINS0_4hipc6client38Hipc2ClientSessionManagedProxyKindBaseINS5_18Hipc2ProxyKindBaseILNS4_6detail11MessageTypeE4EEEEENS1_6detail14CoreMethodInfoINSt3__15tupleIJNSC_18OutRawArgumentInfoILm4ELm4ELl0EEENSG_ILm4ELm4ELl4EEENSC_17InRawArgumentInfoILm4ELm4ELl0EEENSC_18BufferArgumentInfoILi0ELi33ELm0EEENSJ_ILm4ELm4ELl4EEEEEELm8ELm8ELb0EEESO_E7ProcessEPNS2_23CmifDomainClientMessageISB_E15ProxyBaseObjectENS2_24OutRawClientArgumentTypeILm4ELm4EEESW_NS2_23InRawClientArgumentTypeILm4ELm4EvEENS2_24BufferClientArgumentTypeESY_j
 00000000:00000071000A342C       _ZN2nn2sf4cmif6client34CmifDomainProxyClientCoreProcessorINS0_4hipc6client38Hipc2ClientSessionManagedProxyKindBaseINS5_18Hipc2ProxyKindBaseILNS4_6detail11MessageTypeE4EEEEENS1_6detail14CoreMethodInfoINSt3__15tupleIJNSC_18OutRawArgumentInfoILm4ELm4ELl0EEENSG_ILm4ELm4ELl4EEENSC_17InRawArgumentInfoILm4ELm4ELl0EEENSC_18BufferArgumentInfoILi0ELi33ELm0EEENSJ_ILm4ELm4ELl4EEENSL_ILi1ELi33ELm0EEEEEELm8ELm8ELb0EEESP_E7ProcessEPNS2_23CmifDomainClientMessageISB_E15ProxyBaseObjectENS2_24OutRawClientArgumentTypeILm4ELm4EEESX_NS2_23InRawClientArgumentTypeILm4ELm4EvEENS2_24BufferClientArgumentTypeESZ_S10_j
 00000000:00000071000A3634       _ZN2nn2sf4cmif6client34CmifDomainProxyClientCoreProcessorINS0_4hipc6client38Hipc2ClientSessionManagedProxyKindBaseINS5_18Hipc2ProxyKindBaseILNS4_6detail11MessageTypeE4EEEEENS1_6detail14CoreMethodInfoINSt3__15tupleIJNSC_18OutRawArgumentInfoILm4ELm4ELl0EEENSG_ILm4ELm4ELl4EEENSC_17InRawArgumentInfoILm4ELm4ELl0EEENSC_18BufferArgumentInfoILi0ELi34ELm0EEENSG_ILm4ELm4ELl8EEEEEELm4ELm12ELb0EEESO_E7ProcessEPNS2_23CmifDomainClientMessageISB_E15ProxyBaseObjectENS2_24OutRawClientArgumentTypeILm4ELm4EEESW_NS2_23InRawClientArgumentTypeILm4ELm4EvEENS2_24BufferClientArgumentTypeESW_j
 00000000:00000071000A3830       _ZN2nn2sf4cmif6client34CmifDomainProxyClientCoreProcessorINS0_4hipc6client38Hipc2ClientSessionManagedProxyKindBaseINS5_18Hipc2ProxyKindBaseILNS4_6detail11MessageTypeE4EEEEENS1_6detail14CoreMethodInfoINSt3__15tupleIJNSC_18OutRawArgumentInfoILm4ELm4ELl0EEENSG_ILm4ELm4ELl4EEENSC_17InRawArgumentInfoILm4ELm4ELl0EEENSC_18BufferArgumentInfoILi0ELi33ELm0EEEEEELm4ELm8ELb0EEESN_E7ProcessEPNS2_23CmifDomainClientMessageISB_E15ProxyBaseObjectENS2_24OutRawClientArgumentTypeILm4ELm4EEESV_NS2_23InRawClientArgumentTypeILm4ELm4EvEENS2_24BufferClientArgumentTypeEj
 00000000:00000071000A3A20       _ZN2nn2sf4cmif6client34CmifDomainProxyClientCoreProcessorINS0_4hipc6client38Hipc2ClientSessionManagedProxyKindBaseINS5_18Hipc2ProxyKindBaseILNS4_6detail11MessageTypeE4EEEEENS1_6detail14CoreMethodInfoINSt3__15tupleIJNSC_18OutRawArgumentInfoILm4ELm4ELl0EEENSG_ILm4ELm4ELl4EEENSC_17InRawArgumentInfoILm4ELm4ELl0EEENSJ_ILm4ELm4ELl4EEENSJ_ILm4ELm4ELl8EEENSC_18BufferArgumentInfoILi0ELi34ELm0EEENSG_ILm4ELm4ELl8EEEEEELm12ELm12ELb0EEESQ_E7ProcessEPNS2_23CmifDomainClientMessageISB_E15ProxyBaseObjectENS2_24OutRawClientArgumentTypeILm4ELm4EEESY_NS2_23InRawClientArgumentTypeILm4ELm4EvEES10_S10_NS2_24BufferClientArgumentTypeESY_j
 00000000:00000071000A3C28       _ZN2nn2sf4cmif6client34CmifDomainProxyClientCoreProcessorINS0_4hipc6client38Hipc2ClientSessionManagedProxyKindBaseINS5_18Hipc2ProxyKindBaseILNS4_6detail11MessageTypeE4EEEEENS1_6detail14CoreMethodInfoINSt3__15tupleIJNSC_18OutRawArgumentInfoILm4ELm4ELl0EEENSG_ILm4ELm4ELl4EEENSC_17InRawArgumentInfoILm4ELm4ELl0EEENSJ_ILm4ELm4ELl4EEEEEELm8ELm8ELb0EEESM_E7ProcessEPNS2_23CmifDomainClientMessageISB_E15ProxyBaseObjectENS2_24OutRawClientArgumentTypeILm4ELm4EEESU_NS2_23InRawClientArgumentTypeILm4ELm4EvEESW_j
 00000000:00000071000A3D98       _ZN2nn2sf4cmif6client34CmifDomainProxyClientCoreProcessorINS0_4hipc6client38Hipc2ClientSessionManagedProxyKindBaseINS5_18Hipc2ProxyKindBaseILNS4_6detail11MessageTypeE4EEEEENS1_6detail14CoreMethodInfoINSt3__15tupleIJNSC_18OutRawArgumentInfoILm4ELm4ELl0EEENSG_ILm4ELm4ELl4EEENSC_17InRawArgumentInfoILm4ELm4ELl0EEENSJ_ILm4ELm4ELl4EEENSC_18BufferArgumentInfoILi0ELi33ELm0EEENSM_ILi1ELi33ELm0EEENSM_ILi2ELi33ELm0EEENSM_ILi3ELi33ELm0EEENSM_ILi4ELi34ELm0EEENSM_ILi5ELi34ELm0EEENSM_ILi6ELi34ELm0EEENSM_ILi7ELi34ELm0EEENSJ_ILm4ELm4ELl8EEEEEELm12ELm8ELb0EEESW_E7ProcessEPNS2_23CmifDomainClientMessageISB_E15ProxyBaseObjectENS2_24OutRawClientArgumentTypeILm4ELm4EEES14_NS2_23InRawClientArgumentTypeILm4ELm4EvEES16_NS2_24BufferClientArgumentTypeES17_S17_S17_S17_S17_S17_S17_S16_j
 00000000:00000071000A4044       _ZN2nn2sf4cmif6client34CmifDomainProxyClientCoreProcessorINS0_4hipc6client38Hipc2ClientSessionManagedProxyKindBaseINS5_18Hipc2ProxyKindBaseILNS4_6detail11MessageTypeE4EEEEENS1_6detail14CoreMethodInfoINSt3__15tupleIJNSC_18OutRawArgumentInfoILm4ELm4ELl0EEENSG_ILm4ELm4ELl4EEENSC_17InRawArgumentInfoILm4ELm4ELl0EEENSJ_ILm4ELm4ELl4EEENSJ_ILm4ELm4ELl8EEENSC_18BufferArgumentInfoILi0ELi33ELm0EEEEEELm12ELm8ELb0EEESP_E7ProcessEPNS2_23CmifDomainClientMessageISB_E15ProxyBaseObjectENS2_24OutRawClientArgumentTypeILm4ELm4EEESX_NS2_23InRawClientArgumentTypeILm4ELm4EvEESZ_SZ_NS2_24BufferClientArgumentTypeEj
 00000000:00000071000A4240       _ZN2nn2sf4cmif6client34CmifDomainProxyClientCoreProcessorINS0_4hipc6client38Hipc2ClientSessionManagedProxyKindBaseINS5_18Hipc2ProxyKindBaseILNS4_6detail11MessageTypeE4EEEEENS1_6detail14CoreMethodInfoINSt3__15tupleIJNSC_18OutRawArgumentInfoILm4ELm4ELl0EEENSG_ILm4ELm4ELl4EEENSC_17InRawArgumentInfoILm4ELm4ELl0EEEEEELm4ELm8ELb0EEESL_E7ProcessEPNS2_23CmifDomainClientMessageISB_E15ProxyBaseObjectENS2_24OutRawClientArgumentTypeILm4ELm4EEEST_NS2_23InRawClientArgumentTypeILm4ELm4EvEEj
 00000000:00000071000A43A4       _ZN2nn2sf4cmif6client34CmifDomainProxyClientCoreProcessorINS0_4hipc6client38Hipc2ClientSessionManagedProxyKindBaseINS5_18Hipc2ProxyKindBaseILNS4_6detail11MessageTypeE4EEEEENS1_6detail14CoreMethodInfoINSt3__15tupleIJNSC_18OutRawArgumentInfoILm4ELm4ELl0EEENSG_ILm4ELm4ELl4EEENSC_17InRawArgumentInfoILm4ELm4ELl0EEENSC_18BufferArgumentInfoILi0ELi34ELm0EEEEEELm4ELm8ELb0EEESN_E7ProcessEPNS2_23CmifDomainClientMessageISB_E15ProxyBaseObjectENS2_24OutRawClientArgumentTypeILm4ELm4EEESV_NS2_23InRawClientArgumentTypeILm4ELm4EvEENS2_24BufferClientArgumentTypeEj
 00000000:00000071000A4594       _ZN2nn2sf4cmif6client34CmifDomainProxyClientCoreProcessorINS0_4hipc6client38Hipc2ClientSessionManagedProxyKindBaseINS5_18Hipc2ProxyKindBaseILNS4_6detail11MessageTypeE4EEEEENS1_6detail14CoreMethodInfoINSt3__15tupleIJNSC_18OutRawArgumentInfoILm4ELm4ELl0EEENSG_ILm4ELm4ELl4EEENSC_17InRawArgumentInfoILm4ELm4ELl0EEENSJ_ILm8ELm8ELl8EEEEEELm16ELm8ELb0EEESM_E7ProcessEPNS2_23CmifDomainClientMessageISB_E15ProxyBaseObjectENS2_24OutRawClientArgumentTypeILm4ELm4EEESU_NS2_23InRawClientArgumentTypeILm4ELm4EvEENSV_ILm8ELm8EvEEj
 00000000:00000071000A470C       _ZN2nn2sf4cmif6client34CmifDomainProxyClientCoreProcessorINS0_4hipc6client38Hipc2ClientSessionManagedProxyKindBaseINS5_18Hipc2ProxyKindBaseILNS4_6detail11MessageTypeE4EEEEENS1_6detail14CoreMethodInfoINSt3__15tupleIJNSC_18OutRawArgumentInfoILm4ELm4ELl0EEENSG_ILm4ELm4ELl4EEENSC_17InRawArgumentInfoILm8ELm8ELl0EEENSC_18BufferArgumentInfoILi0ELi34ELm0EEEEEELm8ELm8ELb1EEESN_E7ProcessEPNS2_23CmifDomainClientMessageISB_E15ProxyBaseObjectENS2_24OutRawClientArgumentTypeILm4ELm4EEESV_NS2_23InRawClientArgumentTypeILm8ELm8EvEENS2_24BufferClientArgumentTypeEj
 00000000:00000071000A4900       _ZN2nn2sf4cmif6client34CmifDomainProxyClientCoreProcessorINS0_4hipc6client38Hipc2ClientSessionManagedProxyKindBaseINS5_18Hipc2ProxyKindBaseILNS4_6detail11MessageTypeE4EEEEENS1_6detail14CoreMethodInfoINSt3__15tupleIJNSC_18OutRawArgumentInfoILm4ELm4ELl0EEENSG_ILm4ELm4ELl4EEENSC_17InRawArgumentInfoILm4ELm4ELl0EEENSC_18BufferArgumentInfoILi0ELi34ELm0EEENSJ_ILm4ELm4ELl4EEENSJ_ILm4ELm4ELl8EEENSJ_ILm16ELm8ELl16EEEEEELm32ELm8ELb0EEESQ_E7ProcessEPNS2_23CmifDomainClientMessageISB_E15ProxyBaseObjectENS2_24OutRawClientArgumentTypeILm4ELm4EEESY_NS2_23InRawClientArgumentTypeILm4ELm4EvEENS2_24BufferClientArgumentTypeES10_S10_NSZ_ILm16ELm8EvEEj
 00000000:00000071000A4B18       _ZN2nn2sf4cmif6client34CmifDomainProxyClientCoreProcessorINS0_4hipc6client38Hipc2ClientSessionManagedProxyKindBaseINS5_18Hipc2ProxyKindBaseILNS4_6detail11MessageTypeE4EEEEENS1_6detail14CoreMethodInfoINSt3__15tupleIJNSC_18OutRawArgumentInfoILm4ELm4ELl0EEENSG_ILm4ELm4ELl4EEENSC_17InRawArgumentInfoILm4ELm4ELl0EEENSC_18BufferArgumentInfoILi0ELi33ELm0EEENSJ_ILm4ELm4ELl4EEENSL_ILi1ELi33ELm0EEENSJ_ILm4ELm4ELl8EEEEEELm12ELm8ELb0EEESQ_E7ProcessEPNS2_23CmifDomainClientMessageISB_E15ProxyBaseObjectENS2_24OutRawClientArgumentTypeILm4ELm4EEESY_NS2_23InRawClientArgumentTypeILm4ELm4EvEENS2_24BufferClientArgumentTypeES10_S11_S10_j
 00000000:00000071000A4E9C       _ZN2nn6socket6detail10socketNtoaE7in_addr
 00000000:00000071000A4EE4       _ZN2nn6socket6detail11socketNtoaRE7in_addrPcm
 00000000:00000071000A4F2C       _ZN2nn6socket6detail10socketNtopEiPKvPcj
 00000000:00000071000A4FD4       _ZN2nn6socket6detail10socketPtonEiPKcPv
 00000000:00000071000A5184       _ZN2nn6socket8resolver3tls17GetHeapGenerationEPNS2_30ResolverThreadLocalStoragePairE
 00000000:00000071000A518C       _ZN2nn6socket8resolver3tls17GetTlsPairPointerERPNS2_30ResolverThreadLocalStoragePairE
 00000000:00000071000A519C       _ZN2nn6socket8resolver3tls23AddGenerationToTlsValueERPNS2_30ResolverThreadLocalStoragePairE
 00000000:00000071000A51CC       _ZN2nn6socket8resolver3tls16GetCreateTLSPairERPNS2_30ResolverThreadLocalStoragePairE
 00000000:00000071000A5298       _ZN2nn6socket8resolver3tls19TlsDestructFunctionEm
 00000000:00000071000A5314       _ZN2nn6socket8resolver3tls10InitializeEv
 00000000:00000071000A537C       _ZN2nn6socket8resolver3tls8FinalizeEv
 00000000:00000071000A5384       _ZN2nn6socket8resolver3tls12GetServerTLSERPv
 00000000:00000071000A53C8       _ZN2nn6socket8resolver3tls12SetServerTLSEPFvPvES3_
 00000000:00000071000A5440       _ZN2nn6socket8resolver3tls12GetClientTLSERPv
 00000000:00000071000A5484       _ZN2nn6socket8resolver3tls12SetClientTLSEPFvPvES3_
 00000000:00000071000A54F8       nnResolverGetspecificPrivate
 00000000:00000071000A5530       nnResolverSetspecificPrivate
 00000000:00000071000A55A8       _ZN2nn6socket8resolver9GetOptionENS1_6Option4typeERm
 00000000:00000071000A5614       _ZN2nn6socket8resolver9SetOptionENS1_6Option4typeEm
 00000000:00000071000A5678       _ZN2nn6socket8resolver33WaitForAllResolverCallsToCompleteEv
 00000000:00000071000A56CC       _ZN2nn6socket8resolver20DisableResolverCallsEv
 00000000:00000071000A56EC       _ZN2nn6socket8resolver19EnableResolverCallsEv
 00000000:00000071000A572C       _ZN2nn6socket8resolver23AreResolverCallsEnabledEv
 00000000:00000071000A5744       _ZN2nn6socket8resolver16InitializeClientEv
 00000000:00000071000A57B4       _ZN2nn6socket8resolver14FinalizeClientEv
 00000000:00000071000A5814       _ZN2nn6socket8resolver22SetDnsAddressesPrivateEP11sockaddr_inm
 00000000:00000071000A581C       _ZN2nn6socket8resolver20GetDnsAddressPrivateEjR11sockaddr_in
 00000000:00000071000A5824       _ZN2nn6socket8resolver13GetHostByNameEPKci
 00000000:00000071000A5AF4       _ZN2nn6socket8resolver13GetHostByNameEPKc
 00000000:00000071000A5B00       _ZN2nn6socket8resolver30GetHostByNameWithoutNsdResolveEPKci
 00000000:00000071000A5B08       _ZN2nn6socket8resolver30GetHostByNameWithoutNsdResolveEPKc
 00000000:00000071000A5B14       _ZN2nn6socket8resolver13GetHostByAddrEPKvjj
 00000000:00000071000A5B1C       _ZN2nn6socket8resolver13GetHostByAddrEPKvjji_1
 00000000:00000071000A5DCC       _ZN2nn6socket8resolver13GetHostByAddrEPKvjji
 00000000:00000071000A5DD0       _ZN2nn6socket8resolver18GetHostStringErrorEj
 00000000:00000071000A5FBC       _ZN2nn6socket8resolver17GetGaiStringErrorEj
 00000000:00000071000A61A8       _ZN2nn6socket8resolver11GetAddrInfoEPKcS3_PK8addrinfoPPS4_
 00000000:00000071000A6564       _ZN2nn6socket8resolver11GetAddrInfoEPKcS3_PK8addrinfoPPS4_i
 00000000:00000071000A656C       _ZN2nn6socket8resolver28GetAddrInfoWithoutNsdResolveEPKcS3_PK8addrinfoPPS4_
 00000000:00000071000A6578       _ZN2nn6socket8resolver28GetAddrInfoWithoutNsdResolveEPKcS3_PK8addrinfoPPS4_i
 00000000:00000071000A6580       _ZN2nn6socket8resolver11GetNameInfoEPK8sockaddrjPcmS5_mi
 00000000:00000071000A6588       _ZN2nn6socket8resolver11GetNameInfoEPK8sockaddrjPcmS5_mii_1
 00000000:00000071000A6770       _ZN2nn6socket8resolver11GetNameInfoEPK8sockaddrjPcmS5_mii
 00000000:00000071000A6774       _ZN2nn6socket8resolver19RequestCancelHandleEv
 00000000:00000071000A6798       _ZN2nn6socket8resolver16CancelSocketCallEi
 00000000:00000071000A693C       _ZN2nn6socket8resolver3tls6Client29ClientThreadLocalStorage_dtorEPv
 00000000:00000071000A69A4       _ZN2nn6socket8resolver3tls6Client10InitializeEv
 00000000:00000071000A69BC       _ZN2nn6socket8resolver3tls6Client18GetCreateClientTLSERPv
 00000000:00000071000A6A98       _ZN2nn6socket8resolver3tls6Client8FinalizeEv
 00000000:00000071000A6AB0       _ZN2nn6socket8resolver3tls6Client17InternalHostErrnoEv
 00000000:00000071000A6AEC       _ZN2nn6socket8resolver3tls6Client17GetCurrentHostentEv
 00000000:00000071000A6B28       _ZN2nn6socket8resolver3tls6Client17SetCurrentHostentEP7hostent
 00000000:00000071000A6B90       _ZN2nn6socket8resolver3tls6Client22GetCurrentHErrorStringEv
 00000000:00000071000A6BCC       _ZN2nn6socket8resolver3tls6Client22SetCurrentHErrorStringEPKc
 00000000:00000071000A6C5C       _ZN2nn6socket8resolver3tls6Client24GetCurrentGaiErrorStringEv
 00000000:00000071000A6C98       _ZN2nn6socket8resolver3tls6Client24SetCurrentGaiErrorStringEPKc
 00000000:00000071000A6D28       _ZN2nn6socket8resolver20CreateResolverByHipcERNS_2sf13SharedPointerINS1_9IResolverEEE
 00000000:00000071000A7164       _ZN2nn2sf4hipc6client24Hipc2ClientCoreProcessorILNS1_6detail11MessageTypeE4ENS0_4cmif6detail14CoreMethodInfoINSt3__15tupleIJNS7_18BufferArgumentInfoILi0ELi5ELm0EEENS7_17InRawArgumentInfoILm4ELm4ELl0EEEEEELm4ELm0ELb0EEESF_E7ProcessEPNS2_26Hipc2ClientProxyBaseObjectENS6_6client24BufferClientArgumentTypeENSK_23InRawClientArgumentTypeILm4ELm4EvEEj
 00000000:00000071000A72C4       _ZN2nn2sf4hipc6client24Hipc2ClientCoreProcessorILNS1_6detail11MessageTypeE4ENS0_4cmif6detail14CoreMethodInfoINSt3__15tupleIJNS7_17InRawArgumentInfoILm4ELm4ELl0EEENS7_18BufferArgumentInfoILi0ELi6ELm0EEEEEELm4ELm0ELb0EEESF_E7ProcessEPNS2_26Hipc2ClientProxyBaseObjectENS6_6client23InRawClientArgumentTypeILm4ELm4EvEENSK_24BufferClientArgumentTypeEj
 00000000:00000071000A7424       _ZN2nn2sf4hipc6client24Hipc2ClientCoreProcessorILNS1_6detail11MessageTypeE4ENS0_4cmif6detail14CoreMethodInfoINSt3__15tupleIJNS7_17InRawArgumentInfoILm4ELm4ELl4EEENSB_ILm8ELm8ELl8EEENSB_ILm1ELm1ELl0EEENS7_18BufferArgumentInfoILi0ELi5ELm0EEENS7_18OutRawArgumentInfoILm4ELm4ELl0EEENSH_ILm4ELm4ELl4EEENSF_ILi1ELi6ELm0EEENSH_ILm4ELm4ELl8EEEEEELm16ELm12ELb1EEESM_E7ProcessEPNS2_26Hipc2ClientProxyBaseObjectENS6_6client23InRawClientArgumentTypeILm4ELm4EvEENSS_ILm8ELm8EvEENSS_ILm1ELm1EvEENSR_24BufferClientArgumentTypeENSR_24OutRawClientArgumentTypeILm4ELm4EEESY_SW_SY_j
 00000000:00000071000A75E4       _ZN2nn2sf4hipc6client24Hipc2ClientCoreProcessorILNS1_6detail11MessageTypeE4ENS0_4cmif6detail14CoreMethodInfoINSt3__15tupleIJNS7_17InRawArgumentInfoILm4ELm4ELl0EEENSB_ILm8ELm8ELl16EEENS7_18BufferArgumentInfoILi0ELi5ELm0EEENSB_ILm4ELm4ELl4EEENSB_ILm4ELm4ELl8EEENS7_18OutRawArgumentInfoILm4ELm4ELl0EEENSI_ILm4ELm4ELl4EEENSE_ILi1ELi6ELm0EEENSI_ILm4ELm4ELl8EEEEEELm24ELm12ELb1EEESN_E7ProcessEPNS2_26Hipc2ClientProxyBaseObjectENS6_6client23InRawClientArgumentTypeILm4ELm4EvEENST_ILm8ELm8EvEENSS_24BufferClientArgumentTypeESU_SU_NSS_24OutRawClientArgumentTypeILm4ELm4EEESY_SW_SY_j
 00000000:00000071000A77A8       _ZN2nn2sf4hipc6client24Hipc2ClientCoreProcessorILNS1_6detail11MessageTypeE4ENS0_4cmif6detail14CoreMethodInfoINSt3__15tupleIJNS7_17InRawArgumentInfoILm4ELm4ELl4EEENSB_ILm8ELm8ELl8EEENSB_ILm1ELm1ELl0EEENS7_18BufferArgumentInfoILi0ELi5ELm0EEENSF_ILi1ELi5ELm0EEENSF_ILi2ELi5ELm0EEENSF_ILi3ELi6ELm0EEENS7_18OutRawArgumentInfoILm4ELm4ELl0EEENSK_ILm4ELm4ELl4EEENSK_ILm4ELm4ELl8EEEEEELm16ELm12ELb1EEESO_E7ProcessEPNS2_26Hipc2ClientProxyBaseObjectENS6_6client23InRawClientArgumentTypeILm4ELm4EvEENSU_ILm8ELm8EvEENSU_ILm1ELm1EvEENST_24BufferClientArgumentTypeESY_SY_SY_NST_24OutRawClientArgumentTypeILm4ELm4EEES10_S10_j
 00000000:00000071000A7988       _ZN2nn2sf4hipc6client24Hipc2ClientCoreProcessorILNS1_6detail11MessageTypeE4ENS0_4cmif6detail14CoreMethodInfoINSt3__15tupleIJNS7_17InRawArgumentInfoILm4ELm4ELl0EEENSB_ILm8ELm8ELl8EEENS7_18BufferArgumentInfoILi0ELi5ELm0EEENSE_ILi1ELi6ELm0EEENSE_ILi2ELi6ELm0EEENSB_ILm4ELm4ELl4EEENS7_18OutRawArgumentInfoILm4ELm4ELl0EEENSJ_ILm4ELm4ELl4EEEEEELm16ELm8ELb1EEESM_E7ProcessEPNS2_26Hipc2ClientProxyBaseObjectENS6_6client23InRawClientArgumentTypeILm4ELm4EvEENSS_ILm8ELm8EvEENSR_24BufferClientArgumentTypeESV_SV_ST_NSR_24OutRawClientArgumentTypeILm4ELm4EEESX_j
 00000000:00000071000A7B40       _ZN2nn2sf4hipc6client24Hipc2ClientCoreProcessorILNS1_6detail11MessageTypeE4ENS0_4cmif6detail14CoreMethodInfoINSt3__15tupleIJNS7_17InRawArgumentInfoILm8ELm8ELl0EEENS7_18OutRawArgumentInfoILm4ELm4ELl0EEEEEELm8ELm4ELb1EEESF_E7ProcessEPNS2_26Hipc2ClientProxyBaseObjectENS6_6client23InRawClientArgumentTypeILm8ELm8EvEENSK_24OutRawClientArgumentTypeILm4ELm4EEEj
 00000000:00000071000A7C4C       _ZN2nn2sf4hipc6client24Hipc2ClientCoreProcessorILNS1_6detail11MessageTypeE4ENS0_4cmif6detail14CoreMethodInfoINSt3__15tupleIJNS7_17InRawArgumentInfoILm8ELm8ELl8EEENSB_ILm4ELm4ELl0EEEEEELm16ELm0ELb1EEESE_E7ProcessEPNS2_26Hipc2ClientProxyBaseObjectENS6_6client23InRawClientArgumentTypeILm8ELm8EvEENSK_ILm4ELm4EvEEj
 00000000:00000071000A7D9C       _ZN2nn6socket8resolver10serializer20FreeAddrinfoContentsER8addrinfo
 00000000:00000071000A7E0C       _ZN2nn6socket8resolver10serializer20AddrInfoSingleSizeOfEPK8addrinfo
 00000000:00000071000A7EB0       _ZN2nn6socket8resolver10serializer13DNSSerializer6SizeOfI8addrinfoEEmRKT_
 00000000:00000071000A7F6C       _ZN2nn6socket8resolver10serializer13DNSSerializer16ToBufferInternalI8addrinfoEElPhmRKT_
 00000000:00000071000A8180       _ZN2nn6socket8resolver10serializer13DNSSerializer8ToBufferI8addrinfoEElPhmRKT_
 00000000:00000071000A82C0       _ZN2nn6socket8resolver10serializer13DNSSerializer18FromBufferInternalI8addrinfoEElRT_PKhm
 00000000:00000071000A85C8       _ZN2nn6socket8resolver10serializer13DNSSerializer10FromBufferI8addrinfoEElRT_PKhm
 00000000:00000071000A86F4       _ZN2nn6socket8resolver10serializer13DNSSerializer6SizeOfIcEEmPKT_
 00000000:00000071000A8718       _ZN2nn6socket8resolver10serializer13DNSSerializer6SizeOfIcEEmPPKT_Rj
 00000000:00000071000A8794       _ZN2nn6socket8resolver10serializer13DNSSerializer8ToBufferIcEElPhmPT_
 00000000:00000071000A8830       _ZN2nn6socket8resolver10serializer13DNSSerializer10FromBufferIcEElRPT_PKhm
 00000000:00000071000A88B4       _ZN2nn6socket8resolver10serializer13DNSSerializer8ToBufferIcEElPhmPPT_
 00000000:00000071000A89FC       _ZN2nn6socket8resolver10serializer13DNSSerializer10FromBufferIcEElRPPT_PKhm
 00000000:00000071000A8B64       _ZN2nn6socket8resolver10serializer19FreeHostentContentsER7hostent
 00000000:00000071000A8C20       _ZN2nn6socket8resolver10serializer13DNSSerializer6SizeOfI7hostentEEmRKT_
 00000000:00000071000A8C90       _ZN2nn6socket8resolver10serializer13DNSSerializer10FromBufferI7hostentEElRT_PKhm
 00000000:00000071000A8DA8       _ZN2nn6socket8resolver10serializer13DNSSerializer8ToBufferI7hostentEElPhmRKT_
 00000000:00000071000A8F6C       _ZN2nn6socket8resolver10serializer13DNSSerializer6SizeOfI7in_addrEEmRKT_
 00000000:00000071000A8F74       _ZN2nn6socket8resolver10serializer13DNSSerializer6SizeOfI7in_addrEEmPPKT_Rj
 00000000:00000071000A8FAC       _ZN2nn6socket8resolver10serializer13DNSSerializer8ToBufferI7in_addrEElPhmRKT_
 00000000:00000071000A9014       _ZN2nn6socket8resolver10serializer13DNSSerializer10FromBufferI7in_addrEElRT_PKhm
 00000000:00000071000A9054       _ZN2nn6socket8resolver10serializer13DNSSerializer8ToBufferI7in_addrEElPhmPPT_
 00000000:00000071000A91B4       _ZN2nn6socket8resolver10serializer13DNSSerializer10FromBufferI7in_addrEElRPPT_PKhm
 00000000:00000071000A9348       _ZN2nn6socket8resolver10serializer13DNSSerializer6SizeOfI11sockaddr_inEEmRKT_
 00000000:00000071000A9364       _ZN2nn6socket8resolver10serializer13DNSSerializer8ToBufferI11sockaddr_inEElPhmRKT_
 00000000:00000071000A944C       _ZN2nn6socket8resolver10serializer13DNSSerializer10FromBufferI11sockaddr_inEElRT_PKhm
 00000000:00000071000A9514       _ZN2nn6socket8resolver10serializer13DNSSerializer6SizeOfI12sockaddr_in6EEmRKT_
 00000000:00000071000A951C       _ZN2nn6socket8resolver10serializer13DNSSerializer8ToBufferI12sockaddr_in6EElPhmRKT_
 00000000:00000071000A9634       _ZN2nn6socket8resolver10serializer13DNSSerializer10FromBufferI12sockaddr_in6EElRT_PKhm
 00000000:00000071000A972C       _ZN2nn6socket8resolver10serializer13DNSSerializer10FromBufferItEElRT_PKhm
 00000000:00000071000A9768       _ZN2nn6socket8resolver10serializer13DNSSerializer8ToBufferItEElPhmRKT_
 00000000:00000071000A97D0       _ZN2nn6socket8resolver10serializer13DNSSerializer10FromBufferIjEElRT_PKhm
 00000000:00000071000A980C       _ZN2nn6socket8resolver10serializer13DNSSerializer8ToBufferIjEElPhmRKT_
 00000000:00000071000A9874       _ZN2nn6socket8resolver10serializer13DNSSerializer7hexdumpEPKcPKhl
 00000000:00000071000A9878       _ZN2nn6socket8resolver10serializer13DNSSerializer22CheckToBufferArgumentsEPKhmmi
 00000000:00000071000A9894       _ZN2nn6socket8resolver10serializer13DNSSerializer12InternalHtonERKj
 00000000:00000071000A989C       _ZN2nn6socket8resolver10serializer13DNSSerializer12InternalHtonERKt
 00000000:00000071000A98A4       _ZN2nn6socket8resolver10serializer13DNSSerializer12InternalNtohERKj
 00000000:00000071000A98AC       _ZN2nn6socket8resolver10serializer13DNSSerializer12InternalNtohERKt
 00000000:00000071000A98B4       _ZN2nn6socket8resolver14CreateRandomIdERj
 00000000:00000071000A996C       _ZN2nn6socket8resolver23GetOperationStateStringERKNS1_14OperationStateEb
 00000000:00000071000A99B0       _ZNSt3__124uniform_int_distributionIjEclINS_23mersenne_twister_engineIjLm32ELm624ELm397ELm31ELj2567483615ELm11ELj4294967295ELm7ELj2636928640ELm15ELj4022730752ELm18ELj1812433253EEEEEjRT_RKNS1_10param_typeE
 00000000:00000071000A9B70       _ZN2nn6socket6detail13GetHostByNameEPKc
 00000000:00000071000A9B74       _ZN2nn6socket6detail13GetHostByNameEPKci
 00000000:00000071000A9B78       _ZN2nn6socket6detail30GetHostByNameWithoutNsdResolveEPKc
 00000000:00000071000A9B7C       _ZN2nn6socket6detail30GetHostByNameWithoutNsdResolveEPKci
 00000000:00000071000A9B80       _ZN2nn6socket6detail13GetHostByAddrEPKvji
 00000000:00000071000A9B84       _ZN2nn6socket6detail13GetHostByAddrEPKvjii
 00000000:00000071000A9B88       _ZN2nn6socket6detail9HStrErrorEi
 00000000:00000071000A9B8C       _ZN2nn6socket6detail11GAIStrErrorEi
 00000000:00000071000A9B90       _ZN2nn6socket6detail11GetAddrInfoEPKcS3_PK8addrinfoPPS4_
 00000000:00000071000A9B94       _ZN2nn6socket6detail11GetAddrInfoEPKcS3_PK8addrinfoPPS4_i
 00000000:00000071000A9B98       _ZN2nn6socket6detail28GetAddrInfoWithoutNsdResolveEPKcS3_PK8addrinfoPPS4_
 00000000:00000071000A9B9C       _ZN2nn6socket6detail28GetAddrInfoWithoutNsdResolveEPKcS3_PK8addrinfoPPS4_i
 00000000:00000071000A9BA0       _ZN2nn6socket6detail11GetNameInfoEPK8sockaddrjPcjS5_ji
 00000000:00000071000A9BAC       _ZN2nn6socket6detail11GetNameInfoEPK8sockaddrjPcjS5_jii
 00000000:00000071000A9BB8       _ZN2nn6socket6detail19RequestCancelHandleEv
 00000000:00000071000A9BBC       _ZN2nn6socket6detail6CancelEi
 00000000:00000071000A9BC0       _ZN2nn6socket6detail12FreeAddrInfoEP8addrinfo
 00000000:00000071000A9BF8       _ZN2nn6socket6detail9GetHErrnoEv
 00000000:00000071000A9C0C       _ZN2nn3svc7aarch644lp6411SetHeapSizeEPmm
 00000000:00000071000A9C24       _ZN2nn3svc7aarch644lp6419SetMemoryPermissionEmmNS0_16MemoryPermissionE
 00000000:00000071000A9C2C       _ZN2nn3svc7aarch644lp6418SetMemoryAttributeEmmjj
 00000000:00000071000A9C34       _ZN2nn3svc7aarch644lp649MapMemoryEmmm
 00000000:00000071000A9C3C       _ZN2nn3svc7aarch644lp6411UnmapMemoryEmmm
 00000000:00000071000A9C44       _ZN2nn3svc7aarch644lp6411QueryMemoryEPNS0_4lp6410MemoryInfoEPNS0_8PageInfoEm
 00000000:00000071000A9C5C       _ZN2nn3svc7aarch644lp6411ExitProcessEv
 00000000:00000071000A9C64       _ZN2nn3svc7aarch644lp6412CreateThreadEPNS0_6HandleEmmmii
 00000000:00000071000A9C7C       _ZN2nn3svc7aarch644lp6411StartThreadENS0_6HandleE
 00000000:00000071000A9C84       _ZN2nn3svc7aarch644lp6410ExitThreadEv
 00000000:00000071000A9C8C       _ZN2nn3svc7aarch644lp6411SleepThreadEl
 00000000:00000071000A9C94       _ZN2nn3svc7aarch644lp6417GetThreadPriorityEPiNS0_6HandleE
 00000000:00000071000A9CAC       _ZN2nn3svc7aarch644lp6417SetThreadPriorityENS0_6HandleEi
 00000000:00000071000A9CB4       _ZN2nn3svc7aarch644lp6417GetThreadCoreMaskEPiPmNS0_6HandleE
 00000000:00000071000A9CD4       _ZN2nn3svc7aarch644lp6417SetThreadCoreMaskENS0_6HandleEim
 00000000:00000071000A9CDC       _ZN2nn3svc7aarch644lp6425GetCurrentProcessorNumberEv
 00000000:00000071000A9CE4       _ZN2nn3svc7aarch644lp6411SignalEventENS0_6HandleE
 00000000:00000071000A9CEC       _ZN2nn3svc7aarch644lp6410ClearEventENS0_6HandleE
 00000000:00000071000A9CF4       _ZN2nn3svc7aarch644lp6415MapSharedMemoryENS0_6HandleEmmNS0_16MemoryPermissionE
 00000000:00000071000A9CFC       _ZN2nn3svc7aarch644lp6417UnmapSharedMemoryENS0_6HandleEmm
 00000000:00000071000A9D04       _ZN2nn3svc7aarch644lp6420CreateTransferMemoryEPNS0_6HandleEmmNS0_16MemoryPermissionE
 00000000:00000071000A9D1C       _ZN2nn3svc7aarch644lp6411CloseHandleENS0_6HandleE
 00000000:00000071000A9D24       _ZN2nn3svc7aarch644lp6411ResetSignalENS0_6HandleE
 00000000:00000071000A9D2C       _ZN2nn3svc7aarch644lp6419WaitSynchronizationEPiPKNS0_6HandleEil
 00000000:00000071000A9D44       _ZN2nn3svc7aarch644lp6421CancelSynchronizationENS0_6HandleE
 00000000:00000071000A9D4C       _ZN2nn3svc7aarch644lp6413ArbitrateLockENS0_6HandleEmj
 00000000:00000071000A9D54       _ZN2nn3svc7aarch644lp6415ArbitrateUnlockEm
 00000000:00000071000A9D5C       _ZN2nn3svc7aarch644lp6424WaitProcessWideKeyAtomicEmmjl
 00000000:00000071000A9D64       _ZN2nn3svc7aarch644lp6420SignalProcessWideKeyEmi
 00000000:00000071000A9D6C       _ZN2nn3svc7aarch644lp6413GetSystemTickEv
 00000000:00000071000A9D74       _ZN2nn3svc7aarch644lp6418ConnectToNamedPortEPNS0_6HandleEPKc
 00000000:00000071000A9D8C       _ZN2nn3svc7aarch644lp6420SendSyncRequestLightENS0_6HandleE
 00000000:00000071000A9D94       _ZN2nn3svc7aarch644lp6415SendSyncRequestENS0_6HandleE
 00000000:00000071000A9D9C       _ZN2nn3svc7aarch644lp6429SendSyncRequestWithUserBufferEmmNS0_6HandleE
 00000000:00000071000A9DA4       _ZN2nn3svc7aarch644lp6430SendAsyncRequestWithUserBufferEPNS0_6HandleEmmS3_
 00000000:00000071000A9DBC       _ZN2nn3svc7aarch644lp6412GetProcessIdEPmNS0_6HandleE
 00000000:00000071000A9DD4       _ZN2nn3svc7aarch644lp6411GetThreadIdEPmNS0_6HandleE
 00000000:00000071000A9DEC       _ZN2nn3svc7aarch644lp645BreakENS0_11BreakReasonEmm
 00000000:00000071000A9DF4       _ZN2nn3svc7aarch644lp6417OutputDebugStringEPKcm
 00000000:00000071000A9DFC       _ZN2nn3svc7aarch644lp6419ReturnFromExceptionENS_6ResultE
 00000000:00000071000A9E04       _ZN2nn3svc7aarch644lp647GetInfoEPmNS0_8InfoTypeENS0_6HandleEm
 00000000:00000071000A9E1C       _ZN2nn3svc7aarch644lp6420FlushEntireDataCacheEv
 00000000:00000071000A9E24       _ZN2nn3svc7aarch644lp6414FlushDataCacheEmm
 00000000:00000071000A9E2C       _ZN2nn3svc7aarch644lp6417MapPhysicalMemoryEmm
 00000000:00000071000A9E34       _ZN2nn3svc7aarch644lp6419UnmapPhysicalMemoryEmm
 00000000:00000071000A9E3C       _ZN2nn3svc7aarch644lp6417GetLastThreadInfoEPNS0_4lp6417LastThreadContextEPmPj
 00000000:00000071000A9E74       _ZN2nn3svc7aarch644lp6426GetResourceLimitLimitValueEPlNS0_6HandleENS0_17LimitableResourceE
 00000000:00000071000A9E8C       _ZN2nn3svc7aarch644lp6428GetResourceLimitCurrentValueEPlNS0_6HandleENS0_17LimitableResourceE
 00000000:00000071000A9EA4       _ZN2nn3svc7aarch644lp6417SetThreadActivityENS0_6HandleENS0_14ThreadActivityE
 00000000:00000071000A9EAC       _ZN2nn3svc7aarch644lp6417GetThreadContext3EPNS0_13ThreadContextENS0_6HandleE
 00000000:00000071000A9EB4       _ZN2nn3svc7aarch644lp648DumpInfoENS0_12DumpInfoTypeEm
 00000000:00000071000A9EBC       _ZN2nn3svc7aarch644lp6417ReadWriteRegisterEPjmjj
 00000000:00000071000A9ED4       _ZN2nn3svc7aarch644lp6418SetProcessActivityENS0_6HandleENS0_15ProcessActivityE
 00000000:00000071000A9EDC       _ZN2nn3svc7aarch644lp6418CreateSharedMemoryEPNS0_6HandleEmNS0_16MemoryPermissionES5_
 00000000:00000071000A9EF4       _ZN2nn3svc7aarch644lp6417MapTransferMemoryENS0_6HandleEmmNS0_16MemoryPermissionE
 00000000:00000071000A9EFC       _ZN2nn3svc7aarch644lp6419UnmapTransferMemoryENS0_6HandleEmm
 00000000:00000071000A9F04       _ZN2nn3svc7aarch644lp6420CreateInterruptEventEPNS0_6HandleENS0_9InterruptENS0_13InterruptTypeE
 00000000:00000071000A9F1C       _ZN2nn3svc7aarch644lp6420QueryPhysicalAddressEPNS0_4lp6418PhysicalMemoryInfoEm
 00000000:00000071000A9F3C       _ZN2nn3svc7aarch644lp6414QueryIoMappingEPmmm
 00000000:00000071000A9F54       _ZN2nn3svc7aarch644lp6424CreateDeviceAddressSpaceEPNS0_6HandleEmm
 00000000:00000071000A9F6C       _ZN2nn3svc7aarch644lp6424AttachDeviceAddressSpaceENS0_10DeviceNameENS0_6HandleE
 00000000:00000071000A9F74       _ZN2nn3svc7aarch644lp6424DetachDeviceAddressSpaceENS0_10DeviceNameENS0_6HandleE
 00000000:00000071000A9F7C       _ZN2nn3svc7aarch644lp6428MapDeviceAddressSpaceByForceENS0_6HandleES3_mmmNS0_16MemoryPermissionE
 00000000:00000071000A9F84       _ZN2nn3svc7aarch644lp6428MapDeviceAddressSpaceAlignedENS0_6HandleES3_mmmNS0_16MemoryPermissionE
 00000000:00000071000A9F8C       _ZN2nn3svc7aarch644lp6421MapDeviceAddressSpaceEPmNS0_6HandleES4_mmmNS0_16MemoryPermissionE
 00000000:00000071000A9FA4       _ZN2nn3svc7aarch644lp6423UnmapDeviceAddressSpaceENS0_6HandleES3_mmm
 00000000:00000071000A9FAC       _ZN2nn3svc7aarch644lp6426InvalidateProcessDataCacheENS0_6HandleEmm
 00000000:00000071000A9FB4       _ZN2nn3svc7aarch644lp6421StoreProcessDataCacheENS0_6HandleEmm
 00000000:00000071000A9FBC       _ZN2nn3svc7aarch644lp6421FlushProcessDataCacheENS0_6HandleEmm
 00000000:00000071000A9FC4       _ZN2nn3svc7aarch644lp6418DebugActiveProcessEPNS0_6HandleEm
 00000000:00000071000A9FDC       _ZN2nn3svc7aarch644lp6417BreakDebugProcessENS0_6HandleE
 00000000:00000071000A9FE4       _ZN2nn3svc7aarch644lp6421TerminateDebugProcessENS0_6HandleE
 00000000:00000071000A9FEC       _ZN2nn3svc7aarch644lp6413GetDebugEventEPNS0_4lp6414DebugEventInfoENS0_6HandleE
 00000000:00000071000A9FF4       _ZN2nn3svc7aarch644lp6418ContinueDebugEventENS0_6HandleEjPKmi
 00000000:00000071000A9FFC       _ZN2nn3svc7aarch644lp6414GetProcessListEPiPmi
 00000000:00000071000AA014       _ZN2nn3svc7aarch644lp6413GetThreadListEPiPmiNS0_6HandleE
 00000000:00000071000AA02C       _ZN2nn3svc7aarch644lp6421GetDebugThreadContextEPNS0_13ThreadContextENS0_6HandleEmj
 00000000:00000071000AA034       _ZN2nn3svc7aarch644lp6421SetDebugThreadContextENS0_6HandleEmRKNS0_13ThreadContextEj
 00000000:00000071000AA03C       _ZN2nn3svc7aarch644lp6423QueryDebugProcessMemoryEPNS0_4lp6410MemoryInfoEPNS0_8PageInfoENS0_6HandleEm
 00000000:00000071000AA054       _ZN2nn3svc7aarch644lp6422ReadDebugProcessMemoryEmNS0_6HandleEmm
 00000000:00000071000AA05C       _ZN2nn3svc7aarch644lp6423WriteDebugProcessMemoryENS0_6HandleEmmm
 00000000:00000071000AA064       _ZN2nn3svc7aarch644lp6421SetHardwareBreakPointENS0_30HardwareBreakPointRegisterNameEmm
 00000000:00000071000AA06C       _ZN2nn3svc7aarch644lp6419GetDebugThreadParamEPmPjNS0_6HandleEmNS0_16DebugThreadParamE
 00000000:00000071000AA08C       _ZN2nn3svc7aarch644lp6413CreateSessionEPNS0_6HandleES4_bm
 00000000:00000071000AA0AC       _ZN2nn3svc7aarch644lp6413AcceptSessionEPNS0_6HandleES3_
 00000000:00000071000AA0C4       _ZN2nn3svc7aarch644lp6420ReplyAndReceiveLightENS0_6HandleE
 00000000:00000071000AA0CC       _ZN2nn3svc7aarch644lp6415ReplyAndReceiveEPiPKNS0_6HandleEiS4_l
 00000000:00000071000AA0E4       _ZN2nn3svc7aarch644lp6429ReplyAndReceiveWithUserBufferEPimmPKNS0_6HandleEiS4_l
 00000000:00000071000AA0FC       _ZN2nn3svc7aarch644lp6411CreateEventEPNS0_6HandleES4_
 00000000:00000071000AA11C       _ZN2nn3svc7aarch644lp6411SleepSystemEv
 00000000:00000071000AA124       _ZN2nn3svc7aarch644lp6410CreatePortEPNS0_6HandleES4_ibm
 00000000:00000071000AA144       _ZN2nn3svc7aarch644lp6415ManageNamedPortEPNS0_6HandleEPKci
 00000000:00000071000AA15C       _ZN2nn3svc7aarch644lp6413ConnectToPortEPNS0_6HandleES3_
 00000000:00000071000AA174       _ZN2nn3svc7aarch644lp6426SetProcessMemoryPermissionENS0_6HandleEmmNS0_16MemoryPermissionE
 00000000:00000071000AA17C       _ZN2nn3svc7aarch644lp6416MapProcessMemoryEmNS0_6HandleEmm
 00000000:00000071000AA184       _ZN2nn3svc7aarch644lp6418UnmapProcessMemoryEmNS0_6HandleEmm
 00000000:00000071000AA18C       _ZN2nn3svc7aarch644lp6418QueryProcessMemoryEPNS0_4lp6410MemoryInfoEPNS0_8PageInfoENS0_6HandleEm
 00000000:00000071000AA1A4       _ZN2nn3svc7aarch644lp6420MapProcessCodeMemoryENS0_6HandleEmmm
 00000000:00000071000AA1AC       _ZN2nn3svc7aarch644lp6422UnmapProcessCodeMemoryENS0_6HandleEmmm
 00000000:00000071000AA1B4       _ZN2nn3svc7aarch644lp6413CreateProcessEPNS0_6HandleERKNS0_4lp6422CreateProcessParameterEPKji
 00000000:00000071000AA1CC       _ZN2nn3svc7aarch644lp6412StartProcessENS0_6HandleEiim
 00000000:00000071000AA1D4       _ZN2nn3svc7aarch644lp6416TerminateProcessENS0_6HandleE
 00000000:00000071000AA1DC       _ZN2nn3svc7aarch644lp6414GetProcessInfoEPlNS0_6HandleENS0_15ProcessInfoTypeE
 00000000:00000071000AA1F4       _ZN2nn3svc7aarch644lp6419CreateResourceLimitEPNS0_6HandleE
 00000000:00000071000AA20C       _ZN2nn3svc7aarch644lp6426SetResourceLimitLimitValueENS0_6HandleENS0_17LimitableResourceEl
 00000000:00000071000AA214       _ZN2nn3svc7aarch644lp6417CallSecureMonitorEv
 00000000:00000071000AA21C       _ZN2nn4util20GenerateUuidVersion5EPKv
 00000000:00000071000AA280       _ZN2nn4util12GenerateUuidEv
 00000000:00000071000AA318       _ZNK2nn7account10UiSettings9GetUiModeEv
 00000000:00000071000AA344       _ZNK2nn7account10UiSettings35GetNintendoAccountStartupDialogTypeEv
 00000000:00000071000AA370       _ZN2nn7account25ShowUserSelectorForSystemEPNS0_3UidERKNS0_21UserSelectionSettingsERKNS0_37UserSelectionSettingsForSystemServiceE
 00000000:00000071000AA450       _ZN2nn7account27ShowUserSelectorForLauncherEPNS0_3UidERKNS0_21UserSelectionSettingsERKNS_13ApplicationIdE
 00000000:00000071000AA52C       _ZN2nn7account16ShowUserSelectorEPNS0_3UidERKNS0_21UserSelectionSettingsE
 00000000:00000071000AA600       _ZN2nn7account15ShowUserCreatorEv
 00000000:00000071000AA670       _ZN2nn7account18ShowUserIconEditorERKNS0_3UidE
 00000000:00000071000AA6C8       _ZN2nn7account22ShowUserNicknameEditorERKNS0_3UidE
 00000000:00000071000AA720       _ZN2nn7account25ShowUserCreatorForStarterEv
 00000000:00000071000AA75C       _ZN2nn7account29ShowNintendoAccountNnidLinkerERKNS0_3UidE
 00000000:00000071000AA7B4       _ZN2nn7account27GetUiResultFromContextStackEPNS0_11UiReturnArgENS_6applet13StorageHandleE
 00000000:00000071000AA7E8       _ZN2nn7account6detail18OAuthProcedureBaseC2Ev
 00000000:00000071000AA800       _ZN2nn7account6detail18OAuthProcedureBaseC1ERKNS0_3UidEPNS0_4http15IOAuthProcedureE
 00000000:00000071000AA828       _ZN2nn7account6detail18OAuthProcedureBaseC1EOS2_
 00000000:00000071000AA85C       _ZN2nn7account6detail18OAuthProcedureBaseD0Ev
 00000000:00000071000AA8A0       _ZN2nn7account6detail18OAuthProcedureBaseaSEOS2_
 00000000:00000071000AA92C       _ZN2nn7account6detail18OAuthProcedureBase4SwapERS2_
 00000000:00000071000AA974       _ZN2nn7account6detail18OAuthProcedureBase12PrepareAsyncEPNS0_12AsyncContextE
 00000000:00000071000AAA40       _ZN2nn7account6detail18OAuthProcedureBase10GetRequestEPNS0_10RequestUrlEPNS0_11CallbackUriE
 00000000:00000071000AAAAC       _ZN2nn7account6detail18OAuthProcedureBase13ApplyResponseEPKcm
 00000000:00000071000AAB20       _ZN2nn7account6detail18OAuthProcedureBase18ApplyResponseAsyncEPNS0_12AsyncContextEPKcm
 00000000:00000071000AAC04       _ZN2nn7account6detail18OAuthProcedureBase7SuspendEPNS0_9SessionIdE
 00000000:00000071000AAC84       _ZN2nn7account6detail24SimpleOAuthProcedureBaseC2Ev
 00000000:00000071000AAC9C       _ZN2nn7account6detail24SimpleOAuthProcedureBaseC2ERKNS0_3UidEPNS0_4http15IOAuthProcedureE
 00000000:00000071000AACD0       _ZN2nn7account6detail24SimpleOAuthProcedureBaseC1EOS2_
 00000000:00000071000AAD14       _ZN2nn7account6detail24SimpleOAuthProcedureBaseaSEOS2_
 00000000:00000071000AADA0       _ZN2nn7account6detail24SimpleOAuthProcedureBase4SwapERS2_
 00000000:00000071000AADE8       _ZN2nn7account6detail18OAuthProcedureBaseD2Ev
 00000000:00000071000AAE10       _ZN2nn7account6detail24SimpleOAuthProcedureBaseD0Ev
 00000000:00000071000AAE54       _ZN2nn7account6detail21TryPopPreselectedUserEv
 00000000:00000071000AAF2C       _ZN2nn7account6detail25CheckInternetAvailabilityEv
 00000000:00000071000AAF54       _ZN2nn7account6detail15StartPselAppletERKNS0_10UiSettingsE
 00000000:00000071000AB098       _ZN2nn7account6detail15StartPselAppletERKNS0_10UiSettingsEPKvm
 00000000:00000071000AB0D4       _ZN2nn7account6detail22ShowUserSelectorCommonEPNS0_3UidERKNS0_10UiSettingsE
 00000000:00000071000AB19C       _ZN2nn7account6detail12ObjectHolderC2Ev
 00000000:00000071000AB330       _ZN2nn7account6detail12ObjectHolderD2Ev
 00000000:00000071000AB3DC       _ZN2nn7account10InitializeEv
 00000000:00000071000AB4D0       _ZN2nn7account26InitializeForSystemServiceEv
 00000000:00000071000AB584       _ZN2nn7account26InitializeForAdministratorEv
 00000000:00000071000AB63C       _ZN2nn7account14InitializeWithEONS_2sf13SharedPointerINS0_31IAccountServiceForAdministratorEEE
 00000000:00000071000AB6B8       _ZN2nn7account8FinalizeEv
 00000000:00000071000AB76C       _ZN2nn7account6detail31TrySelectUserWithoutInteractionEPNS0_3UidEb
 00000000:00000071000AB7A4       _ZN2nn7account12GetUserCountEPi
 00000000:00000071000AB7F4       _ZN2nn7account16GetUserExistenceEPbRKNS0_3UidE
 00000000:00000071000AB830       _ZN2nn7account12ListAllUsersEPiPNS0_3UidEi
 00000000:00000071000ABA20       _ZN2nn7account13ListOpenUsersEPiPNS0_3UidEi
 00000000:00000071000ABC10       _ZN2nn7account17GetLastOpenedUserEPNS0_3UidE
 00000000:00000071000ABC44       _ZN2nn7account16GetProfileDigestEPNS0_13ProfileDigestERKNS0_3UidE
 00000000:00000071000ABC80       _ZN2nn7account11GetNicknameEPNS0_8NicknameERKNS0_3UidE
 00000000:00000071000ABD30       _ZN2nn7account16LoadProfileImageEPmPvmRKNS0_3UidE
 00000000:00000071000ABE04       _ZN2nn7account34IsUserRegistrationRequestPermittedEPb
 00000000:00000071000ABE44       _ZN2nn7account8OpenUserEPNS0_10UserHandleERKNS0_3UidE
 00000000:00000071000ABED8       _ZN2nn7account19OpenPreselectedUserEPNS0_10UserHandleE
 00000000:00000071000ABF90       _ZN2nn7account9CloseUserERKNS0_10UserHandleE
 00000000:00000071000ABFA0       _ZN2nn7account9GetUserIdEPNS0_3UidERKNS0_10UserHandleE
 00000000:00000071000ABFB0       _ZN2nn7account38IntroduceExternalNetworkServiceAccountEPNS0_33ExternalNetworkServiceAccountInfoEPvm
 00000000:00000071000AC148       _ZN2nn7account43DebugIntroduceExternalNetworkServiceAccountEPmmPNS0_33ExternalNetworkServiceAccountInfoEPvm
 00000000:00000071000AC2C4       _ZN2nn7account27StoreSaveDataThumbnailImageERKNS0_3UidEPKvm
 00000000:00000071000AC31C       _ZN2nn7account28DeleteSaveDataThumbnailImageERKNS0_3UidE
 00000000:00000071000AC358       _ZN2nn7account27GetUserRegistrationNotifierEPNS0_8NotifierE
 00000000:00000071000AC3F0       _ZN2nn7account26GetUserStateChangeNotifierEPNS0_8NotifierE
 00000000:00000071000AC488       _ZN2nn7account24GetProfileUpdateNotifierEPNS0_8NotifierE
 00000000:00000071000AC520       _ZN2nn7account50GetNetworkServiceAccountAvailabilityChangeNotifierEPNS0_8NotifierE
 00000000:00000071000AC5B8       _ZN2nn7account28GetUserLastOpenedApplicationEPNS_13ApplicationIdEPjRKNS0_3UidE
 00000000:00000071000AC604       _ZN2nn7account31GetNetworkServiceAccountManagerEPNS0_28NetworkServiceAccountManagerERKNS0_3UidE
 00000000:00000071000AC6A8       _ZN2nn7account27StoreSaveDataThumbnailImageERKNS0_3UidERKNS_13ApplicationIdEPKvm
 00000000:00000071000AC704       _ZN2nn7account28DeleteSaveDataThumbnailImageERKNS0_3UidERKNS_13ApplicationIdE
 00000000:00000071000AC744       _ZN2nn7account26LoadSaveDataThumbnailImageEPvmRKNS0_3UidERKNS_13ApplicationIdE
 00000000:00000071000AC7A4       _ZN2nn7account21BeginUserRegistrationEPNS0_3UidE
 00000000:00000071000AC7D8       _ZN2nn7account24CompleteUserRegistrationERKNS0_3UidE
 00000000:00000071000AC80C       _ZN2nn7account32CompleteUserRegistrationForciblyERKNS0_3UidE
 00000000:00000071000AC840       _ZN2nn7account22CancelUserRegistrationERKNS0_3UidE
 00000000:00000071000AC874       _ZN2nn7account10DeleteUserERKNS0_3UidE
 00000000:00000071000AC8A8       _ZN2nn7account15SetUserPositionERKNS0_3UidEi
 00000000:00000071000AC8E4       _ZN2nn7account16GetProfileEditorEPNS0_13ProfileEditorERKNS0_3UidE
 00000000:00000071000AC9A0       _ZN2nn7account24AuthenticateServiceAsyncEPNS0_12AsyncContextE
 00000000:00000071000ACA38       _ZN2nn7account37GetNetworkServiceAccountAdministratorEPNS0_34NetworkServiceAccountAdministratorERKNS0_3UidE
 00000000:00000071000ACADC       _ZN2nn7account44CreateExternalNetworkServiceAccountRegistrarEPNS0_38ExternalNetworkServiceAccountRegistrarEPvm
 00000000:00000071000ACC4C       _ZN2nn7account49DebugCreateExternalNetworkServiceAccountRegistrarEPmmPNS0_38ExternalNetworkServiceAccountRegistrarEPvm
 00000000:00000071000ACDA0       _ZN2nn7account69ProxyProcedureToIntroduceExternalNetworkServiceAccountForRegistrationEPNS0_49ExternalNetworkServiceAccountIntroducingProcedureERKNS0_9SessionIdE
 00000000:00000071000ACE4C       _ZN2nn7account54ProxyProcedureToIntroduceExternalNetworkServiceAccountEPNS0_49ExternalNetworkServiceAccountIntroducingProcedureERKNS0_9SessionIdE
 00000000:00000071000ACEF8       _ZN2nn7account11Declaration4SwapERS1_
 00000000:00000071000ACF0C       _ZN2nn7account11DeclarationD2Ev
 00000000:00000071000ACF24       _ZN2nn7account25DebugInvalidateTokenCacheERKNS0_3UidE
 00000000:00000071000ACF84       _ZN2nn7account21DebugSetUserStateOpenERKNS0_3UidE
 00000000:00000071000ACFB8       _ZN2nn7account22DebugSetUserStateCloseERKNS0_3UidE
 00000000:00000071000ACFEC       _ZN2nn7account25SuspendBackgroundActivityEv
 00000000:00000071000AD064       _ZN2nn7account6detail12ObjectHolder11AcquireImplINS0_29IAccountServiceForApplicationEEENS_6ResultEPPT_PKc
 00000000:00000071000AD15C       _ZN2nn2sf4hipc6client34HipcSimpleClientSessionManagerBase4Impl18InitializeByHandleINS_7account29IAccountServiceForApplicationENS0_25StatelessAllocationPolicyINS0_22ExpHeapStaticAllocatorILm2048ENS6_6detail12ObjectHolder24ObjectHolderAllocatorTagEEEEEEENS_6ResultEPNS0_13SharedPointerIT_EENS_3svc6HandleE
 00000000:00000071000AD270       _ZN2nn2sf6detail39ObjectImplFactoryWithStatelessAllocatorINS0_4cmif6client16CmifProxyFactoryINS_7account29IAccountServiceForApplicationENS4_15CmifDomainProxyINS0_4hipc6client38Hipc2ClientSessionManagedProxyKindBaseINSA_18Hipc2ProxyKindBaseILNS9_6detail11MessageTypeE4EEEEEEENS0_25StatelessAllocationPolicyINS0_22ExpHeapStaticAllocatorILm2048ENS6_6detail12ObjectHolder24ObjectHolderAllocatorTagEEEEEE13ServiceObjectESO_E6Object12AddReferenceEv
 00000000:00000071000AD278       _ZN2nn2sf6detail39ObjectImplFactoryWithStatelessAllocatorINS0_4cmif6client16CmifProxyFactoryINS_7account29IAccountServiceForApplicationENS4_15CmifDomainProxyINS0_4hipc6client38Hipc2ClientSessionManagedProxyKindBaseINSA_18Hipc2ProxyKindBaseILNS9_6detail11MessageTypeE4EEEEEEENS0_25StatelessAllocationPolicyINS0_22ExpHeapStaticAllocatorILm2048ENS6_6detail12ObjectHolder24ObjectHolderAllocatorTagEEEEEE13ServiceObjectESO_E6Object7ReleaseEv
 00000000:00000071000AD2EC       _ZN2nn2sf4cmif6client6detail13CmifProxyImplINS_7account19IAccountServiceBaseENS2_15CmifDomainProxyINS0_4hipc6client38Hipc2ClientSessionManagedProxyKindBaseINS9_18Hipc2ProxyKindBaseILNS8_6detail11MessageTypeE4EEEEEEENS0_25StatelessAllocationPolicyINS0_22ExpHeapStaticAllocatorILm2048ENS5_6detail12ObjectHolder24ObjectHolderAllocatorTagEEEEENS5_29IAccountServiceForApplicationEE12GetProxyInfoEv
 00000000:00000071000AD2F4       _ZN2nn2sf4cmif6client6detail13CmifProxyImplINS_7account19IAccountServiceBaseENS2_15CmifDomainProxyINS0_4hipc6client38Hipc2ClientSessionManagedProxyKindBaseINS9_18Hipc2ProxyKindBaseILNS8_6detail11MessageTypeE4EEEEEEENS0_25StatelessAllocationPolicyINS0_22ExpHeapStaticAllocatorILm2048ENS5_6detail12ObjectHolder24ObjectHolderAllocatorTagEEEEENS5_29IAccountServiceForApplicationEE24_nn_sf_sync_GetUserCountENS0_3OutIivEE
 00000000:00000071000AD314       _ZN2nn2sf4cmif6client6detail13CmifProxyImplINS_7account19IAccountServiceBaseENS2_15CmifDomainProxyINS0_4hipc6client38Hipc2ClientSessionManagedProxyKindBaseINS9_18Hipc2ProxyKindBaseILNS8_6detail11MessageTypeE4EEEEEEENS0_25StatelessAllocationPolicyINS0_22ExpHeapStaticAllocatorILm2048ENS5_6detail12ObjectHolder24ObjectHolderAllocatorTagEEEEENS5_29IAccountServiceForApplicationEE28_nn_sf_sync_GetUserExistenceENS0_3OutIbvEERKNS5_3UidE
 00000000:00000071000AD334       _ZN2nn2sf4cmif6client6detail13CmifProxyImplINS_7account19IAccountServiceBaseENS2_15CmifDomainProxyINS0_4hipc6client38Hipc2ClientSessionManagedProxyKindBaseINS9_18Hipc2ProxyKindBaseILNS8_6detail11MessageTypeE4EEEEEEENS0_25StatelessAllocationPolicyINS0_22ExpHeapStaticAllocatorILm2048ENS5_6detail12ObjectHolder24ObjectHolderAllocatorTagEEEEENS5_29IAccountServiceForApplicationEE24_nn_sf_sync_ListAllUsersERKNS0_8OutArrayINS5_3UidEEE
 00000000:00000071000AD360       _ZN2nn2sf4cmif6client6detail13CmifProxyImplINS_7account19IAccountServiceBaseENS2_15CmifDomainProxyINS0_4hipc6client38Hipc2ClientSessionManagedProxyKindBaseINS9_18Hipc2ProxyKindBaseILNS8_6detail11MessageTypeE4EEEEEEENS0_25StatelessAllocationPolicyINS0_22ExpHeapStaticAllocatorILm2048ENS5_6detail12ObjectHolder24ObjectHolderAllocatorTagEEEEENS5_29IAccountServiceForApplicationEE25_nn_sf_sync_ListOpenUsersERKNS0_8OutArrayINS5_3UidEEE
 00000000:00000071000AD38C       _ZN2nn2sf4cmif6client6detail13CmifProxyImplINS_7account19IAccountServiceBaseENS2_15CmifDomainProxyINS0_4hipc6client38Hipc2ClientSessionManagedProxyKindBaseINS9_18Hipc2ProxyKindBaseILNS8_6detail11MessageTypeE4EEEEEEENS0_25StatelessAllocationPolicyINS0_22ExpHeapStaticAllocatorILm2048ENS5_6detail12ObjectHolder24ObjectHolderAllocatorTagEEEEENS5_29IAccountServiceForApplicationEE29_nn_sf_sync_GetLastOpenedUserENS0_3OutINS5_3UidEvEE
 00000000:00000071000AD3AC       _ZN2nn2sf4cmif6client6detail13CmifProxyImplINS_7account19IAccountServiceBaseENS2_15CmifDomainProxyINS0_4hipc6client38Hipc2ClientSessionManagedProxyKindBaseINS9_18Hipc2ProxyKindBaseILNS8_6detail11MessageTypeE4EEEEEEENS0_25StatelessAllocationPolicyINS0_22ExpHeapStaticAllocatorILm2048ENS5_6detail12ObjectHolder24ObjectHolderAllocatorTagEEEEENS5_29IAccountServiceForApplicationEE22_nn_sf_sync_GetProfileENS0_3OutINS0_13SharedPointerINS5_7profile8IProfileEEEvEERKNS5_3UidE
 00000000:00000071000AD440       _ZN2nn2sf4cmif6client6detail13CmifProxyImplINS_7account19IAccountServiceBaseENS2_15CmifDomainProxyINS0_4hipc6client38Hipc2ClientSessionManagedProxyKindBaseINS9_18Hipc2ProxyKindBaseILNS8_6detail11MessageTypeE4EEEEEEENS0_25StatelessAllocationPolicyINS0_22ExpHeapStaticAllocatorILm2048ENS5_6detail12ObjectHolder24ObjectHolderAllocatorTagEEEEENS5_29IAccountServiceForApplicationEE28_nn_sf_sync_GetProfileDigestENS0_3OutINS5_13ProfileDigestEvEERKNS5_3UidE
 00000000:00000071000AD460       _ZN2nn2sf4cmif6client6detail13CmifProxyImplINS_7account19IAccountServiceBaseENS2_15CmifDomainProxyINS0_4hipc6client38Hipc2ClientSessionManagedProxyKindBaseINS9_18Hipc2ProxyKindBaseILNS8_6detail11MessageTypeE4EEEEEEENS0_25StatelessAllocationPolicyINS0_22ExpHeapStaticAllocatorILm2048ENS5_6detail12ObjectHolder24ObjectHolderAllocatorTagEEEEENS5_29IAccountServiceForApplicationEE46_nn_sf_sync_IsUserRegistrationRequestPermittedENS0_3OutIbvEEm
 00000000:00000071000AD480       _ZN2nn2sf4cmif6client6detail13CmifProxyImplINS_7account19IAccountServiceBaseENS2_15CmifDomainProxyINS0_4hipc6client38Hipc2ClientSessionManagedProxyKindBaseINS9_18Hipc2ProxyKindBaseILNS8_6detail11MessageTypeE4EEEEEEENS0_25StatelessAllocationPolicyINS0_22ExpHeapStaticAllocatorILm2048ENS5_6detail12ObjectHolder24ObjectHolderAllocatorTagEEEEENS5_29IAccountServiceForApplicationEE43_nn_sf_sync_TrySelectUserWithoutInteractionENS0_3OutINS5_3UidEvEEb
 00000000:00000071000AD4A4       _ZN2nn2sf4cmif6client6detail13CmifProxyImplINS_7account29IAccountServiceForApplicationENS2_15CmifDomainProxyINS0_4hipc6client38Hipc2ClientSessionManagedProxyKindBaseINS9_18Hipc2ProxyKindBaseILNS8_6detail11MessageTypeE4EEEEEEENS0_25StatelessAllocationPolicyINS0_22ExpHeapStaticAllocatorILm2048ENS5_6detail12ObjectHolder24ObjectHolderAllocatorTagEEEEES6_E37_nn_sf_sync_InitializeApplicationInfoEm
 00000000:00000071000AD4C4       _ZN2nn2sf4cmif6client6detail13CmifProxyImplINS_7account29IAccountServiceForApplicationENS2_15CmifDomainProxyINS0_4hipc6client38Hipc2ClientSessionManagedProxyKindBaseINS9_18Hipc2ProxyKindBaseILNS8_6detail11MessageTypeE4EEEEEEENS0_25StatelessAllocationPolicyINS0_22ExpHeapStaticAllocatorILm2048ENS5_6detail12ObjectHolder24ObjectHolderAllocatorTagEEEEES6_E47_nn_sf_sync_GetBaasAccountManagerForApplicationENS0_3OutINS0_13SharedPointerINS5_4baas22IManagerForApplicationEEEvEERKNS5_3UidE
 00000000:00000071000AD558       _ZN2nn2sf4cmif6client6detail13CmifProxyImplINS_7account29IAccountServiceForApplicationENS2_15CmifDomainProxyINS0_4hipc6client38Hipc2ClientSessionManagedProxyKindBaseINS9_18Hipc2ProxyKindBaseILNS8_6detail11MessageTypeE4EEEEEEENS0_25StatelessAllocationPolicyINS0_22ExpHeapStaticAllocatorILm2048ENS5_6detail12ObjectHolder24ObjectHolderAllocatorTagEEEEES6_E40_nn_sf_sync_AuthenticateApplicationAsyncENS0_3OutINS0_13SharedPointerINSJ_13IAsyncContextEEEvEE
 00000000:00000071000AD5E0       _ZN2nn2sf4cmif6client6detail13CmifProxyImplINS_7account29IAccountServiceForApplicationENS2_15CmifDomainProxyINS0_4hipc6client38Hipc2ClientSessionManagedProxyKindBaseINS9_18Hipc2ProxyKindBaseILNS8_6detail11MessageTypeE4EEEEEEENS0_25StatelessAllocationPolicyINS0_22ExpHeapStaticAllocatorILm2048ENS5_6detail12ObjectHolder24ObjectHolderAllocatorTagEEEEES6_E34_nn_sf_sync_StoreSaveDataThumbnailERKNS5_3UidERKNS0_8InBufferE
 00000000:00000071000AD608       _ZN2nn2sf4cmif6client6detail13CmifProxyImplINS_7account29IAccountServiceForApplicationENS2_15CmifDomainProxyINS0_4hipc6client38Hipc2ClientSessionManagedProxyKindBaseINS9_18Hipc2ProxyKindBaseILNS8_6detail11MessageTypeE4EEEEEEENS0_25StatelessAllocationPolicyINS0_22ExpHeapStaticAllocatorILm2048ENS5_6detail12ObjectHolder24ObjectHolderAllocatorTagEEEEES6_E34_nn_sf_sync_ClearSaveDataThumbnailERKNS5_3UidE
 00000000:00000071000AD628       _ZN2nn2sf4cmif6client6detail13CmifProxyImplINS_7account29IAccountServiceForApplicationENS2_15CmifDomainProxyINS0_4hipc6client38Hipc2ClientSessionManagedProxyKindBaseINS9_18Hipc2ProxyKindBaseILNS8_6detail11MessageTypeE4EEEEEEENS0_25StatelessAllocationPolicyINS0_22ExpHeapStaticAllocatorILm2048ENS5_6detail12ObjectHolder24ObjectHolderAllocatorTagEEEEES6_E35_nn_sf_sync_CreateGuestLoginRequestENS0_3OutINS0_13SharedPointerINS5_4baas18IGuestLoginRequestEEEvEEONS0_12NativeHandleEj
 00000000:00000071000AD6C8       _ZN2nn2sf4cmif6client6detail13CmifProxyImplINS_7account19IAccountServiceBaseENS2_15CmifDomainProxyINS0_4hipc6client38Hipc2ClientSessionManagedProxyKindBaseINS9_18Hipc2ProxyKindBaseILNS8_6detail11MessageTypeE4EEEEEEENS0_25StatelessAllocationPolicyINS0_22ExpHeapStaticAllocatorILm2048ENS5_6detail12ObjectHolder24ObjectHolderAllocatorTagEEEEENS5_29IAccountServiceForApplicationEE17GetCmifBaseObjectEv
 00000000:00000071000AD6D8       _ZThn32_N2nn2sf4cmif6client6detail13CmifProxyImplINS_7account19IAccountServiceBaseENS2_15CmifDomainProxyINS0_4hipc6client38Hipc2ClientSessionManagedProxyKindBaseINS9_18Hipc2ProxyKindBaseILNS8_6detail11MessageTypeE4EEEEEEENS0_25StatelessAllocationPolicyINS0_22ExpHeapStaticAllocatorILm2048ENS5_6detail12ObjectHolder24ObjectHolderAllocatorTagEEEEENS5_29IAccountServiceForApplicationEE17GetCmifBaseObjectEv
 00000000:00000071000AD6E0       _ZN2nn2sf4cmif6client34CmifDomainProxyClientCoreProcessorINS0_4hipc6client38Hipc2ClientSessionManagedProxyKindBaseINS5_18Hipc2ProxyKindBaseILNS4_6detail11MessageTypeE4EEEEENS1_6detail14CoreMethodInfoINSt3__15tupleIJNSC_18OutRawArgumentInfoILm1ELm1ELl0EEENSC_17InRawArgumentInfoILm16ELm8ELl0EEEEEELm16ELm1ELb0EEESK_E7ProcessEPNS2_23CmifDomainClientMessageISB_E15ProxyBaseObjectENS2_24OutRawClientArgumentTypeILm1ELm1EEENS2_23InRawClientArgumentTypeILm16ELm8EvEEj
 00000000:00000071000AD844       _ZN2nn2sf4cmif6client34CmifDomainProxyClientCoreProcessorINS0_4hipc6client38Hipc2ClientSessionManagedProxyKindBaseINS5_18Hipc2ProxyKindBaseILNS4_6detail11MessageTypeE4EEEEENS1_6detail14CoreMethodInfoINSt3__15tupleIJNSC_18BufferArgumentInfoILi0ELi10ELm0EEEEEELm0ELm0ELb0EEESI_E7ProcessEPNS2_23CmifDomainClientMessageISB_E15ProxyBaseObjectENS2_24BufferClientArgumentTypeEj
 00000000:00000071000AD9FC       _ZN2nn2sf4cmif6client34CmifDomainProxyClientCoreProcessorINS0_4hipc6client38Hipc2ClientSessionManagedProxyKindBaseINS5_18Hipc2ProxyKindBaseILNS4_6detail11MessageTypeE4EEEEENS1_6detail14CoreMethodInfoINSt3__15tupleIJNSC_18OutRawArgumentInfoILm16ELm8ELl0EEEEEELm0ELm16ELb0EEESI_E7ProcessEPNS2_23CmifDomainClientMessageISB_E15ProxyBaseObjectENS2_24OutRawClientArgumentTypeILm16ELm8EEEj
 00000000:00000071000ADB4C       _ZN2nn2sf4cmif6client34CmifDomainProxyClientCoreProcessorINS0_4hipc6client38Hipc2ClientSessionManagedProxyKindBaseINS5_18Hipc2ProxyKindBaseILNS4_6detail11MessageTypeE4EEEEENS1_6detail14CoreMethodInfoINSt3__15tupleIJNSC_21OutObjectArgumentInfoILi0ELi0EEENSC_17InRawArgumentInfoILm16ELm8ELl0EEEEEELm16ELm0ELb0EEESK_E21ProcessWithOutObjectsEPNS2_23CmifDomainClientMessageISB_E15ProxyBaseObjectENS2_27OutObjectClientArgumentTypeENS2_23InRawClientArgumentTypeILm16ELm8EvEEjPNS0_13SharedPointerINS0_14IServiceObjectEEE
 00000000:00000071000ADD24       _ZN2nn2sf4cmif6client32GetClientProcessorWithObjectBaseINS2_15CmifDomainProxyINS0_4hipc6client38Hipc2ClientSessionManagedProxyKindBaseINS6_18Hipc2ProxyKindBaseILNS5_6detail11MessageTypeE4EEEEEEEE14ObjectAssignerINS0_25StatelessAllocationPolicyINS0_22ExpHeapStaticAllocatorILm2048ENS_7account6detail12ObjectHolder24ObjectHolderAllocatorTagEEEEENS0_6detail23StatelessDummyAllocatorEE14AllocateObjectINSI_7profile8IProfileEEEvi
 00000000:00000071000ADDD8       _ZN2nn2sf6detail39ObjectImplFactoryWithStatelessAllocatorINS0_4cmif6client16CmifProxyFactoryINS_7account7profile8IProfileENS4_15CmifDomainProxyINS0_4hipc6client38Hipc2ClientSessionManagedProxyKindBaseINSB_18Hipc2ProxyKindBaseILNSA_6detail11MessageTypeE4EEEEEEENS0_25StatelessAllocationPolicyINS0_22ExpHeapStaticAllocatorILm2048ENS6_6detail12ObjectHolder24ObjectHolderAllocatorTagEEEEEE13ServiceObjectESP_E6Object12AddReferenceEv
 00000000:00000071000ADDE0       _ZN2nn2sf6detail39ObjectImplFactoryWithStatelessAllocatorINS0_4cmif6client16CmifProxyFactoryINS_7account7profile8IProfileENS4_15CmifDomainProxyINS0_4hipc6client38Hipc2ClientSessionManagedProxyKindBaseINSB_18Hipc2ProxyKindBaseILNSA_6detail11MessageTypeE4EEEEEEENS0_25StatelessAllocationPolicyINS0_22ExpHeapStaticAllocatorILm2048ENS6_6detail12ObjectHolder24ObjectHolderAllocatorTagEEEEEE13ServiceObjectESP_E6Object7ReleaseEv
 00000000:00000071000ADE54       _ZN2nn2sf4cmif6client6detail13CmifProxyImplINS_7account7profile8IProfileENS2_15CmifDomainProxyINS0_4hipc6client38Hipc2ClientSessionManagedProxyKindBaseINSA_18Hipc2ProxyKindBaseILNS9_6detail11MessageTypeE4EEEEEEENS0_25StatelessAllocationPolicyINS0_22ExpHeapStaticAllocatorILm2048ENS5_6detail12ObjectHolder24ObjectHolderAllocatorTagEEEEES7_E12GetProxyInfoEv
 00000000:00000071000ADE5C       _ZN2nn2sf4cmif6client6detail13CmifProxyImplINS_7account7profile8IProfileENS2_15CmifDomainProxyINS0_4hipc6client38Hipc2ClientSessionManagedProxyKindBaseINSA_18Hipc2ProxyKindBaseILNS9_6detail11MessageTypeE4EEEEEEENS0_25StatelessAllocationPolicyINS0_22ExpHeapStaticAllocatorILm2048ENS5_6detail12ObjectHolder24ObjectHolderAllocatorTagEEEEES7_E15_nn_sf_sync_GetENS0_3OutINS6_11ProfileBaseEvEENSQ_INS6_8UserDataEvEE
 00000000:00000071000ADE80       _ZN2nn2sf4cmif6client6detail13CmifProxyImplINS_7account7profile8IProfileENS2_15CmifDomainProxyINS0_4hipc6client38Hipc2ClientSessionManagedProxyKindBaseINSA_18Hipc2ProxyKindBaseILNS9_6detail11MessageTypeE4EEEEEEENS0_25StatelessAllocationPolicyINS0_22ExpHeapStaticAllocatorILm2048ENS5_6detail12ObjectHolder24ObjectHolderAllocatorTagEEEEES7_E19_nn_sf_sync_GetBaseENS0_3OutINS6_11ProfileBaseEvEE
 00000000:00000071000ADEA0       _ZN2nn2sf4cmif6client6detail13CmifProxyImplINS_7account7profile8IProfileENS2_15CmifDomainProxyINS0_4hipc6client38Hipc2ClientSessionManagedProxyKindBaseINSA_18Hipc2ProxyKindBaseILNS9_6detail11MessageTypeE4EEEEEEENS0_25StatelessAllocationPolicyINS0_22ExpHeapStaticAllocatorILm2048ENS5_6detail12ObjectHolder24ObjectHolderAllocatorTagEEEEES7_E24_nn_sf_sync_GetImageSizeENS0_3OutIjvEE
 00000000:00000071000ADEC0       _ZN2nn2sf4cmif6client6detail13CmifProxyImplINS_7account7profile8IProfileENS2_15CmifDomainProxyINS0_4hipc6client38Hipc2ClientSessionManagedProxyKindBaseINSA_18Hipc2ProxyKindBaseILNS9_6detail11MessageTypeE4EEEEEEENS0_25StatelessAllocationPolicyINS0_22ExpHeapStaticAllocatorILm2048ENS5_6detail12ObjectHolder24ObjectHolderAllocatorTagEEEEES7_E21_nn_sf_sync_LoadImageENS0_3OutIjvEERKNS0_9OutBufferE
 00000000:00000071000ADEE8       _ZN2nn2sf4cmif6client6detail13CmifProxyImplINS_7account7profile8IProfileENS2_15CmifDomainProxyINS0_4hipc6client38Hipc2ClientSessionManagedProxyKindBaseINSA_18Hipc2ProxyKindBaseILNS9_6detail11MessageTypeE4EEEEEEENS0_25StatelessAllocationPolicyINS0_22ExpHeapStaticAllocatorILm2048ENS5_6detail12ObjectHolder24ObjectHolderAllocatorTagEEEEES7_E17GetCmifBaseObjectEv
 00000000:00000071000ADEF8       _ZThn32_N2nn2sf4cmif6client6detail13CmifProxyImplINS_7account7profile8IProfileENS2_15CmifDomainProxyINS0_4hipc6client38Hipc2ClientSessionManagedProxyKindBaseINSA_18Hipc2ProxyKindBaseILNS9_6detail11MessageTypeE4EEEEEEENS0_25StatelessAllocationPolicyINS0_22ExpHeapStaticAllocatorILm2048ENS5_6detail12ObjectHolder24ObjectHolderAllocatorTagEEEEES7_E17GetCmifBaseObjectEv
 00000000:00000071000ADF00       _ZN2nn2sf4cmif6client34CmifDomainProxyClientCoreProcessorINS0_4hipc6client38Hipc2ClientSessionManagedProxyKindBaseINS5_18Hipc2ProxyKindBaseILNS4_6detail11MessageTypeE4EEEEENS1_6detail14CoreMethodInfoINSt3__15tupleIJNSC_18OutRawArgumentInfoILm56ELm8ELl0EEENSC_18BufferArgumentInfoILi0ELi26ELm128EEEEEELm0ELm56ELb0EEESK_E7ProcessEPNS2_23CmifDomainClientMessageISB_E15ProxyBaseObjectENS2_24OutRawClientArgumentTypeILm56ELm8EEENS2_24BufferClientArgumentTypeEj
 00000000:00000071000AE0DC       _ZN2nn2sf4cmif6client34CmifDomainProxyClientCoreProcessorINS0_4hipc6client38Hipc2ClientSessionManagedProxyKindBaseINS5_18Hipc2ProxyKindBaseILNS4_6detail11MessageTypeE4EEEEENS1_6detail14CoreMethodInfoINSt3__15tupleIJNSC_18OutRawArgumentInfoILm56ELm8ELl0EEEEEELm0ELm56ELb0EEESI_E7ProcessEPNS2_23CmifDomainClientMessageISB_E15ProxyBaseObjectENS2_24OutRawClientArgumentTypeILm56ELm8EEEj
 00000000:00000071000AE22C       _ZN2nn2sf4cmif6client34CmifDomainProxyClientCoreProcessorINS0_4hipc6client38Hipc2ClientSessionManagedProxyKindBaseINS5_18Hipc2ProxyKindBaseILNS4_6detail11MessageTypeE4EEEEENS1_6detail14CoreMethodInfoINSt3__15tupleIJNSC_18OutRawArgumentInfoILm4ELm4ELl0EEENSC_18BufferArgumentInfoILi0ELi6ELm0EEEEEELm0ELm4ELb0EEESK_E7ProcessEPNS2_23CmifDomainClientMessageISB_E15ProxyBaseObjectENS2_24OutRawClientArgumentTypeILm4ELm4EEENS2_24BufferClientArgumentTypeEj
 00000000:00000071000AE404       _ZN2nn2sf4cmif6client34CmifDomainProxyClientCoreProcessorINS0_4hipc6client38Hipc2ClientSessionManagedProxyKindBaseINS5_18Hipc2ProxyKindBaseILNS4_6detail11MessageTypeE4EEEEENS1_6detail14CoreMethodInfoINSt3__15tupleIJNSC_18OutRawArgumentInfoILm16ELm1ELl0EEENSC_17InRawArgumentInfoILm16ELm8ELl0EEEEEELm16ELm16ELb0EEESK_E7ProcessEPNS2_23CmifDomainClientMessageISB_E15ProxyBaseObjectENS2_24OutRawClientArgumentTypeILm16ELm1EEENS2_23InRawClientArgumentTypeILm16ELm8EvEEj
 00000000:00000071000AE570       _ZN2nn2sf4cmif6client34CmifDomainProxyClientCoreProcessorINS0_4hipc6client38Hipc2ClientSessionManagedProxyKindBaseINS5_18Hipc2ProxyKindBaseILNS4_6detail11MessageTypeE4EEEEENS1_6detail14CoreMethodInfoINSt3__15tupleIJNSC_18OutRawArgumentInfoILm1ELm1ELl0EEENSC_17InRawArgumentInfoILm8ELm8ELl0EEEEEELm8ELm1ELb1EEESK_E7ProcessEPNS2_23CmifDomainClientMessageISB_E15ProxyBaseObjectENS2_24OutRawClientArgumentTypeILm1ELm1EEENS2_23InRawClientArgumentTypeILm8ELm8EvEEj
 00000000:00000071000AE6D0       _ZN2nn2sf4cmif6client34CmifDomainProxyClientCoreProcessorINS0_4hipc6client38Hipc2ClientSessionManagedProxyKindBaseINS5_18Hipc2ProxyKindBaseILNS4_6detail11MessageTypeE4EEEEENS1_6detail14CoreMethodInfoINSt3__15tupleIJNSC_18OutRawArgumentInfoILm16ELm8ELl0EEENSC_17InRawArgumentInfoILm1ELm1ELl0EEEEEELm1ELm16ELb0EEESK_E7ProcessEPNS2_23CmifDomainClientMessageISB_E15ProxyBaseObjectENS2_24OutRawClientArgumentTypeILm16ELm8EEENS2_23InRawClientArgumentTypeILm1ELm1EvEEj
 00000000:00000071000AE830       _ZN2nn2sf4cmif6client32GetClientProcessorWithObjectBaseINS2_15CmifDomainProxyINS0_4hipc6client38Hipc2ClientSessionManagedProxyKindBaseINS6_18Hipc2ProxyKindBaseILNS5_6detail11MessageTypeE4EEEEEEEE14ObjectAssignerINS0_25StatelessAllocationPolicyINS0_22ExpHeapStaticAllocatorILm2048ENS_7account6detail12ObjectHolder24ObjectHolderAllocatorTagEEEEENS0_6detail23StatelessDummyAllocatorEE14AllocateObjectINSI_4baas22IManagerForApplicationEEEvi
 00000000:00000071000AE8E4       _ZN2nn2sf6detail39ObjectImplFactoryWithStatelessAllocatorINS0_4cmif6client16CmifProxyFactoryINS_7account4baas22IManagerForApplicationENS4_15CmifDomainProxyINS0_4hipc6client38Hipc2ClientSessionManagedProxyKindBaseINSB_18Hipc2ProxyKindBaseILNSA_6detail11MessageTypeE4EEEEEEENS0_25StatelessAllocationPolicyINS0_22ExpHeapStaticAllocatorILm2048ENS6_6detail12ObjectHolder24ObjectHolderAllocatorTagEEEEEE13ServiceObjectESP_E6Object12AddReferenceEv
 00000000:00000071000AE8EC       _ZN2nn2sf6detail39ObjectImplFactoryWithStatelessAllocatorINS0_4cmif6client16CmifProxyFactoryINS_7account4baas22IManagerForApplicationENS4_15CmifDomainProxyINS0_4hipc6client38Hipc2ClientSessionManagedProxyKindBaseINSB_18Hipc2ProxyKindBaseILNSA_6detail11MessageTypeE4EEEEEEENS0_25StatelessAllocationPolicyINS0_22ExpHeapStaticAllocatorILm2048ENS6_6detail12ObjectHolder24ObjectHolderAllocatorTagEEEEEE13ServiceObjectESP_E6Object7ReleaseEv
 00000000:00000071000AE960       _ZN2nn2sf4cmif6client6detail13CmifProxyImplINS_7account4baas12IManagerBaseENS2_15CmifDomainProxyINS0_4hipc6client38Hipc2ClientSessionManagedProxyKindBaseINSA_18Hipc2ProxyKindBaseILNS9_6detail11MessageTypeE4EEEEEEENS0_25StatelessAllocationPolicyINS0_22ExpHeapStaticAllocatorILm2048ENS5_6detail12ObjectHolder24ObjectHolderAllocatorTagEEEEENS6_22IManagerForApplicationEE12GetProxyInfoEv
 00000000:00000071000AE968       _ZN2nn2sf4cmif6client6detail13CmifProxyImplINS_7account4baas12IManagerBaseENS2_15CmifDomainProxyINS0_4hipc6client38Hipc2ClientSessionManagedProxyKindBaseINSA_18Hipc2ProxyKindBaseILNS9_6detail11MessageTypeE4EEEEEEENS0_25StatelessAllocationPolicyINS0_22ExpHeapStaticAllocatorILm2048ENS5_6detail12ObjectHolder24ObjectHolderAllocatorTagEEEEENS6_22IManagerForApplicationEE29_nn_sf_sync_CheckAvailabilityEv
 00000000:00000071000AE988       _ZN2nn2sf4cmif6client6detail13CmifProxyImplINS_7account4baas12IManagerBaseENS2_15CmifDomainProxyINS0_4hipc6client38Hipc2ClientSessionManagedProxyKindBaseINSA_18Hipc2ProxyKindBaseILNS9_6detail11MessageTypeE4EEEEEEENS0_25StatelessAllocationPolicyINS0_22ExpHeapStaticAllocatorILm2048ENS5_6detail12ObjectHolder24ObjectHolderAllocatorTagEEEEENS6_22IManagerForApplicationEE24_nn_sf_sync_GetAccountIdENS0_3OutINS5_23NetworkServiceAccountIdEvEE
 00000000:00000071000AE9A8       _ZN2nn2sf4cmif6client6detail13CmifProxyImplINS_7account4baas12IManagerBaseENS2_15CmifDomainProxyINS0_4hipc6client38Hipc2ClientSessionManagedProxyKindBaseINSA_18Hipc2ProxyKindBaseILNS9_6detail11MessageTypeE4EEEEEEENS0_25StatelessAllocationPolicyINS0_22ExpHeapStaticAllocatorILm2048ENS5_6detail12ObjectHolder24ObjectHolderAllocatorTagEEEEENS6_22IManagerForApplicationEE35_nn_sf_sync_EnsureIdTokenCacheAsyncENS0_3OutINS0_13SharedPointerINSK_13IAsyncContextEEEvEE
 00000000:00000071000AEA30       _ZN2nn2sf4cmif6client6detail13CmifProxyImplINS_7account4baas12IManagerBaseENS2_15CmifDomainProxyINS0_4hipc6client38Hipc2ClientSessionManagedProxyKindBaseINSA_18Hipc2ProxyKindBaseILNS9_6detail11MessageTypeE4EEEEEEENS0_25StatelessAllocationPolicyINS0_22ExpHeapStaticAllocatorILm2048ENS5_6detail12ObjectHolder24ObjectHolderAllocatorTagEEEEENS6_22IManagerForApplicationEE28_nn_sf_sync_LoadIdTokenCacheENS0_3OutIjvEERKNS0_9OutBufferE
 00000000:00000071000AEA58       _ZN2nn2sf4cmif6client6detail13CmifProxyImplINS_7account4baas22IManagerForApplicationENS2_15CmifDomainProxyINS0_4hipc6client38Hipc2ClientSessionManagedProxyKindBaseINSA_18Hipc2ProxyKindBaseILNS9_6detail11MessageTypeE4EEEEEEENS0_25StatelessAllocationPolicyINS0_22ExpHeapStaticAllocatorILm2048ENS5_6detail12ObjectHolder24ObjectHolderAllocatorTagEEEEES7_E61_nn_sf_sync_GetNintendoAccountUserResourceCacheForApplicationENS0_3OutINS5_17NintendoAccountIdEvEENSQ_INS5_3nas25NasUserBaseForApplicationEvEERKNS0_9OutBufferE
 00000000:00000071000AEA80       _ZN2nn2sf4cmif6client6detail13CmifProxyImplINS_7account4baas22IManagerForApplicationENS2_15CmifDomainProxyINS0_4hipc6client38Hipc2ClientSessionManagedProxyKindBaseINSA_18Hipc2ProxyKindBaseILNS9_6detail11MessageTypeE4EEEEEEENS0_25StatelessAllocationPolicyINS0_22ExpHeapStaticAllocatorILm2048ENS5_6detail12ObjectHolder24ObjectHolderAllocatorTagEEEEES7_E38_nn_sf_sync_CreateAuthorizationRequestENS0_3OutINS0_13SharedPointerINS5_3nas21IAuthorizationRequestEEEvEERKNS5_45NintendoAccountAuthorizationRequestParametersEONS0_12NativeHandleEj
 00000000:00000071000AEB30       _ZN2nn2sf4cmif6client6detail13CmifProxyImplINS_7account4baas12IManagerBaseENS2_15CmifDomainProxyINS0_4hipc6client38Hipc2ClientSessionManagedProxyKindBaseINSA_18Hipc2ProxyKindBaseILNS9_6detail11MessageTypeE4EEEEEEENS0_25StatelessAllocationPolicyINS0_22ExpHeapStaticAllocatorILm2048ENS5_6detail12ObjectHolder24ObjectHolderAllocatorTagEEEEENS6_22IManagerForApplicationEE17GetCmifBaseObjectEv
 00000000:00000071000AEB40       _ZThn32_N2nn2sf4cmif6client6detail13CmifProxyImplINS_7account4baas12IManagerBaseENS2_15CmifDomainProxyINS0_4hipc6client38Hipc2ClientSessionManagedProxyKindBaseINSA_18Hipc2ProxyKindBaseILNS9_6detail11MessageTypeE4EEEEEEENS0_25StatelessAllocationPolicyINS0_22ExpHeapStaticAllocatorILm2048ENS5_6detail12ObjectHolder24ObjectHolderAllocatorTagEEEEENS6_22IManagerForApplicationEE17GetCmifBaseObjectEv
 00000000:00000071000AEB48       _ZN2nn2sf4cmif6client32GetClientProcessorWithObjectBaseINS2_15CmifDomainProxyINS0_4hipc6client38Hipc2ClientSessionManagedProxyKindBaseINS6_18Hipc2ProxyKindBaseILNS5_6detail11MessageTypeE4EEEEEEEE14ObjectAssignerINS0_25StatelessAllocationPolicyINS0_22ExpHeapStaticAllocatorILm2048ENS_7account6detail12ObjectHolder24ObjectHolderAllocatorTagEEEEENS0_6detail23StatelessDummyAllocatorEE14AllocateObjectINSJ_13IAsyncContextEEEvi
 00000000:00000071000AEBFC       _ZN2nn2sf6detail39ObjectImplFactoryWithStatelessAllocatorINS0_4cmif6client16CmifProxyFactoryINS_7account6detail13IAsyncContextENS4_15CmifDomainProxyINS0_4hipc6client38Hipc2ClientSessionManagedProxyKindBaseINSB_18Hipc2ProxyKindBaseILNSA_6detail11MessageTypeE4EEEEEEENS0_25StatelessAllocationPolicyINS0_22ExpHeapStaticAllocatorILm2048ENS7_12ObjectHolder24ObjectHolderAllocatorTagEEEEEE13ServiceObjectESO_E6Object12AddReferenceEv
 00000000:00000071000AEC04       _ZN2nn2sf6detail39ObjectImplFactoryWithStatelessAllocatorINS0_4cmif6client16CmifProxyFactoryINS_7account6detail13IAsyncContextENS4_15CmifDomainProxyINS0_4hipc6client38Hipc2ClientSessionManagedProxyKindBaseINSB_18Hipc2ProxyKindBaseILNSA_6detail11MessageTypeE4EEEEEEENS0_25StatelessAllocationPolicyINS0_22ExpHeapStaticAllocatorILm2048ENS7_12ObjectHolder24ObjectHolderAllocatorTagEEEEEE13ServiceObjectESO_E6Object7ReleaseEv
 00000000:00000071000AEC78       _ZN2nn2sf4cmif6client6detail13CmifProxyImplINS_7account6detail13IAsyncContextENS2_15CmifDomainProxyINS0_4hipc6client38Hipc2ClientSessionManagedProxyKindBaseINSA_18Hipc2ProxyKindBaseILNS9_6detail11MessageTypeE4EEEEEEENS0_25StatelessAllocationPolicyINS0_22ExpHeapStaticAllocatorILm2048ENS6_12ObjectHolder24ObjectHolderAllocatorTagEEEEES7_E12GetProxyInfoEv
 00000000:00000071000AEC80       _ZN2nn2sf4cmif6client6detail13CmifProxyImplINS_7account6detail13IAsyncContextENS2_15CmifDomainProxyINS0_4hipc6client38Hipc2ClientSessionManagedProxyKindBaseINSA_18Hipc2ProxyKindBaseILNS9_6detail11MessageTypeE4EEEEEEENS0_25StatelessAllocationPolicyINS0_22ExpHeapStaticAllocatorILm2048ENS6_12ObjectHolder24ObjectHolderAllocatorTagEEEEES7_E26_nn_sf_sync_GetSystemEventENS0_3OutINS0_12NativeHandleEvEE
 00000000:00000071000AECA0       _ZN2nn2sf4cmif6client6detail13CmifProxyImplINS_7account6detail13IAsyncContextENS2_15CmifDomainProxyINS0_4hipc6client38Hipc2ClientSessionManagedProxyKindBaseINSA_18Hipc2ProxyKindBaseILNS9_6detail11MessageTypeE4EEEEEEENS0_25StatelessAllocationPolicyINS0_22ExpHeapStaticAllocatorILm2048ENS6_12ObjectHolder24ObjectHolderAllocatorTagEEEEES7_E18_nn_sf_sync_CancelEv
 00000000:00000071000AECC0       _ZN2nn2sf4cmif6client6detail13CmifProxyImplINS_7account6detail13IAsyncContextENS2_15CmifDomainProxyINS0_4hipc6client38Hipc2ClientSessionManagedProxyKindBaseINSA_18Hipc2ProxyKindBaseILNS9_6detail11MessageTypeE4EEEEEEENS0_25StatelessAllocationPolicyINS0_22ExpHeapStaticAllocatorILm2048ENS6_12ObjectHolder24ObjectHolderAllocatorTagEEEEES7_E19_nn_sf_sync_HasDoneENS0_3OutIbvEE
 00000000:00000071000AECE0       _ZN2nn2sf4cmif6client6detail13CmifProxyImplINS_7account6detail13IAsyncContextENS2_15CmifDomainProxyINS0_4hipc6client38Hipc2ClientSessionManagedProxyKindBaseINSA_18Hipc2ProxyKindBaseILNS9_6detail11MessageTypeE4EEEEEEENS0_25StatelessAllocationPolicyINS0_22ExpHeapStaticAllocatorILm2048ENS6_12ObjectHolder24ObjectHolderAllocatorTagEEEEES7_E21_nn_sf_sync_GetResultEv
 00000000:00000071000AED00       _ZN2nn2sf4cmif6client6detail13CmifProxyImplINS_7account6detail13IAsyncContextENS2_15CmifDomainProxyINS0_4hipc6client38Hipc2ClientSessionManagedProxyKindBaseINSA_18Hipc2ProxyKindBaseILNS9_6detail11MessageTypeE4EEEEEEENS0_25StatelessAllocationPolicyINS0_22ExpHeapStaticAllocatorILm2048ENS6_12ObjectHolder24ObjectHolderAllocatorTagEEEEES7_E17GetCmifBaseObjectEv
 00000000:00000071000AED10       _ZThn32_N2nn2sf4cmif6client6detail13CmifProxyImplINS_7account6detail13IAsyncContextENS2_15CmifDomainProxyINS0_4hipc6client38Hipc2ClientSessionManagedProxyKindBaseINSA_18Hipc2ProxyKindBaseILNS9_6detail11MessageTypeE4EEEEEEENS0_25StatelessAllocationPolicyINS0_22ExpHeapStaticAllocatorILm2048ENS6_12ObjectHolder24ObjectHolderAllocatorTagEEEEES7_E17GetCmifBaseObjectEv
 00000000:00000071000AED18       _ZN2nn2sf4cmif6client34CmifDomainProxyClientCoreProcessorINS0_4hipc6client38Hipc2ClientSessionManagedProxyKindBaseINS5_18Hipc2ProxyKindBaseILNS4_6detail11MessageTypeE4EEEEENS1_6detail14CoreMethodInfoINSt3__15tupleIJNSC_18OutRawArgumentInfoILm8ELm8ELl0EEENSC_18BufferArgumentInfoILi0ELi26ELm104EEENSI_ILi1ELi6ELm0EEEEEELm0ELm8ELb0EEESL_E7ProcessEPNS2_23CmifDomainClientMessageISB_E15ProxyBaseObjectENS2_24OutRawClientArgumentTypeILm8ELm8EEENS2_24BufferClientArgumentTypeESU_j
 00000000:00000071000AEF04       _ZN2nn2sf4cmif6client34CmifDomainProxyClientCoreProcessorINS0_4hipc6client38Hipc2ClientSessionManagedProxyKindBaseINS5_18Hipc2ProxyKindBaseILNS4_6detail11MessageTypeE4EEEEENS1_6detail14CoreMethodInfoINSt3__15tupleIJNSC_21OutObjectArgumentInfoILi0ELi0EEENSC_18BufferArgumentInfoILi0ELi25ELm512EEENSC_20InHandleArgumentInfoILi0ELi1EEENSC_17InRawArgumentInfoILm4ELm4ELl0EEEEEELm4ELm0ELb0EEESO_E21ProcessWithOutObjectsEPNS2_23CmifDomainClientMessageISB_E15ProxyBaseObjectENS2_27OutObjectClientArgumentTypeENS2_24BufferClientArgumentTypeENS2_26InHandleClientArgumentTypeENS2_23InRawClientArgumentTypeILm4ELm4EvEEjPNS0_13SharedPointerINS0_14IServiceObjectEEE
 00000000:00000071000AF19C       _ZN2nn2sf4cmif6client32GetClientProcessorWithObjectBaseINS2_15CmifDomainProxyINS0_4hipc6client38Hipc2ClientSessionManagedProxyKindBaseINS6_18Hipc2ProxyKindBaseILNS5_6detail11MessageTypeE4EEEEEEEE14ObjectAssignerINS0_25StatelessAllocationPolicyINS0_22ExpHeapStaticAllocatorILm2048ENS_7account6detail12ObjectHolder24ObjectHolderAllocatorTagEEEEENS0_6detail23StatelessDummyAllocatorEE14AllocateObjectINSI_3nas21IAuthorizationRequestEEEvi
 00000000:00000071000AF250       _ZN2nn2sf6detail39ObjectImplFactoryWithStatelessAllocatorINS0_4cmif6client16CmifProxyFactoryINS_7account3nas21IAuthorizationRequestENS4_15CmifDomainProxyINS0_4hipc6client38Hipc2ClientSessionManagedProxyKindBaseINSB_18Hipc2ProxyKindBaseILNSA_6detail11MessageTypeE4EEEEEEENS0_25StatelessAllocationPolicyINS0_22ExpHeapStaticAllocatorILm2048ENS6_6detail12ObjectHolder24ObjectHolderAllocatorTagEEEEEE13ServiceObjectESP_E6Object12AddReferenceEv
 00000000:00000071000AF258       _ZN2nn2sf6detail39ObjectImplFactoryWithStatelessAllocatorINS0_4cmif6client16CmifProxyFactoryINS_7account3nas21IAuthorizationRequestENS4_15CmifDomainProxyINS0_4hipc6client38Hipc2ClientSessionManagedProxyKindBaseINSB_18Hipc2ProxyKindBaseILNSA_6detail11MessageTypeE4EEEEEEENS0_25StatelessAllocationPolicyINS0_22ExpHeapStaticAllocatorILm2048ENS6_6detail12ObjectHolder24ObjectHolderAllocatorTagEEEEEE13ServiceObjectESP_E6Object7ReleaseEv
 00000000:00000071000AF2CC       _ZN2nn2sf4cmif6client6detail13CmifProxyImplINS_7account3nas21IAuthorizationRequestENS2_15CmifDomainProxyINS0_4hipc6client38Hipc2ClientSessionManagedProxyKindBaseINSA_18Hipc2ProxyKindBaseILNS9_6detail11MessageTypeE4EEEEEEENS0_25StatelessAllocationPolicyINS0_22ExpHeapStaticAllocatorILm2048ENS5_6detail12ObjectHolder24ObjectHolderAllocatorTagEEEEES7_E12GetProxyInfoEv
 00000000:00000071000AF2D4       _ZN2nn2sf4cmif6client6detail13CmifProxyImplINS_7account3nas21IAuthorizationRequestENS2_15CmifDomainProxyINS0_4hipc6client38Hipc2ClientSessionManagedProxyKindBaseINSA_18Hipc2ProxyKindBaseILNS9_6detail11MessageTypeE4EEEEEEENS0_25StatelessAllocationPolicyINS0_22ExpHeapStaticAllocatorILm2048ENS5_6detail12ObjectHolder24ObjectHolderAllocatorTagEEEEES7_E24_nn_sf_sync_GetSessionIdENS0_3OutINSK_4UuidEvEE
 00000000:00000071000AF2F4       _ZN2nn2sf4cmif6client6detail13CmifProxyImplINS_7account3nas21IAuthorizationRequestENS2_15CmifDomainProxyINS0_4hipc6client38Hipc2ClientSessionManagedProxyKindBaseINSA_18Hipc2ProxyKindBaseILNS9_6detail11MessageTypeE4EEEEEEENS0_25StatelessAllocationPolicyINS0_22ExpHeapStaticAllocatorILm2048ENS5_6detail12ObjectHolder24ObjectHolderAllocatorTagEEEEES7_E41_nn_sf_sync_InvokeWithoutInteractionAsyncENS0_3OutINS0_13SharedPointerINSK_13IAsyncContextEEEvEE
 00000000:00000071000AF37C       _ZN2nn2sf4cmif6client6detail13CmifProxyImplINS_7account3nas21IAuthorizationRequestENS2_15CmifDomainProxyINS0_4hipc6client38Hipc2ClientSessionManagedProxyKindBaseINSA_18Hipc2ProxyKindBaseILNS9_6detail11MessageTypeE4EEEEEEENS0_25StatelessAllocationPolicyINS0_22ExpHeapStaticAllocatorILm2048ENS5_6detail12ObjectHolder24ObjectHolderAllocatorTagEEEEES7_E24_nn_sf_sync_IsAuthorizedENS0_3OutIbvEE
 00000000:00000071000AF39C       _ZN2nn2sf4cmif6client6detail13CmifProxyImplINS_7account3nas21IAuthorizationRequestENS2_15CmifDomainProxyINS0_4hipc6client38Hipc2ClientSessionManagedProxyKindBaseINSA_18Hipc2ProxyKindBaseILNS9_6detail11MessageTypeE4EEEEEEENS0_25StatelessAllocationPolicyINS0_22ExpHeapStaticAllocatorILm2048ENS5_6detail12ObjectHolder24ObjectHolderAllocatorTagEEEEES7_E32_nn_sf_sync_GetAuthorizationCodeENS0_3OutIjvEERKNS0_9OutBufferE
 00000000:00000071000AF3C4       _ZN2nn2sf4cmif6client6detail13CmifProxyImplINS_7account3nas21IAuthorizationRequestENS2_15CmifDomainProxyINS0_4hipc6client38Hipc2ClientSessionManagedProxyKindBaseINSA_18Hipc2ProxyKindBaseILNS9_6detail11MessageTypeE4EEEEEEENS0_25StatelessAllocationPolicyINS0_22ExpHeapStaticAllocatorILm2048ENS5_6detail12ObjectHolder24ObjectHolderAllocatorTagEEEEES7_E22_nn_sf_sync_GetIdTokenENS0_3OutIjvEERKNS0_9OutBufferE
 00000000:00000071000AF3EC       _ZN2nn2sf4cmif6client6detail13CmifProxyImplINS_7account3nas21IAuthorizationRequestENS2_15CmifDomainProxyINS0_4hipc6client38Hipc2ClientSessionManagedProxyKindBaseINSA_18Hipc2ProxyKindBaseILNS9_6detail11MessageTypeE4EEEEEEENS0_25StatelessAllocationPolicyINS0_22ExpHeapStaticAllocatorILm2048ENS5_6detail12ObjectHolder24ObjectHolderAllocatorTagEEEEES7_E20_nn_sf_sync_GetStateENS0_3OutINS6_5StateEvEE
 00000000:00000071000AF410       _ZN2nn2sf4cmif6client6detail13CmifProxyImplINS_7account3nas21IAuthorizationRequestENS2_15CmifDomainProxyINS0_4hipc6client38Hipc2ClientSessionManagedProxyKindBaseINSA_18Hipc2ProxyKindBaseILNS9_6detail11MessageTypeE4EEEEEEENS0_25StatelessAllocationPolicyINS0_22ExpHeapStaticAllocatorILm2048ENS5_6detail12ObjectHolder24ObjectHolderAllocatorTagEEEEES7_E17GetCmifBaseObjectEv
 00000000:00000071000AF420       _ZThn32_N2nn2sf4cmif6client6detail13CmifProxyImplINS_7account3nas21IAuthorizationRequestENS2_15CmifDomainProxyINS0_4hipc6client38Hipc2ClientSessionManagedProxyKindBaseINSA_18Hipc2ProxyKindBaseILNS9_6detail11MessageTypeE4EEEEEEENS0_25StatelessAllocationPolicyINS0_22ExpHeapStaticAllocatorILm2048ENS5_6detail12ObjectHolder24ObjectHolderAllocatorTagEEEEES7_E17GetCmifBaseObjectEv
 00000000:00000071000AF428       _ZN2nn2sf4cmif6client34CmifDomainProxyClientCoreProcessorINS0_4hipc6client38Hipc2ClientSessionManagedProxyKindBaseINS5_18Hipc2ProxyKindBaseILNS4_6detail11MessageTypeE4EEEEENS1_6detail14CoreMethodInfoINSt3__15tupleIJNSC_18OutRawArgumentInfoILm16ELm4ELl0EEEEEELm0ELm16ELb0EEESI_E7ProcessEPNS2_23CmifDomainClientMessageISB_E15ProxyBaseObjectENS2_24OutRawClientArgumentTypeILm16ELm4EEEj
 00000000:00000071000AF578       _ZN2nn2sf4cmif6client34CmifDomainProxyClientCoreProcessorINS0_4hipc6client38Hipc2ClientSessionManagedProxyKindBaseINS5_18Hipc2ProxyKindBaseILNS4_6detail11MessageTypeE4EEEEENS1_6detail14CoreMethodInfoINSt3__15tupleIJNSC_18BufferArgumentInfoILi0ELi26ELm128EEEEEELm0ELm0ELb0EEESI_E7ProcessEPNS2_23CmifDomainClientMessageISB_E15ProxyBaseObjectENS2_24BufferClientArgumentTypeEj
 00000000:00000071000AF730       _ZN2nn2sf4cmif6client34CmifDomainProxyClientCoreProcessorINS0_4hipc6client38Hipc2ClientSessionManagedProxyKindBaseINS5_18Hipc2ProxyKindBaseILNS4_6detail11MessageTypeE4EEEEENS1_6detail14CoreMethodInfoINSt3__15tupleIJNSC_17InRawArgumentInfoILm16ELm8ELl0EEENSC_18BufferArgumentInfoILi0ELi5ELm0EEEEEELm16ELm0ELb0EEESK_E7ProcessEPNS2_23CmifDomainClientMessageISB_E15ProxyBaseObjectENS2_23InRawClientArgumentTypeILm16ELm8EvEENS2_24BufferClientArgumentTypeEj
 00000000:00000071000AF908       _ZN2nn2sf4cmif6client34CmifDomainProxyClientCoreProcessorINS0_4hipc6client38Hipc2ClientSessionManagedProxyKindBaseINS5_18Hipc2ProxyKindBaseILNS4_6detail11MessageTypeE4EEEEENS1_6detail14CoreMethodInfoINSt3__15tupleIJNSC_17InRawArgumentInfoILm16ELm8ELl0EEEEEELm16ELm0ELb0EEESI_E7ProcessEPNS2_23CmifDomainClientMessageISB_E15ProxyBaseObjectENS2_23InRawClientArgumentTypeILm16ELm8EvEEj
 00000000:00000071000AFA50       _ZN2nn2sf4cmif6client34CmifDomainProxyClientCoreProcessorINS0_4hipc6client38Hipc2ClientSessionManagedProxyKindBaseINS5_18Hipc2ProxyKindBaseILNS4_6detail11MessageTypeE4EEEEENS1_6detail14CoreMethodInfoINSt3__15tupleIJNSC_21OutObjectArgumentInfoILi0ELi0EEENSC_20InHandleArgumentInfoILi0ELi1EEENSC_17InRawArgumentInfoILm4ELm4ELl0EEEEEELm4ELm0ELb0EEESM_E21ProcessWithOutObjectsEPNS2_23CmifDomainClientMessageISB_E15ProxyBaseObjectENS2_27OutObjectClientArgumentTypeENS2_26InHandleClientArgumentTypeENS2_23InRawClientArgumentTypeILm4ELm4EvEEjPNS0_13SharedPointerINS0_14IServiceObjectEEE
 00000000:00000071000AFC54       _ZN2nn2sf4cmif6client32GetClientProcessorWithObjectBaseINS2_15CmifDomainProxyINS0_4hipc6client38Hipc2ClientSessionManagedProxyKindBaseINS6_18Hipc2ProxyKindBaseILNS5_6detail11MessageTypeE4EEEEEEEE14ObjectAssignerINS0_25StatelessAllocationPolicyINS0_22ExpHeapStaticAllocatorILm2048ENS_7account6detail12ObjectHolder24ObjectHolderAllocatorTagEEEEENS0_6detail23StatelessDummyAllocatorEE14AllocateObjectINSI_4baas18IGuestLoginRequestEEEvi
 00000000:00000071000AFD08       _ZN2nn2sf6detail39ObjectImplFactoryWithStatelessAllocatorINS0_4cmif6client16CmifProxyFactoryINS_7account4baas18IGuestLoginRequestENS4_15CmifDomainProxyINS0_4hipc6client38Hipc2ClientSessionManagedProxyKindBaseINSB_18Hipc2ProxyKindBaseILNSA_6detail11MessageTypeE4EEEEEEENS0_25StatelessAllocationPolicyINS0_22ExpHeapStaticAllocatorILm2048ENS6_6detail12ObjectHolder24ObjectHolderAllocatorTagEEEEEE13ServiceObjectESP_E6Object12AddReferenceEv
 00000000:00000071000AFD10       _ZN2nn2sf6detail39ObjectImplFactoryWithStatelessAllocatorINS0_4cmif6client16CmifProxyFactoryINS_7account4baas18IGuestLoginRequestENS4_15CmifDomainProxyINS0_4hipc6client38Hipc2ClientSessionManagedProxyKindBaseINSB_18Hipc2ProxyKindBaseILNSA_6detail11MessageTypeE4EEEEEEENS0_25StatelessAllocationPolicyINS0_22ExpHeapStaticAllocatorILm2048ENS6_6detail12ObjectHolder24ObjectHolderAllocatorTagEEEEEE13ServiceObjectESP_E6Object7ReleaseEv
 00000000:00000071000AFD84       _ZN2nn2sf4cmif6client6detail13CmifProxyImplINS_7account4baas18IGuestLoginRequestENS2_15CmifDomainProxyINS0_4hipc6client38Hipc2ClientSessionManagedProxyKindBaseINSA_18Hipc2ProxyKindBaseILNS9_6detail11MessageTypeE4EEEEEEENS0_25StatelessAllocationPolicyINS0_22ExpHeapStaticAllocatorILm2048ENS5_6detail12ObjectHolder24ObjectHolderAllocatorTagEEEEES7_E12GetProxyInfoEv
 00000000:00000071000AFD8C       _ZN2nn2sf4cmif6client6detail13CmifProxyImplINS_7account4baas18IGuestLoginRequestENS2_15CmifDomainProxyINS0_4hipc6client38Hipc2ClientSessionManagedProxyKindBaseINSA_18Hipc2ProxyKindBaseILNS9_6detail11MessageTypeE4EEEEEEENS0_25StatelessAllocationPolicyINS0_22ExpHeapStaticAllocatorILm2048ENS5_6detail12ObjectHolder24ObjectHolderAllocatorTagEEEEES7_E24_nn_sf_sync_GetSessionIdENS0_3OutINSK_4UuidEvEE
 00000000:00000071000AFDAC       _ZN2nn2sf4cmif6client6detail13CmifProxyImplINS_7account4baas18IGuestLoginRequestENS2_15CmifDomainProxyINS0_4hipc6client38Hipc2ClientSessionManagedProxyKindBaseINSA_18Hipc2ProxyKindBaseILNS9_6detail11MessageTypeE4EEEEEEENS0_25StatelessAllocationPolicyINS0_22ExpHeapStaticAllocatorILm2048ENS5_6detail12ObjectHolder24ObjectHolderAllocatorTagEEEEES7_E24_nn_sf_sync_GetAccountIdENS0_3OutINS5_23NetworkServiceAccountIdEvEE
 00000000:00000071000AFDCC       _ZN2nn2sf4cmif6client6detail13CmifProxyImplINS_7account4baas18IGuestLoginRequestENS2_15CmifDomainProxyINS0_4hipc6client38Hipc2ClientSessionManagedProxyKindBaseINSA_18Hipc2ProxyKindBaseILNS9_6detail11MessageTypeE4EEEEEEENS0_25StatelessAllocationPolicyINS0_22ExpHeapStaticAllocatorILm2048ENS5_6detail12ObjectHolder24ObjectHolderAllocatorTagEEEEES7_E38_nn_sf_sync_GetLinkedNintendoAccountIdENS0_3OutINS5_17NintendoAccountIdEvEE
 00000000:00000071000AFDEC       _ZN2nn2sf4cmif6client6detail13CmifProxyImplINS_7account4baas18IGuestLoginRequestENS2_15CmifDomainProxyINS0_4hipc6client38Hipc2ClientSessionManagedProxyKindBaseINSA_18Hipc2ProxyKindBaseILNS9_6detail11MessageTypeE4EEEEEEENS0_25StatelessAllocationPolicyINS0_22ExpHeapStaticAllocatorILm2048ENS5_6detail12ObjectHolder24ObjectHolderAllocatorTagEEEEES7_E23_nn_sf_sync_GetNicknameERKNS0_8OutArrayIcEE
 00000000:00000071000AFE14       _ZN2nn2sf4cmif6client6detail13CmifProxyImplINS_7account4baas18IGuestLoginRequestENS2_15CmifDomainProxyINS0_4hipc6client38Hipc2ClientSessionManagedProxyKindBaseINSA_18Hipc2ProxyKindBaseILNS9_6detail11MessageTypeE4EEEEEEENS0_25StatelessAllocationPolicyINS0_22ExpHeapStaticAllocatorILm2048ENS5_6detail12ObjectHolder24ObjectHolderAllocatorTagEEEEES7_E27_nn_sf_sync_GetProfileImageENS0_3OutIjvEERKNS0_9OutBufferE
 00000000:00000071000AFE3C       _ZN2nn2sf4cmif6client6detail13CmifProxyImplINS_7account4baas18IGuestLoginRequestENS2_15CmifDomainProxyINS0_4hipc6client38Hipc2ClientSessionManagedProxyKindBaseINSA_18Hipc2ProxyKindBaseILNS9_6detail11MessageTypeE4EEEEEEENS0_25StatelessAllocationPolicyINS0_22ExpHeapStaticAllocatorILm2048ENS5_6detail12ObjectHolder24ObjectHolderAllocatorTagEEEEES7_E28_nn_sf_sync_LoadIdTokenCacheENS0_3OutIjvEERKNS0_9OutBufferE
 00000000:00000071000AFE64       _ZN2nn2sf4cmif6client6detail13CmifProxyImplINS_7account4baas18IGuestLoginRequestENS2_15CmifDomainProxyINS0_4hipc6client38Hipc2ClientSessionManagedProxyKindBaseINSA_18Hipc2ProxyKindBaseILNS9_6detail11MessageTypeE4EEEEEEENS0_25StatelessAllocationPolicyINS0_22ExpHeapStaticAllocatorILm2048ENS5_6detail12ObjectHolder24ObjectHolderAllocatorTagEEEEES7_E17GetCmifBaseObjectEv
 00000000:00000071000AFE74       _ZThn32_N2nn2sf4cmif6client6detail13CmifProxyImplINS_7account4baas18IGuestLoginRequestENS2_15CmifDomainProxyINS0_4hipc6client38Hipc2ClientSessionManagedProxyKindBaseINSA_18Hipc2ProxyKindBaseILNS9_6detail11MessageTypeE4EEEEEEENS0_25StatelessAllocationPolicyINS0_22ExpHeapStaticAllocatorILm2048ENS5_6detail12ObjectHolder24ObjectHolderAllocatorTagEEEEES7_E17GetCmifBaseObjectEv
 00000000:00000071000AFE7C       _ZN2nn7account6detail12ObjectHolder11AcquireImplINS0_31IAccountServiceForSystemServiceEEENS_6ResultEPPT_PKc
 00000000:00000071000AFF74       _ZN2nn2sf4hipc6client34HipcSimpleClientSessionManagerBase4Impl18InitializeByHandleINS_7account31IAccountServiceForSystemServiceENS0_25StatelessAllocationPolicyINS0_22ExpHeapStaticAllocatorILm2048ENS6_6detail12ObjectHolder24ObjectHolderAllocatorTagEEEEEEENS_6ResultEPNS0_13SharedPointerIT_EENS_3svc6HandleE
 00000000:00000071000B0088       _ZN2nn2sf6detail39ObjectImplFactoryWithStatelessAllocatorINS0_4cmif6client16CmifProxyFactoryINS_7account31IAccountServiceForSystemServiceENS4_15CmifDomainProxyINS0_4hipc6client38Hipc2ClientSessionManagedProxyKindBaseINSA_18Hipc2ProxyKindBaseILNS9_6detail11MessageTypeE4EEEEEEENS0_25StatelessAllocationPolicyINS0_22ExpHeapStaticAllocatorILm2048ENS6_6detail12ObjectHolder24ObjectHolderAllocatorTagEEEEEE13ServiceObjectESO_E6Object12AddReferenceEv
 00000000:00000071000B0090       _ZN2nn2sf6detail39ObjectImplFactoryWithStatelessAllocatorINS0_4cmif6client16CmifProxyFactoryINS_7account31IAccountServiceForSystemServiceENS4_15CmifDomainProxyINS0_4hipc6client38Hipc2ClientSessionManagedProxyKindBaseINSA_18Hipc2ProxyKindBaseILNS9_6detail11MessageTypeE4EEEEEEENS0_25StatelessAllocationPolicyINS0_22ExpHeapStaticAllocatorILm2048ENS6_6detail12ObjectHolder24ObjectHolderAllocatorTagEEEEEE13ServiceObjectESO_E6Object7ReleaseEv
 00000000:00000071000B0104       _ZN2nn2sf4cmif6client6detail13CmifProxyImplINS_7account19IAccountServiceBaseENS2_15CmifDomainProxyINS0_4hipc6client38Hipc2ClientSessionManagedProxyKindBaseINS9_18Hipc2ProxyKindBaseILNS8_6detail11MessageTypeE4EEEEEEENS0_25StatelessAllocationPolicyINS0_22ExpHeapStaticAllocatorILm2048ENS5_6detail12ObjectHolder24ObjectHolderAllocatorTagEEEEENS5_31IAccountServiceForSystemServiceEE12GetProxyInfoEv
 00000000:00000071000B010C       _ZN2nn2sf4cmif6client6detail13CmifProxyImplINS_7account19IAccountServiceBaseENS2_15CmifDomainProxyINS0_4hipc6client38Hipc2ClientSessionManagedProxyKindBaseINS9_18Hipc2ProxyKindBaseILNS8_6detail11MessageTypeE4EEEEEEENS0_25StatelessAllocationPolicyINS0_22ExpHeapStaticAllocatorILm2048ENS5_6detail12ObjectHolder24ObjectHolderAllocatorTagEEEEENS5_31IAccountServiceForSystemServiceEE24_nn_sf_sync_GetUserCountENS0_3OutIivEE
 00000000:00000071000B012C       _ZN2nn2sf4cmif6client6detail13CmifProxyImplINS_7account19IAccountServiceBaseENS2_15CmifDomainProxyINS0_4hipc6client38Hipc2ClientSessionManagedProxyKindBaseINS9_18Hipc2ProxyKindBaseILNS8_6detail11MessageTypeE4EEEEEEENS0_25StatelessAllocationPolicyINS0_22ExpHeapStaticAllocatorILm2048ENS5_6detail12ObjectHolder24ObjectHolderAllocatorTagEEEEENS5_31IAccountServiceForSystemServiceEE28_nn_sf_sync_GetUserExistenceENS0_3OutIbvEERKNS5_3UidE
 00000000:00000071000B014C       _ZN2nn2sf4cmif6client6detail13CmifProxyImplINS_7account19IAccountServiceBaseENS2_15CmifDomainProxyINS0_4hipc6client38Hipc2ClientSessionManagedProxyKindBaseINS9_18Hipc2ProxyKindBaseILNS8_6detail11MessageTypeE4EEEEEEENS0_25StatelessAllocationPolicyINS0_22ExpHeapStaticAllocatorILm2048ENS5_6detail12ObjectHolder24ObjectHolderAllocatorTagEEEEENS5_31IAccountServiceForSystemServiceEE24_nn_sf_sync_ListAllUsersERKNS0_8OutArrayINS5_3UidEEE
 00000000:00000071000B0178       _ZN2nn2sf4cmif6client6detail13CmifProxyImplINS_7account19IAccountServiceBaseENS2_15CmifDomainProxyINS0_4hipc6client38Hipc2ClientSessionManagedProxyKindBaseINS9_18Hipc2ProxyKindBaseILNS8_6detail11MessageTypeE4EEEEEEENS0_25StatelessAllocationPolicyINS0_22ExpHeapStaticAllocatorILm2048ENS5_6detail12ObjectHolder24ObjectHolderAllocatorTagEEEEENS5_31IAccountServiceForSystemServiceEE25_nn_sf_sync_ListOpenUsersERKNS0_8OutArrayINS5_3UidEEE
 00000000:00000071000B01A4       _ZN2nn2sf4cmif6client6detail13CmifProxyImplINS_7account19IAccountServiceBaseENS2_15CmifDomainProxyINS0_4hipc6client38Hipc2ClientSessionManagedProxyKindBaseINS9_18Hipc2ProxyKindBaseILNS8_6detail11MessageTypeE4EEEEEEENS0_25StatelessAllocationPolicyINS0_22ExpHeapStaticAllocatorILm2048ENS5_6detail12ObjectHolder24ObjectHolderAllocatorTagEEEEENS5_31IAccountServiceForSystemServiceEE29_nn_sf_sync_GetLastOpenedUserENS0_3OutINS5_3UidEvEE
 00000000:00000071000B01C4       _ZN2nn2sf4cmif6client6detail13CmifProxyImplINS_7account19IAccountServiceBaseENS2_15CmifDomainProxyINS0_4hipc6client38Hipc2ClientSessionManagedProxyKindBaseINS9_18Hipc2ProxyKindBaseILNS8_6detail11MessageTypeE4EEEEEEENS0_25StatelessAllocationPolicyINS0_22ExpHeapStaticAllocatorILm2048ENS5_6detail12ObjectHolder24ObjectHolderAllocatorTagEEEEENS5_31IAccountServiceForSystemServiceEE22_nn_sf_sync_GetProfileENS0_3OutINS0_13SharedPointerINS5_7profile8IProfileEEEvEERKNS5_3UidE
 00000000:00000071000B0258       _ZN2nn2sf4cmif6client6detail13CmifProxyImplINS_7account19IAccountServiceBaseENS2_15CmifDomainProxyINS0_4hipc6client38Hipc2ClientSessionManagedProxyKindBaseINS9_18Hipc2ProxyKindBaseILNS8_6detail11MessageTypeE4EEEEEEENS0_25StatelessAllocationPolicyINS0_22ExpHeapStaticAllocatorILm2048ENS5_6detail12ObjectHolder24ObjectHolderAllocatorTagEEEEENS5_31IAccountServiceForSystemServiceEE28_nn_sf_sync_GetProfileDigestENS0_3OutINS5_13ProfileDigestEvEERKNS5_3UidE
 00000000:00000071000B0278       _ZN2nn2sf4cmif6client6detail13CmifProxyImplINS_7account19IAccountServiceBaseENS2_15CmifDomainProxyINS0_4hipc6client38Hipc2ClientSessionManagedProxyKindBaseINS9_18Hipc2ProxyKindBaseILNS8_6detail11MessageTypeE4EEEEEEENS0_25StatelessAllocationPolicyINS0_22ExpHeapStaticAllocatorILm2048ENS5_6detail12ObjectHolder24ObjectHolderAllocatorTagEEEEENS5_31IAccountServiceForSystemServiceEE46_nn_sf_sync_IsUserRegistrationRequestPermittedENS0_3OutIbvEEm
 00000000:00000071000B0298       _ZN2nn2sf4cmif6client6detail13CmifProxyImplINS_7account19IAccountServiceBaseENS2_15CmifDomainProxyINS0_4hipc6client38Hipc2ClientSessionManagedProxyKindBaseINS9_18Hipc2ProxyKindBaseILNS8_6detail11MessageTypeE4EEEEEEENS0_25StatelessAllocationPolicyINS0_22ExpHeapStaticAllocatorILm2048ENS5_6detail12ObjectHolder24ObjectHolderAllocatorTagEEEEENS5_31IAccountServiceForSystemServiceEE43_nn_sf_sync_TrySelectUserWithoutInteractionENS0_3OutINS5_3UidEvEEb
 00000000:00000071000B02BC       _ZN2nn2sf4cmif6client6detail13CmifProxyImplINS_7account31IAccountServiceForSystemServiceENS2_15CmifDomainProxyINS0_4hipc6client38Hipc2ClientSessionManagedProxyKindBaseINS9_18Hipc2ProxyKindBaseILNS8_6detail11MessageTypeE4EEEEEEENS0_25StatelessAllocationPolicyINS0_22ExpHeapStaticAllocatorILm2048ENS5_6detail12ObjectHolder24ObjectHolderAllocatorTagEEEEES6_E39_nn_sf_sync_GetUserRegistrationNotifierENS0_3OutINS0_13SharedPointerINSJ_9INotifierEEEvEE
 00000000:00000071000B0344       _ZN2nn2sf4cmif6client6detail13CmifProxyImplINS_7account31IAccountServiceForSystemServiceENS2_15CmifDomainProxyINS0_4hipc6client38Hipc2ClientSessionManagedProxyKindBaseINS9_18Hipc2ProxyKindBaseILNS8_6detail11MessageTypeE4EEEEEEENS0_25StatelessAllocationPolicyINS0_22ExpHeapStaticAllocatorILm2048ENS5_6detail12ObjectHolder24ObjectHolderAllocatorTagEEEEES6_E38_nn_sf_sync_GetUserStateChangeNotifierENS0_3OutINS0_13SharedPointerINSJ_9INotifierEEEvEE
 00000000:00000071000B03CC       _ZN2nn2sf4cmif6client6detail13CmifProxyImplINS_7account31IAccountServiceForSystemServiceENS2_15CmifDomainProxyINS0_4hipc6client38Hipc2ClientSessionManagedProxyKindBaseINS9_18Hipc2ProxyKindBaseILNS8_6detail11MessageTypeE4EEEEEEENS0_25StatelessAllocationPolicyINS0_22ExpHeapStaticAllocatorILm2048ENS5_6detail12ObjectHolder24ObjectHolderAllocatorTagEEEEES6_E49_nn_sf_sync_GetBaasAccountManagerForSystemServiceENS0_3OutINS0_13SharedPointerINS5_4baas24IManagerForSystemServiceEEEvEERKNS5_3UidE
 00000000:00000071000B0460       _ZN2nn2sf4cmif6client6detail13CmifProxyImplINS_7account31IAccountServiceForSystemServiceENS2_15CmifDomainProxyINS0_4hipc6client38Hipc2ClientSessionManagedProxyKindBaseINS9_18Hipc2ProxyKindBaseILNS8_6detail11MessageTypeE4EEEEEEENS0_25StatelessAllocationPolicyINS0_22ExpHeapStaticAllocatorILm2048ENS5_6detail12ObjectHolder24ObjectHolderAllocatorTagEEEEES6_E49_nn_sf_sync_GetBaasUserAvailabilityChangeNotifierENS0_3OutINS0_13SharedPointerINSJ_9INotifierEEEvEE
 00000000:00000071000B04E8       _ZN2nn2sf4cmif6client6detail13CmifProxyImplINS_7account31IAccountServiceForSystemServiceENS2_15CmifDomainProxyINS0_4hipc6client38Hipc2ClientSessionManagedProxyKindBaseINS9_18Hipc2ProxyKindBaseILNS8_6detail11MessageTypeE4EEEEEEENS0_25StatelessAllocationPolicyINS0_22ExpHeapStaticAllocatorILm2048ENS5_6detail12ObjectHolder24ObjectHolderAllocatorTagEEEEES6_E36_nn_sf_sync_GetProfileUpdateNotifierENS0_3OutINS0_13SharedPointerINSJ_9INotifierEEEvEE
 00000000:00000071000B0570       _ZN2nn2sf4cmif6client6detail13CmifProxyImplINS_7account31IAccountServiceForSystemServiceENS2_15CmifDomainProxyINS0_4hipc6client38Hipc2ClientSessionManagedProxyKindBaseINS9_18Hipc2ProxyKindBaseILNS8_6detail11MessageTypeE4EEEEEEENS0_25StatelessAllocationPolicyINS0_22ExpHeapStaticAllocatorILm2048ENS5_6detail12ObjectHolder24ObjectHolderAllocatorTagEEEEES6_E34_nn_sf_sync_StoreSaveDataThumbnailERKNS5_3UidENS_13ApplicationIdERKNS0_8InBufferE
 00000000:00000071000B0598       _ZN2nn2sf4cmif6client6detail13CmifProxyImplINS_7account31IAccountServiceForSystemServiceENS2_15CmifDomainProxyINS0_4hipc6client38Hipc2ClientSessionManagedProxyKindBaseINS9_18Hipc2ProxyKindBaseILNS8_6detail11MessageTypeE4EEEEEEENS0_25StatelessAllocationPolicyINS0_22ExpHeapStaticAllocatorILm2048ENS5_6detail12ObjectHolder24ObjectHolderAllocatorTagEEEEES6_E34_nn_sf_sync_ClearSaveDataThumbnailERKNS5_3UidENS_13ApplicationIdE
 00000000:00000071000B05B8       _ZN2nn2sf4cmif6client6detail13CmifProxyImplINS_7account31IAccountServiceForSystemServiceENS2_15CmifDomainProxyINS0_4hipc6client38Hipc2ClientSessionManagedProxyKindBaseINS9_18Hipc2ProxyKindBaseILNS8_6detail11MessageTypeE4EEEEEEENS0_25StatelessAllocationPolicyINS0_22ExpHeapStaticAllocatorILm2048ENS5_6detail12ObjectHolder24ObjectHolderAllocatorTagEEEEES6_E33_nn_sf_sync_LoadSaveDataThumbnailENS0_3OutIjvEERKNS0_9OutBufferERKNS5_3UidENS_13ApplicationIdE
 00000000:00000071000B05F0       _ZN2nn2sf4cmif6client6detail13CmifProxyImplINS_7account31IAccountServiceForSystemServiceENS2_15CmifDomainProxyINS0_4hipc6client38Hipc2ClientSessionManagedProxyKindBaseINS9_18Hipc2ProxyKindBaseILNS8_6detail11MessageTypeE4EEEEEEENS0_25StatelessAllocationPolicyINS0_22ExpHeapStaticAllocatorILm2048ENS5_6detail12ObjectHolder24ObjectHolderAllocatorTagEEEEES6_E40_nn_sf_sync_GetUserLastOpenedApplicationENS0_3OutINS_13ApplicationIdEvEENSP_IjvEERKNS5_3UidE
 00000000:00000071000B0610       _ZN2nn2sf4cmif6client6detail13CmifProxyImplINS_7account31IAccountServiceForSystemServiceENS2_15CmifDomainProxyINS0_4hipc6client38Hipc2ClientSessionManagedProxyKindBaseINS9_18Hipc2ProxyKindBaseILNS8_6detail11MessageTypeE4EEEEEEENS0_25StatelessAllocationPolicyINS0_22ExpHeapStaticAllocatorILm2048ENS5_6detail12ObjectHolder24ObjectHolderAllocatorTagEEEEES6_E44_nn_sf_sync_DebugInvalidateTokenCacheForUserERKNS5_3UidE
 00000000:00000071000B0630       _ZN2nn2sf4cmif6client6detail13CmifProxyImplINS_7account31IAccountServiceForSystemServiceENS2_15CmifDomainProxyINS0_4hipc6client38Hipc2ClientSessionManagedProxyKindBaseINS9_18Hipc2ProxyKindBaseILNS8_6detail11MessageTypeE4EEEEEEENS0_25StatelessAllocationPolicyINS0_22ExpHeapStaticAllocatorILm2048ENS5_6detail12ObjectHolder24ObjectHolderAllocatorTagEEEEES6_E34_nn_sf_sync_DebugSetUserStateCloseERKNS5_3UidE
 00000000:00000071000B0650       _ZN2nn2sf4cmif6client6detail13CmifProxyImplINS_7account31IAccountServiceForSystemServiceENS2_15CmifDomainProxyINS0_4hipc6client38Hipc2ClientSessionManagedProxyKindBaseINS9_18Hipc2ProxyKindBaseILNS8_6detail11MessageTypeE4EEEEEEENS0_25StatelessAllocationPolicyINS0_22ExpHeapStaticAllocatorILm2048ENS5_6detail12ObjectHolder24ObjectHolderAllocatorTagEEEEES6_E33_nn_sf_sync_DebugSetUserStateOpenERKNS5_3UidE
 00000000:00000071000B0670       _ZN2nn2sf4cmif6client6detail13CmifProxyImplINS_7account19IAccountServiceBaseENS2_15CmifDomainProxyINS0_4hipc6client38Hipc2ClientSessionManagedProxyKindBaseINS9_18Hipc2ProxyKindBaseILNS8_6detail11MessageTypeE4EEEEEEENS0_25StatelessAllocationPolicyINS0_22ExpHeapStaticAllocatorILm2048ENS5_6detail12ObjectHolder24ObjectHolderAllocatorTagEEEEENS5_31IAccountServiceForSystemServiceEE17GetCmifBaseObjectEv
 00000000:00000071000B0680       _ZThn32_N2nn2sf4cmif6client6detail13CmifProxyImplINS_7account19IAccountServiceBaseENS2_15CmifDomainProxyINS0_4hipc6client38Hipc2ClientSessionManagedProxyKindBaseINS9_18Hipc2ProxyKindBaseILNS8_6detail11MessageTypeE4EEEEEEENS0_25StatelessAllocationPolicyINS0_22ExpHeapStaticAllocatorILm2048ENS5_6detail12ObjectHolder24ObjectHolderAllocatorTagEEEEENS5_31IAccountServiceForSystemServiceEE17GetCmifBaseObjectEv
 00000000:00000071000B0688       _ZN2nn2sf4cmif6client32GetClientProcessorWithObjectBaseINS2_15CmifDomainProxyINS0_4hipc6client38Hipc2ClientSessionManagedProxyKindBaseINS6_18Hipc2ProxyKindBaseILNS5_6detail11MessageTypeE4EEEEEEEE14ObjectAssignerINS0_25StatelessAllocationPolicyINS0_22ExpHeapStaticAllocatorILm2048ENS_7account6detail12ObjectHolder24ObjectHolderAllocatorTagEEEEENS0_6detail23StatelessDummyAllocatorEE14AllocateObjectINSJ_9INotifierEEEvi
 00000000:00000071000B073C       _ZN2nn2sf6detail39ObjectImplFactoryWithStatelessAllocatorINS0_4cmif6client16CmifProxyFactoryINS_7account6detail9INotifierENS4_15CmifDomainProxyINS0_4hipc6client38Hipc2ClientSessionManagedProxyKindBaseINSB_18Hipc2ProxyKindBaseILNSA_6detail11MessageTypeE4EEEEEEENS0_25StatelessAllocationPolicyINS0_22ExpHeapStaticAllocatorILm2048ENS7_12ObjectHolder24ObjectHolderAllocatorTagEEEEEE13ServiceObjectESO_E6Object12AddReferenceEv
 00000000:00000071000B0744       _ZN2nn2sf6detail39ObjectImplFactoryWithStatelessAllocatorINS0_4cmif6client16CmifProxyFactoryINS_7account6detail9INotifierENS4_15CmifDomainProxyINS0_4hipc6client38Hipc2ClientSessionManagedProxyKindBaseINSB_18Hipc2ProxyKindBaseILNSA_6detail11MessageTypeE4EEEEEEENS0_25StatelessAllocationPolicyINS0_22ExpHeapStaticAllocatorILm2048ENS7_12ObjectHolder24ObjectHolderAllocatorTagEEEEEE13ServiceObjectESO_E6Object7ReleaseEv
 00000000:00000071000B07B8       _ZN2nn2sf4cmif6client6detail13CmifProxyImplINS_7account6detail9INotifierENS2_15CmifDomainProxyINS0_4hipc6client38Hipc2ClientSessionManagedProxyKindBaseINSA_18Hipc2ProxyKindBaseILNS9_6detail11MessageTypeE4EEEEEEENS0_25StatelessAllocationPolicyINS0_22ExpHeapStaticAllocatorILm2048ENS6_12ObjectHolder24ObjectHolderAllocatorTagEEEEES7_E12GetProxyInfoEv
 00000000:00000071000B07C0       _ZN2nn2sf4cmif6client6detail13CmifProxyImplINS_7account6detail9INotifierENS2_15CmifDomainProxyINS0_4hipc6client38Hipc2ClientSessionManagedProxyKindBaseINSA_18Hipc2ProxyKindBaseILNS9_6detail11MessageTypeE4EEEEEEENS0_25StatelessAllocationPolicyINS0_22ExpHeapStaticAllocatorILm2048ENS6_12ObjectHolder24ObjectHolderAllocatorTagEEEEES7_E26_nn_sf_sync_GetSystemEventENS0_3OutINS0_12NativeHandleEvEE
 00000000:00000071000B07E0       _ZN2nn2sf4cmif6client6detail13CmifProxyImplINS_7account6detail9INotifierENS2_15CmifDomainProxyINS0_4hipc6client38Hipc2ClientSessionManagedProxyKindBaseINSA_18Hipc2ProxyKindBaseILNS9_6detail11MessageTypeE4EEEEEEENS0_25StatelessAllocationPolicyINS0_22ExpHeapStaticAllocatorILm2048ENS6_12ObjectHolder24ObjectHolderAllocatorTagEEEEES7_E17GetCmifBaseObjectEv
 00000000:00000071000B07F0       _ZThn32_N2nn2sf4cmif6client6detail13CmifProxyImplINS_7account6detail9INotifierENS2_15CmifDomainProxyINS0_4hipc6client38Hipc2ClientSessionManagedProxyKindBaseINSA_18Hipc2ProxyKindBaseILNS9_6detail11MessageTypeE4EEEEEEENS0_25StatelessAllocationPolicyINS0_22ExpHeapStaticAllocatorILm2048ENS6_12ObjectHolder24ObjectHolderAllocatorTagEEEEES7_E17GetCmifBaseObjectEv
 00000000:00000071000B07F8       _ZN2nn2sf4cmif6client32GetClientProcessorWithObjectBaseINS2_15CmifDomainProxyINS0_4hipc6client38Hipc2ClientSessionManagedProxyKindBaseINS6_18Hipc2ProxyKindBaseILNS5_6detail11MessageTypeE4EEEEEEEE14ObjectAssignerINS0_25StatelessAllocationPolicyINS0_22ExpHeapStaticAllocatorILm2048ENS_7account6detail12ObjectHolder24ObjectHolderAllocatorTagEEEEENS0_6detail23StatelessDummyAllocatorEE14AllocateObjectINSI_4baas24IManagerForSystemServiceEEEvi
 00000000:00000071000B08AC       _ZN2nn2sf6detail39ObjectImplFactoryWithStatelessAllocatorINS0_4cmif6client16CmifProxyFactoryINS_7account4baas24IManagerForSystemServiceENS4_15CmifDomainProxyINS0_4hipc6client38Hipc2ClientSessionManagedProxyKindBaseINSB_18Hipc2ProxyKindBaseILNSA_6detail11MessageTypeE4EEEEEEENS0_25StatelessAllocationPolicyINS0_22ExpHeapStaticAllocatorILm2048ENS6_6detail12ObjectHolder24ObjectHolderAllocatorTagEEEEEE13ServiceObjectESP_E6Object12AddReferenceEv
 00000000:00000071000B08B4       _ZN2nn2sf6detail39ObjectImplFactoryWithStatelessAllocatorINS0_4cmif6client16CmifProxyFactoryINS_7account4baas24IManagerForSystemServiceENS4_15CmifDomainProxyINS0_4hipc6client38Hipc2ClientSessionManagedProxyKindBaseINSB_18Hipc2ProxyKindBaseILNSA_6detail11MessageTypeE4EEEEEEENS0_25StatelessAllocationPolicyINS0_22ExpHeapStaticAllocatorILm2048ENS6_6detail12ObjectHolder24ObjectHolderAllocatorTagEEEEEE13ServiceObjectESP_E6Object7ReleaseEv
 00000000:00000071000B0928       _ZN2nn2sf4cmif6client6detail13CmifProxyImplINS_7account4baas12IManagerBaseENS2_15CmifDomainProxyINS0_4hipc6client38Hipc2ClientSessionManagedProxyKindBaseINSA_18Hipc2ProxyKindBaseILNS9_6detail11MessageTypeE4EEEEEEENS0_25StatelessAllocationPolicyINS0_22ExpHeapStaticAllocatorILm2048ENS5_6detail12ObjectHolder24ObjectHolderAllocatorTagEEEEENS6_24IManagerForSystemServiceEE12GetProxyInfoEv
 00000000:00000071000B0930       _ZN2nn2sf4cmif6client6detail13CmifProxyImplINS_7account4baas12IManagerBaseENS2_15CmifDomainProxyINS0_4hipc6client38Hipc2ClientSessionManagedProxyKindBaseINSA_18Hipc2ProxyKindBaseILNS9_6detail11MessageTypeE4EEEEEEENS0_25StatelessAllocationPolicyINS0_22ExpHeapStaticAllocatorILm2048ENS5_6detail12ObjectHolder24ObjectHolderAllocatorTagEEEEENS6_24IManagerForSystemServiceEE29_nn_sf_sync_CheckAvailabilityEv
 00000000:00000071000B0950       _ZN2nn2sf4cmif6client6detail13CmifProxyImplINS_7account4baas12IManagerBaseENS2_15CmifDomainProxyINS0_4hipc6client38Hipc2ClientSessionManagedProxyKindBaseINSA_18Hipc2ProxyKindBaseILNS9_6detail11MessageTypeE4EEEEEEENS0_25StatelessAllocationPolicyINS0_22ExpHeapStaticAllocatorILm2048ENS5_6detail12ObjectHolder24ObjectHolderAllocatorTagEEEEENS6_24IManagerForSystemServiceEE24_nn_sf_sync_GetAccountIdENS0_3OutINS5_23NetworkServiceAccountIdEvEE
 00000000:00000071000B0970       _ZN2nn2sf4cmif6client6detail13CmifProxyImplINS_7account4baas12IManagerBaseENS2_15CmifDomainProxyINS0_4hipc6client38Hipc2ClientSessionManagedProxyKindBaseINSA_18Hipc2ProxyKindBaseILNS9_6detail11MessageTypeE4EEEEEEENS0_25StatelessAllocationPolicyINS0_22ExpHeapStaticAllocatorILm2048ENS5_6detail12ObjectHolder24ObjectHolderAllocatorTagEEEEENS6_24IManagerForSystemServiceEE35_nn_sf_sync_EnsureIdTokenCacheAsyncENS0_3OutINS0_13SharedPointerINSK_13IAsyncContextEEEvEE
 00000000:00000071000B09F8       _ZN2nn2sf4cmif6client6detail13CmifProxyImplINS_7account4baas12IManagerBaseENS2_15CmifDomainProxyINS0_4hipc6client38Hipc2ClientSessionManagedProxyKindBaseINSA_18Hipc2ProxyKindBaseILNS9_6detail11MessageTypeE4EEEEEEENS0_25StatelessAllocationPolicyINS0_22ExpHeapStaticAllocatorILm2048ENS5_6detail12ObjectHolder24ObjectHolderAllocatorTagEEEEENS6_24IManagerForSystemServiceEE28_nn_sf_sync_LoadIdTokenCacheENS0_3OutIjvEERKNS0_9OutBufferE
 00000000:00000071000B0A20       _ZN2nn2sf4cmif6client6detail13CmifProxyImplINS_7account4baas24IManagerForSystemServiceENS2_15CmifDomainProxyINS0_4hipc6client38Hipc2ClientSessionManagedProxyKindBaseINSA_18Hipc2ProxyKindBaseILNS9_6detail11MessageTypeE4EEEEEEENS0_25StatelessAllocationPolicyINS0_22ExpHeapStaticAllocatorILm2048ENS5_6detail12ObjectHolder24ObjectHolderAllocatorTagEEEEES7_E42_nn_sf_sync_SetSystemProgramIdentificationERKNS5_27SystemProgramIdentificationEm
 00000000:00000071000B0A4C       _ZN2nn2sf4cmif6client6detail13CmifProxyImplINS_7account4baas24IManagerForSystemServiceENS2_15CmifDomainProxyINS0_4hipc6client38Hipc2ClientSessionManagedProxyKindBaseINSA_18Hipc2ProxyKindBaseILNS9_6detail11MessageTypeE4EEEEEEENS0_25StatelessAllocationPolicyINS0_22ExpHeapStaticAllocatorILm2048ENS5_6detail12ObjectHolder24ObjectHolderAllocatorTagEEEEES7_E32_nn_sf_sync_GetNintendoAccountIdENS0_3OutINS5_17NintendoAccountIdEvEE
 00000000:00000071000B0A6C       _ZN2nn2sf4cmif6client6detail13CmifProxyImplINS_7account4baas24IManagerForSystemServiceENS2_15CmifDomainProxyINS0_4hipc6client38Hipc2ClientSessionManagedProxyKindBaseINSA_18Hipc2ProxyKindBaseILNS9_6detail11MessageTypeE4EEEEEEENS0_25StatelessAllocationPolicyINS0_22ExpHeapStaticAllocatorILm2048ENS5_6detail12ObjectHolder24ObjectHolderAllocatorTagEEEEES7_E47_nn_sf_sync_GetNintendoAccountUserResourceCacheENS0_3OutINS5_17NintendoAccountIdEvEENSQ_INS5_3nas11NasUserBaseEvEERKNS0_9OutBufferE
 00000000:00000071000B0A94       _ZN2nn2sf4cmif6client6detail13CmifProxyImplINS_7account4baas24IManagerForSystemServiceENS2_15CmifDomainProxyINS0_4hipc6client38Hipc2ClientSessionManagedProxyKindBaseINSA_18Hipc2ProxyKindBaseILNS9_6detail11MessageTypeE4EEEEEEENS0_25StatelessAllocationPolicyINS0_22ExpHeapStaticAllocatorILm2048ENS5_6detail12ObjectHolder24ObjectHolderAllocatorTagEEEEES7_E56_nn_sf_sync_RefreshNintendoAccountUserResourceCacheAsyncENS0_3OutINS0_13SharedPointerINSK_13IAsyncContextEEEvEE
 00000000:00000071000B0B1C       _ZN2nn2sf4cmif6client6detail13CmifProxyImplINS_7account4baas24IManagerForSystemServiceENS2_15CmifDomainProxyINS0_4hipc6client38Hipc2ClientSessionManagedProxyKindBaseINSA_18Hipc2ProxyKindBaseILNS9_6detail11MessageTypeE4EEEEEEENS0_25StatelessAllocationPolicyINS0_22ExpHeapStaticAllocatorILm2048ENS5_6detail12ObjectHolder24ObjectHolderAllocatorTagEEEEES7_E72_nn_sf_sync_RefreshNintendoAccountUserResourceCacheAsyncIfSecondsElapsedENS0_3OutIbvEENSQ_INS0_13SharedPointerINSK_13IAsyncContextEEEvEEj
 00000000:00000071000B0BBC       _ZN2nn2sf4cmif6client6detail13CmifProxyImplINS_7account4baas24IManagerForSystemServiceENS2_15CmifDomainProxyINS0_4hipc6client38Hipc2ClientSessionManagedProxyKindBaseINSA_18Hipc2ProxyKindBaseILNS9_6detail11MessageTypeE4EEEEEEENS0_25StatelessAllocationPolicyINS0_22ExpHeapStaticAllocatorILm2048ENS5_6detail12ObjectHolder24ObjectHolderAllocatorTagEEEEES7_E38_nn_sf_sync_CreateAuthorizationRequestENS0_3OutINS0_13SharedPointerINS5_3nas21IAuthorizationRequestEEEvEERKNSS_13NasClientInfoERKNS5_45NintendoAccountAuthorizationRequestParametersEONS0_12NativeHandleEj
 00000000:00000071000B0C84       _ZN2nn2sf4cmif6client6detail13CmifProxyImplINS_7account4baas12IManagerBaseENS2_15CmifDomainProxyINS0_4hipc6client38Hipc2ClientSessionManagedProxyKindBaseINSA_18Hipc2ProxyKindBaseILNS9_6detail11MessageTypeE4EEEEEEENS0_25StatelessAllocationPolicyINS0_22ExpHeapStaticAllocatorILm2048ENS5_6detail12ObjectHolder24ObjectHolderAllocatorTagEEEEENS6_24IManagerForSystemServiceEE17GetCmifBaseObjectEv
 00000000:00000071000B0C94       _ZThn32_N2nn2sf4cmif6client6detail13CmifProxyImplINS_7account4baas12IManagerBaseENS2_15CmifDomainProxyINS0_4hipc6client38Hipc2ClientSessionManagedProxyKindBaseINSA_18Hipc2ProxyKindBaseILNS9_6detail11MessageTypeE4EEEEEEENS0_25StatelessAllocationPolicyINS0_22ExpHeapStaticAllocatorILm2048ENS5_6detail12ObjectHolder24ObjectHolderAllocatorTagEEEEENS6_24IManagerForSystemServiceEE17GetCmifBaseObjectEv
 00000000:00000071000B0C9C       _ZN2nn2sf4cmif6client34CmifDomainProxyClientCoreProcessorINS0_4hipc6client38Hipc2ClientSessionManagedProxyKindBaseINS5_18Hipc2ProxyKindBaseILNS4_6detail11MessageTypeE4EEEEENS1_6detail14CoreMethodInfoINSt3__15tupleIJNSC_18BufferArgumentInfoILi0ELi25ELm16EEENSC_17InRawArgumentInfoILm8ELm8ELl0EEEEEELm8ELm0ELb1EEESK_E7ProcessEPNS2_23CmifDomainClientMessageISB_E15ProxyBaseObjectENS2_24BufferClientArgumentTypeENS2_23InRawClientArgumentTypeILm8ELm8EvEEj
 00000000:00000071000B0E6C       _ZN2nn2sf4cmif6client34CmifDomainProxyClientCoreProcessorINS0_4hipc6client38Hipc2ClientSessionManagedProxyKindBaseINS5_18Hipc2ProxyKindBaseILNS4_6detail11MessageTypeE4EEEEENS1_6detail14CoreMethodInfoINSt3__15tupleIJNSC_18OutRawArgumentInfoILm8ELm8ELl0EEENSC_18BufferArgumentInfoILi0ELi26ELm591EEENSI_ILi1ELi6ELm0EEEEEELm0ELm8ELb0EEESL_E7ProcessEPNS2_23CmifDomainClientMessageISB_E15ProxyBaseObjectENS2_24OutRawClientArgumentTypeILm8ELm8EEENS2_24BufferClientArgumentTypeESU_j
 00000000:00000071000B1058       _ZN2nn2sf4cmif6client34CmifDomainProxyClientCoreProcessorINS0_4hipc6client38Hipc2ClientSessionManagedProxyKindBaseINS5_18Hipc2ProxyKindBaseILNS4_6detail11MessageTypeE4EEEEENS1_6detail14CoreMethodInfoINSt3__15tupleIJNSC_18OutRawArgumentInfoILm1ELm1ELl0EEENSC_21OutObjectArgumentInfoILi0ELi0EEENSC_17InRawArgumentInfoILm4ELm4ELl0EEEEEELm4ELm1ELb0EEESM_E21ProcessWithOutObjectsEPNS2_23CmifDomainClientMessageISB_E15ProxyBaseObjectENS2_24OutRawClientArgumentTypeILm1ELm1EEENS2_27OutObjectClientArgumentTypeENS2_23InRawClientArgumentTypeILm4ELm4EvEEjPNS0_13SharedPointerINS0_14IServiceObjectEEE
 00000000:00000071000B1238       _ZN2nn2sf4cmif6client34CmifDomainProxyClientCoreProcessorINS0_4hipc6client38Hipc2ClientSessionManagedProxyKindBaseINS5_18Hipc2ProxyKindBaseILNS4_6detail11MessageTypeE4EEEEENS1_6detail14CoreMethodInfoINSt3__15tupleIJNSC_21OutObjectArgumentInfoILi0ELi0EEENSC_18BufferArgumentInfoILi0ELi25ELm264EEENSI_ILi1ELi25ELm512EEENSC_20InHandleArgumentInfoILi0ELi1EEENSC_17InRawArgumentInfoILm4ELm4ELl0EEEEEELm4ELm0ELb0EEESP_E21ProcessWithOutObjectsEPNS2_23CmifDomainClientMessageISB_E15ProxyBaseObjectENS2_27OutObjectClientArgumentTypeENS2_24BufferClientArgumentTypeESX_NS2_26InHandleClientArgumentTypeENS2_23InRawClientArgumentTypeILm4ELm4EvEEjPNS0_13SharedPointerINS0_14IServiceObjectEEE
 00000000:00000071000B14D8       _ZN2nn2sf4cmif6client34CmifDomainProxyClientCoreProcessorINS0_4hipc6client38Hipc2ClientSessionManagedProxyKindBaseINS5_18Hipc2ProxyKindBaseILNS4_6detail11MessageTypeE4EEEEENS1_6detail14CoreMethodInfoINSt3__15tupleIJNSC_17InRawArgumentInfoILm16ELm8ELl0EEENSG_ILm8ELm8ELl16EEENSC_18BufferArgumentInfoILi0ELi5ELm0EEEEEELm24ELm0ELb0EEESL_E7ProcessEPNS2_23CmifDomainClientMessageISB_E15ProxyBaseObjectENS2_23InRawClientArgumentTypeILm16ELm8EvEENSS_ILm8ELm8EvEENS2_24BufferClientArgumentTypeEj
 00000000:00000071000B16BC       _ZN2nn2sf4cmif6client34CmifDomainProxyClientCoreProcessorINS0_4hipc6client38Hipc2ClientSessionManagedProxyKindBaseINS5_18Hipc2ProxyKindBaseILNS4_6detail11MessageTypeE4EEEEENS1_6detail14CoreMethodInfoINSt3__15tupleIJNSC_17InRawArgumentInfoILm16ELm8ELl0EEENSG_ILm8ELm8ELl16EEEEEELm24ELm0ELb0EEESJ_E7ProcessEPNS2_23CmifDomainClientMessageISB_E15ProxyBaseObjectENS2_23InRawClientArgumentTypeILm16ELm8EvEENSQ_ILm8ELm8EvEEj
 00000000:00000071000B1818       _ZN2nn2sf4cmif6client34CmifDomainProxyClientCoreProcessorINS0_4hipc6client38Hipc2ClientSessionManagedProxyKindBaseINS5_18Hipc2ProxyKindBaseILNS4_6detail11MessageTypeE4EEEEENS1_6detail14CoreMethodInfoINSt3__15tupleIJNSC_18OutRawArgumentInfoILm4ELm4ELl0EEENSC_18BufferArgumentInfoILi0ELi6ELm0EEENSC_17InRawArgumentInfoILm16ELm8ELl0EEENSK_ILm8ELm8ELl16EEEEEELm24ELm4ELb0EEESN_E7ProcessEPNS2_23CmifDomainClientMessageISB_E15ProxyBaseObjectENS2_24OutRawClientArgumentTypeILm4ELm4EEENS2_24BufferClientArgumentTypeENS2_23InRawClientArgumentTypeILm16ELm8EvEENSX_ILm8ELm8EvEEj
 00000000:00000071000B1A14       _ZN2nn2sf4cmif6client34CmifDomainProxyClientCoreProcessorINS0_4hipc6client38Hipc2ClientSessionManagedProxyKindBaseINS5_18Hipc2ProxyKindBaseILNS4_6detail11MessageTypeE4EEEEENS1_6detail14CoreMethodInfoINSt3__15tupleIJNSC_18OutRawArgumentInfoILm8ELm8ELl8EEENSG_ILm4ELm4ELl0EEENSC_17InRawArgumentInfoILm16ELm8ELl0EEEEEELm16ELm16ELb0EEESL_E7ProcessEPNS2_23CmifDomainClientMessageISB_E15ProxyBaseObjectENS2_24OutRawClientArgumentTypeILm8ELm8EEENSS_ILm4ELm4EEENS2_23InRawClientArgumentTypeILm16ELm8EvEEj
 00000000:00000071000B1B84       _ZN2nn7account6detail12ObjectHolder11AcquireImplINS0_31IAccountServiceForAdministratorEEENS_6ResultEPPT_PKc
 00000000:00000071000B1C7C       _ZN2nn2sf4hipc6client34HipcSimpleClientSessionManagerBase4Impl18InitializeByHandleINS_7account31IAccountServiceForAdministratorENS0_25StatelessAllocationPolicyINS0_22ExpHeapStaticAllocatorILm2048ENS6_6detail12ObjectHolder24ObjectHolderAllocatorTagEEEEEEENS_6ResultEPNS0_13SharedPointerIT_EENS_3svc6HandleE
 00000000:00000071000B1D90       _ZN2nn2sf6detail39ObjectImplFactoryWithStatelessAllocatorINS0_4cmif6client16CmifProxyFactoryINS_7account31IAccountServiceForAdministratorENS4_15CmifDomainProxyINS0_4hipc6client38Hipc2ClientSessionManagedProxyKindBaseINSA_18Hipc2ProxyKindBaseILNS9_6detail11MessageTypeE4EEEEEEENS0_25StatelessAllocationPolicyINS0_22ExpHeapStaticAllocatorILm2048ENS6_6detail12ObjectHolder24ObjectHolderAllocatorTagEEEEEE13ServiceObjectESO_E6Object12AddReferenceEv
 00000000:00000071000B1D98       _ZN2nn2sf6detail39ObjectImplFactoryWithStatelessAllocatorINS0_4cmif6client16CmifProxyFactoryINS_7account31IAccountServiceForAdministratorENS4_15CmifDomainProxyINS0_4hipc6client38Hipc2ClientSessionManagedProxyKindBaseINSA_18Hipc2ProxyKindBaseILNS9_6detail11MessageTypeE4EEEEEEENS0_25StatelessAllocationPolicyINS0_22ExpHeapStaticAllocatorILm2048ENS6_6detail12ObjectHolder24ObjectHolderAllocatorTagEEEEEE13ServiceObjectESO_E6Object7ReleaseEv
 00000000:00000071000B1E0C       _ZN2nn2sf4cmif6client6detail13CmifProxyImplINS_7account19IAccountServiceBaseENS2_15CmifDomainProxyINS0_4hipc6client38Hipc2ClientSessionManagedProxyKindBaseINS9_18Hipc2ProxyKindBaseILNS8_6detail11MessageTypeE4EEEEEEENS0_25StatelessAllocationPolicyINS0_22ExpHeapStaticAllocatorILm2048ENS5_6detail12ObjectHolder24ObjectHolderAllocatorTagEEEEENS5_31IAccountServiceForAdministratorEE12GetProxyInfoEv
 00000000:00000071000B1E14       _ZN2nn2sf4cmif6client6detail13CmifProxyImplINS_7account19IAccountServiceBaseENS2_15CmifDomainProxyINS0_4hipc6client38Hipc2ClientSessionManagedProxyKindBaseINS9_18Hipc2ProxyKindBaseILNS8_6detail11MessageTypeE4EEEEEEENS0_25StatelessAllocationPolicyINS0_22ExpHeapStaticAllocatorILm2048ENS5_6detail12ObjectHolder24ObjectHolderAllocatorTagEEEEENS5_31IAccountServiceForAdministratorEE24_nn_sf_sync_GetUserCountENS0_3OutIivEE
 00000000:00000071000B1E34       _ZN2nn2sf4cmif6client6detail13CmifProxyImplINS_7account19IAccountServiceBaseENS2_15CmifDomainProxyINS0_4hipc6client38Hipc2ClientSessionManagedProxyKindBaseINS9_18Hipc2ProxyKindBaseILNS8_6detail11MessageTypeE4EEEEEEENS0_25StatelessAllocationPolicyINS0_22ExpHeapStaticAllocatorILm2048ENS5_6detail12ObjectHolder24ObjectHolderAllocatorTagEEEEENS5_31IAccountServiceForAdministratorEE28_nn_sf_sync_GetUserExistenceENS0_3OutIbvEERKNS5_3UidE
 00000000:00000071000B1E54       _ZN2nn2sf4cmif6client6detail13CmifProxyImplINS_7account19IAccountServiceBaseENS2_15CmifDomainProxyINS0_4hipc6client38Hipc2ClientSessionManagedProxyKindBaseINS9_18Hipc2ProxyKindBaseILNS8_6detail11MessageTypeE4EEEEEEENS0_25StatelessAllocationPolicyINS0_22ExpHeapStaticAllocatorILm2048ENS5_6detail12ObjectHolder24ObjectHolderAllocatorTagEEEEENS5_31IAccountServiceForAdministratorEE24_nn_sf_sync_ListAllUsersERKNS0_8OutArrayINS5_3UidEEE
 00000000:00000071000B1E80       _ZN2nn2sf4cmif6client6detail13CmifProxyImplINS_7account19IAccountServiceBaseENS2_15CmifDomainProxyINS0_4hipc6client38Hipc2ClientSessionManagedProxyKindBaseINS9_18Hipc2ProxyKindBaseILNS8_6detail11MessageTypeE4EEEEEEENS0_25StatelessAllocationPolicyINS0_22ExpHeapStaticAllocatorILm2048ENS5_6detail12ObjectHolder24ObjectHolderAllocatorTagEEEEENS5_31IAccountServiceForAdministratorEE25_nn_sf_sync_ListOpenUsersERKNS0_8OutArrayINS5_3UidEEE
 00000000:00000071000B1EAC       _ZN2nn2sf4cmif6client6detail13CmifProxyImplINS_7account19IAccountServiceBaseENS2_15CmifDomainProxyINS0_4hipc6client38Hipc2ClientSessionManagedProxyKindBaseINS9_18Hipc2ProxyKindBaseILNS8_6detail11MessageTypeE4EEEEEEENS0_25StatelessAllocationPolicyINS0_22ExpHeapStaticAllocatorILm2048ENS5_6detail12ObjectHolder24ObjectHolderAllocatorTagEEEEENS5_31IAccountServiceForAdministratorEE29_nn_sf_sync_GetLastOpenedUserENS0_3OutINS5_3UidEvEE
 00000000:00000071000B1ECC       _ZN2nn2sf4cmif6client6detail13CmifProxyImplINS_7account19IAccountServiceBaseENS2_15CmifDomainProxyINS0_4hipc6client38Hipc2ClientSessionManagedProxyKindBaseINS9_18Hipc2ProxyKindBaseILNS8_6detail11MessageTypeE4EEEEEEENS0_25StatelessAllocationPolicyINS0_22ExpHeapStaticAllocatorILm2048ENS5_6detail12ObjectHolder24ObjectHolderAllocatorTagEEEEENS5_31IAccountServiceForAdministratorEE22_nn_sf_sync_GetProfileENS0_3OutINS0_13SharedPointerINS5_7profile8IProfileEEEvEERKNS5_3UidE
 00000000:00000071000B1F60       _ZN2nn2sf4cmif6client6detail13CmifProxyImplINS_7account19IAccountServiceBaseENS2_15CmifDomainProxyINS0_4hipc6client38Hipc2ClientSessionManagedProxyKindBaseINS9_18Hipc2ProxyKindBaseILNS8_6detail11MessageTypeE4EEEEEEENS0_25StatelessAllocationPolicyINS0_22ExpHeapStaticAllocatorILm2048ENS5_6detail12ObjectHolder24ObjectHolderAllocatorTagEEEEENS5_31IAccountServiceForAdministratorEE28_nn_sf_sync_GetProfileDigestENS0_3OutINS5_13ProfileDigestEvEERKNS5_3UidE
 00000000:00000071000B1F80       _ZN2nn2sf4cmif6client6detail13CmifProxyImplINS_7account19IAccountServiceBaseENS2_15CmifDomainProxyINS0_4hipc6client38Hipc2ClientSessionManagedProxyKindBaseINS9_18Hipc2ProxyKindBaseILNS8_6detail11MessageTypeE4EEEEEEENS0_25StatelessAllocationPolicyINS0_22ExpHeapStaticAllocatorILm2048ENS5_6detail12ObjectHolder24ObjectHolderAllocatorTagEEEEENS5_31IAccountServiceForAdministratorEE46_nn_sf_sync_IsUserRegistrationRequestPermittedENS0_3OutIbvEEm
 00000000:00000071000B1FA0       _ZN2nn2sf4cmif6client6detail13CmifProxyImplINS_7account19IAccountServiceBaseENS2_15CmifDomainProxyINS0_4hipc6client38Hipc2ClientSessionManagedProxyKindBaseINS9_18Hipc2ProxyKindBaseILNS8_6detail11MessageTypeE4EEEEEEENS0_25StatelessAllocationPolicyINS0_22ExpHeapStaticAllocatorILm2048ENS5_6detail12ObjectHolder24ObjectHolderAllocatorTagEEEEENS5_31IAccountServiceForAdministratorEE43_nn_sf_sync_TrySelectUserWithoutInteractionENS0_3OutINS5_3UidEvEEb
 00000000:00000071000B1FC4       _ZN2nn2sf4cmif6client6detail13CmifProxyImplINS_7account31IAccountServiceForSystemServiceENS2_15CmifDomainProxyINS0_4hipc6client38Hipc2ClientSessionManagedProxyKindBaseINS9_18Hipc2ProxyKindBaseILNS8_6detail11MessageTypeE4EEEEEEENS0_25StatelessAllocationPolicyINS0_22ExpHeapStaticAllocatorILm2048ENS5_6detail12ObjectHolder24ObjectHolderAllocatorTagEEEEENS5_31IAccountServiceForAdministratorEE39_nn_sf_sync_GetUserRegistrationNotifierENS0_3OutINS0_13SharedPointerINSJ_9INotifierEEEvEE
 00000000:00000071000B204C       _ZN2nn2sf4cmif6client6detail13CmifProxyImplINS_7account31IAccountServiceForSystemServiceENS2_15CmifDomainProxyINS0_4hipc6client38Hipc2ClientSessionManagedProxyKindBaseINS9_18Hipc2ProxyKindBaseILNS8_6detail11MessageTypeE4EEEEEEENS0_25StatelessAllocationPolicyINS0_22ExpHeapStaticAllocatorILm2048ENS5_6detail12ObjectHolder24ObjectHolderAllocatorTagEEEEENS5_31IAccountServiceForAdministratorEE38_nn_sf_sync_GetUserStateChangeNotifierENS0_3OutINS0_13SharedPointerINSJ_9INotifierEEEvEE
 00000000:00000071000B20D4       _ZN2nn2sf4cmif6client6detail13CmifProxyImplINS_7account31IAccountServiceForSystemServiceENS2_15CmifDomainProxyINS0_4hipc6client38Hipc2ClientSessionManagedProxyKindBaseINS9_18Hipc2ProxyKindBaseILNS8_6detail11MessageTypeE4EEEEEEENS0_25StatelessAllocationPolicyINS0_22ExpHeapStaticAllocatorILm2048ENS5_6detail12ObjectHolder24ObjectHolderAllocatorTagEEEEENS5_31IAccountServiceForAdministratorEE49_nn_sf_sync_GetBaasAccountManagerForSystemServiceENS0_3OutINS0_13SharedPointerINS5_4baas24IManagerForSystemServiceEEEvEERKNS5_3UidE
 00000000:00000071000B2168       _ZN2nn2sf4cmif6client6detail13CmifProxyImplINS_7account31IAccountServiceForSystemServiceENS2_15CmifDomainProxyINS0_4hipc6client38Hipc2ClientSessionManagedProxyKindBaseINS9_18Hipc2ProxyKindBaseILNS8_6detail11MessageTypeE4EEEEEEENS0_25StatelessAllocationPolicyINS0_22ExpHeapStaticAllocatorILm2048ENS5_6detail12ObjectHolder24ObjectHolderAllocatorTagEEEEENS5_31IAccountServiceForAdministratorEE49_nn_sf_sync_GetBaasUserAvailabilityChangeNotifierENS0_3OutINS0_13SharedPointerINSJ_9INotifierEEEvEE
 00000000:00000071000B21F0       _ZN2nn2sf4cmif6client6detail13CmifProxyImplINS_7account31IAccountServiceForSystemServiceENS2_15CmifDomainProxyINS0_4hipc6client38Hipc2ClientSessionManagedProxyKindBaseINS9_18Hipc2ProxyKindBaseILNS8_6detail11MessageTypeE4EEEEEEENS0_25StatelessAllocationPolicyINS0_22ExpHeapStaticAllocatorILm2048ENS5_6detail12ObjectHolder24ObjectHolderAllocatorTagEEEEENS5_31IAccountServiceForAdministratorEE36_nn_sf_sync_GetProfileUpdateNotifierENS0_3OutINS0_13SharedPointerINSJ_9INotifierEEEvEE
 00000000:00000071000B2278       _ZN2nn2sf4cmif6client6detail13CmifProxyImplINS_7account31IAccountServiceForSystemServiceENS2_15CmifDomainProxyINS0_4hipc6client38Hipc2ClientSessionManagedProxyKindBaseINS9_18Hipc2ProxyKindBaseILNS8_6detail11MessageTypeE4EEEEEEENS0_25StatelessAllocationPolicyINS0_22ExpHeapStaticAllocatorILm2048ENS5_6detail12ObjectHolder24ObjectHolderAllocatorTagEEEEENS5_31IAccountServiceForAdministratorEE34_nn_sf_sync_StoreSaveDataThumbnailERKNS5_3UidENS_13ApplicationIdERKNS0_8InBufferE
 00000000:00000071000B22A0       _ZN2nn2sf4cmif6client6detail13CmifProxyImplINS_7account31IAccountServiceForSystemServiceENS2_15CmifDomainProxyINS0_4hipc6client38Hipc2ClientSessionManagedProxyKindBaseINS9_18Hipc2ProxyKindBaseILNS8_6detail11MessageTypeE4EEEEEEENS0_25StatelessAllocationPolicyINS0_22ExpHeapStaticAllocatorILm2048ENS5_6detail12ObjectHolder24ObjectHolderAllocatorTagEEEEENS5_31IAccountServiceForAdministratorEE34_nn_sf_sync_ClearSaveDataThumbnailERKNS5_3UidENS_13ApplicationIdE
 00000000:00000071000B22C0       _ZN2nn2sf4cmif6client6detail13CmifProxyImplINS_7account31IAccountServiceForSystemServiceENS2_15CmifDomainProxyINS0_4hipc6client38Hipc2ClientSessionManagedProxyKindBaseINS9_18Hipc2ProxyKindBaseILNS8_6detail11MessageTypeE4EEEEEEENS0_25StatelessAllocationPolicyINS0_22ExpHeapStaticAllocatorILm2048ENS5_6detail12ObjectHolder24ObjectHolderAllocatorTagEEEEENS5_31IAccountServiceForAdministratorEE33_nn_sf_sync_LoadSaveDataThumbnailENS0_3OutIjvEERKNS0_9OutBufferERKNS5_3UidENS_13ApplicationIdE
 00000000:00000071000B22F8       _ZN2nn2sf4cmif6client6detail13CmifProxyImplINS_7account31IAccountServiceForSystemServiceENS2_15CmifDomainProxyINS0_4hipc6client38Hipc2ClientSessionManagedProxyKindBaseINS9_18Hipc2ProxyKindBaseILNS8_6detail11MessageTypeE4EEEEEEENS0_25StatelessAllocationPolicyINS0_22ExpHeapStaticAllocatorILm2048ENS5_6detail12ObjectHolder24ObjectHolderAllocatorTagEEEEENS5_31IAccountServiceForAdministratorEE40_nn_sf_sync_GetUserLastOpenedApplicationENS0_3OutINS_13ApplicationIdEvEENSQ_IjvEERKNS5_3UidE
 00000000:00000071000B2318       _ZN2nn2sf4cmif6client6detail13CmifProxyImplINS_7account31IAccountServiceForSystemServiceENS2_15CmifDomainProxyINS0_4hipc6client38Hipc2ClientSessionManagedProxyKindBaseINS9_18Hipc2ProxyKindBaseILNS8_6detail11MessageTypeE4EEEEEEENS0_25StatelessAllocationPolicyINS0_22ExpHeapStaticAllocatorILm2048ENS5_6detail12ObjectHolder24ObjectHolderAllocatorTagEEEEENS5_31IAccountServiceForAdministratorEE44_nn_sf_sync_DebugInvalidateTokenCacheForUserERKNS5_3UidE
 00000000:00000071000B2338       _ZN2nn2sf4cmif6client6detail13CmifProxyImplINS_7account31IAccountServiceForSystemServiceENS2_15CmifDomainProxyINS0_4hipc6client38Hipc2ClientSessionManagedProxyKindBaseINS9_18Hipc2ProxyKindBaseILNS8_6detail11MessageTypeE4EEEEEEENS0_25StatelessAllocationPolicyINS0_22ExpHeapStaticAllocatorILm2048ENS5_6detail12ObjectHolder24ObjectHolderAllocatorTagEEEEENS5_31IAccountServiceForAdministratorEE34_nn_sf_sync_DebugSetUserStateCloseERKNS5_3UidE
 00000000:00000071000B2358       _ZN2nn2sf4cmif6client6detail13CmifProxyImplINS_7account31IAccountServiceForSystemServiceENS2_15CmifDomainProxyINS0_4hipc6client38Hipc2ClientSessionManagedProxyKindBaseINS9_18Hipc2ProxyKindBaseILNS8_6detail11MessageTypeE4EEEEEEENS0_25StatelessAllocationPolicyINS0_22ExpHeapStaticAllocatorILm2048ENS5_6detail12ObjectHolder24ObjectHolderAllocatorTagEEEEENS5_31IAccountServiceForAdministratorEE33_nn_sf_sync_DebugSetUserStateOpenERKNS5_3UidE
 00000000:00000071000B2378       _ZN2nn2sf4cmif6client6detail13CmifProxyImplINS_7account31IAccountServiceForAdministratorENS2_15CmifDomainProxyINS0_4hipc6client38Hipc2ClientSessionManagedProxyKindBaseINS9_18Hipc2ProxyKindBaseILNS8_6detail11MessageTypeE4EEEEEEENS0_25StatelessAllocationPolicyINS0_22ExpHeapStaticAllocatorILm2048ENS5_6detail12ObjectHolder24ObjectHolderAllocatorTagEEEEES6_E33_nn_sf_sync_BeginUserRegistrationENS0_3OutINS5_3UidEvEE
 00000000:00000071000B2398       _ZN2nn2sf4cmif6client6detail13CmifProxyImplINS_7account31IAccountServiceForAdministratorENS2_15CmifDomainProxyINS0_4hipc6client38Hipc2ClientSessionManagedProxyKindBaseINS9_18Hipc2ProxyKindBaseILNS8_6detail11MessageTypeE4EEEEEEENS0_25StatelessAllocationPolicyINS0_22ExpHeapStaticAllocatorILm2048ENS5_6detail12ObjectHolder24ObjectHolderAllocatorTagEEEEES6_E36_nn_sf_sync_CompleteUserRegistrationERKNS5_3UidE
 00000000:00000071000B23B8       _ZN2nn2sf4cmif6client6detail13CmifProxyImplINS_7account31IAccountServiceForAdministratorENS2_15CmifDomainProxyINS0_4hipc6client38Hipc2ClientSessionManagedProxyKindBaseINS9_18Hipc2ProxyKindBaseILNS8_6detail11MessageTypeE4EEEEEEENS0_25StatelessAllocationPolicyINS0_22ExpHeapStaticAllocatorILm2048ENS5_6detail12ObjectHolder24ObjectHolderAllocatorTagEEEEES6_E34_nn_sf_sync_CancelUserRegistrationERKNS5_3UidE
 00000000:00000071000B23D8       _ZN2nn2sf4cmif6client6detail13CmifProxyImplINS_7account31IAccountServiceForAdministratorENS2_15CmifDomainProxyINS0_4hipc6client38Hipc2ClientSessionManagedProxyKindBaseINS9_18Hipc2ProxyKindBaseILNS8_6detail11MessageTypeE4EEEEEEENS0_25StatelessAllocationPolicyINS0_22ExpHeapStaticAllocatorILm2048ENS5_6detail12ObjectHolder24ObjectHolderAllocatorTagEEEEES6_E22_nn_sf_sync_DeleteUserERKNS5_3UidE
 00000000:00000071000B23F8       _ZN2nn2sf4cmif6client6detail13CmifProxyImplINS_7account31IAccountServiceForAdministratorENS2_15CmifDomainProxyINS0_4hipc6client38Hipc2ClientSessionManagedProxyKindBaseINS9_18Hipc2ProxyKindBaseILNS8_6detail11MessageTypeE4EEEEEEENS0_25StatelessAllocationPolicyINS0_22ExpHeapStaticAllocatorILm2048ENS5_6detail12ObjectHolder24ObjectHolderAllocatorTagEEEEES6_E27_nn_sf_sync_SetUserPositionERKNS5_3UidEi
 00000000:00000071000B241C       _ZN2nn2sf4cmif6client6detail13CmifProxyImplINS_7account31IAccountServiceForAdministratorENS2_15CmifDomainProxyINS0_4hipc6client38Hipc2ClientSessionManagedProxyKindBaseINS9_18Hipc2ProxyKindBaseILNS8_6detail11MessageTypeE4EEEEEEENS0_25StatelessAllocationPolicyINS0_22ExpHeapStaticAllocatorILm2048ENS5_6detail12ObjectHolder24ObjectHolderAllocatorTagEEEEES6_E28_nn_sf_sync_GetProfileEditorENS0_3OutINS0_13SharedPointerINS5_7profile14IProfileEditorEEEvEERKNS5_3UidE
 00000000:00000071000B24B0       _ZN2nn2sf4cmif6client6detail13CmifProxyImplINS_7account31IAccountServiceForAdministratorENS2_15CmifDomainProxyINS0_4hipc6client38Hipc2ClientSessionManagedProxyKindBaseINS9_18Hipc2ProxyKindBaseILNS8_6detail11MessageTypeE4EEEEEEENS0_25StatelessAllocationPolicyINS0_22ExpHeapStaticAllocatorILm2048ENS5_6detail12ObjectHolder24ObjectHolderAllocatorTagEEEEES6_E44_nn_sf_sync_CompleteUserRegistrationForciblyERKNS5_3UidE
 00000000:00000071000B24D0       _ZN2nn2sf4cmif6client6detail13CmifProxyImplINS_7account31IAccountServiceForAdministratorENS2_15CmifDomainProxyINS0_4hipc6client38Hipc2ClientSessionManagedProxyKindBaseINS9_18Hipc2ProxyKindBaseILNS8_6detail11MessageTypeE4EEEEEEENS0_25StatelessAllocationPolicyINS0_22ExpHeapStaticAllocatorILm2048ENS5_6detail12ObjectHolder24ObjectHolderAllocatorTagEEEEES6_E45_nn_sf_sync_CreateFloatingRegistrationRequestENS0_3OutINS0_13SharedPointerINS5_4baas28IFloatingRegistrationRequestEEEvEEONS0_12NativeHandleEj
 00000000:00000071000B2570       _ZN2nn2sf4cmif6client6detail13CmifProxyImplINS_7account31IAccountServiceForAdministratorENS2_15CmifDomainProxyINS0_4hipc6client38Hipc2ClientSessionManagedProxyKindBaseINS9_18Hipc2ProxyKindBaseILNS8_6detail11MessageTypeE4EEEEEEENS0_25StatelessAllocationPolicyINS0_22ExpHeapStaticAllocatorILm2048ENS5_6detail12ObjectHolder24ObjectHolderAllocatorTagEEEEES6_E36_nn_sf_sync_AuthenticateServiceAsyncENS0_3OutINS0_13SharedPointerINSJ_13IAsyncContextEEEvEE
 00000000:00000071000B25F8       _ZN2nn2sf4cmif6client6detail13CmifProxyImplINS_7account31IAccountServiceForAdministratorENS2_15CmifDomainProxyINS0_4hipc6client38Hipc2ClientSessionManagedProxyKindBaseINS9_18Hipc2ProxyKindBaseILNS8_6detail11MessageTypeE4EEEEEEENS0_25StatelessAllocationPolicyINS0_22ExpHeapStaticAllocatorILm2048ENS5_6detail12ObjectHolder24ObjectHolderAllocatorTagEEEEES6_E39_nn_sf_sync_GetBaasAccountAdministratorENS0_3OutINS0_13SharedPointerINS5_4baas14IAdministratorEEEvEERKNS5_3UidE
 00000000:00000071000B268C       _ZN2nn2sf4cmif6client6detail13CmifProxyImplINS_7account31IAccountServiceForAdministratorENS2_15CmifDomainProxyINS0_4hipc6client38Hipc2ClientSessionManagedProxyKindBaseINS9_18Hipc2ProxyKindBaseILNS8_6detail11MessageTypeE4EEEEEEENS0_25StatelessAllocationPolicyINS0_22ExpHeapStaticAllocatorILm2048ENS5_6detail12ObjectHolder24ObjectHolderAllocatorTagEEEEES6_E58_nn_sf_sync_ProxyProcedureForGuestLoginWithNintendoAccountENS0_3OutINS0_13SharedPointerINS5_3nas29IOAuthProcedureForExternalNsaEEEvEERKNSJ_4UuidE
 00000000:00000071000B2720       _ZN2nn2sf4cmif6client6detail13CmifProxyImplINS_7account31IAccountServiceForAdministratorENS2_15CmifDomainProxyINS0_4hipc6client38Hipc2ClientSessionManagedProxyKindBaseINS9_18Hipc2ProxyKindBaseILNS8_6detail11MessageTypeE4EEEEEEENS0_25StatelessAllocationPolicyINS0_22ExpHeapStaticAllocatorILm2048ENS5_6detail12ObjectHolder24ObjectHolderAllocatorTagEEEEES6_E68_nn_sf_sync_ProxyProcedureForFloatingRegistrationWithNintendoAccountENS0_3OutINS0_13SharedPointerINS5_3nas29IOAuthProcedureForExternalNsaEEEvEERKNSJ_4UuidE
 00000000:00000071000B27B4       _ZN2nn2sf4cmif6client6detail13CmifProxyImplINS_7account31IAccountServiceForAdministratorENS2_15CmifDomainProxyINS0_4hipc6client38Hipc2ClientSessionManagedProxyKindBaseINS9_18Hipc2ProxyKindBaseILNS8_6detail11MessageTypeE4EEEEEEENS0_25StatelessAllocationPolicyINS0_22ExpHeapStaticAllocatorILm2048ENS5_6detail12ObjectHolder24ObjectHolderAllocatorTagEEEEES6_E35_nn_sf_sync_SuspendBackgroundDaemonENS0_3OutINS0_13SharedPointerINSJ_14ISessionObjectEEEvEE
 00000000:00000071000B283C       _ZN2nn2sf4cmif6client6detail13CmifProxyImplINS_7account19IAccountServiceBaseENS2_15CmifDomainProxyINS0_4hipc6client38Hipc2ClientSessionManagedProxyKindBaseINS9_18Hipc2ProxyKindBaseILNS8_6detail11MessageTypeE4EEEEEEENS0_25StatelessAllocationPolicyINS0_22ExpHeapStaticAllocatorILm2048ENS5_6detail12ObjectHolder24ObjectHolderAllocatorTagEEEEENS5_31IAccountServiceForAdministratorEE17GetCmifBaseObjectEv
 00000000:00000071000B284C       _ZThn32_N2nn2sf4cmif6client6detail13CmifProxyImplINS_7account19IAccountServiceBaseENS2_15CmifDomainProxyINS0_4hipc6client38Hipc2ClientSessionManagedProxyKindBaseINS9_18Hipc2ProxyKindBaseILNS8_6detail11MessageTypeE4EEEEEEENS0_25StatelessAllocationPolicyINS0_22ExpHeapStaticAllocatorILm2048ENS5_6detail12ObjectHolder24ObjectHolderAllocatorTagEEEEENS5_31IAccountServiceForAdministratorEE17GetCmifBaseObjectEv
 00000000:00000071000B2854       _ZN2nn2sf4cmif6client34CmifDomainProxyClientCoreProcessorINS0_4hipc6client38Hipc2ClientSessionManagedProxyKindBaseINS5_18Hipc2ProxyKindBaseILNS4_6detail11MessageTypeE4EEEEENS1_6detail14CoreMethodInfoINSt3__15tupleIJNSC_17InRawArgumentInfoILm16ELm8ELl8EEENSG_ILm4ELm4ELl0EEEEEELm24ELm0ELb0EEESJ_E7ProcessEPNS2_23CmifDomainClientMessageISB_E15ProxyBaseObjectENS2_23InRawClientArgumentTypeILm16ELm8EvEENSQ_ILm4ELm4EvEEj
 00000000:00000071000B29B4       _ZN2nn2sf4cmif6client32GetClientProcessorWithObjectBaseINS2_15CmifDomainProxyINS0_4hipc6client38Hipc2ClientSessionManagedProxyKindBaseINS6_18Hipc2ProxyKindBaseILNS5_6detail11MessageTypeE4EEEEEEEE14ObjectAssignerINS0_25StatelessAllocationPolicyINS0_22ExpHeapStaticAllocatorILm2048ENS_7account6detail12ObjectHolder24ObjectHolderAllocatorTagEEEEENS0_6detail23StatelessDummyAllocatorEE14AllocateObjectINSI_7profile14IProfileEditorEEEvi
 00000000:00000071000B2A68       _ZN2nn2sf6detail39ObjectImplFactoryWithStatelessAllocatorINS0_4cmif6client16CmifProxyFactoryINS_7account7profile14IProfileEditorENS4_15CmifDomainProxyINS0_4hipc6client38Hipc2ClientSessionManagedProxyKindBaseINSB_18Hipc2ProxyKindBaseILNSA_6detail11MessageTypeE4EEEEEEENS0_25StatelessAllocationPolicyINS0_22ExpHeapStaticAllocatorILm2048ENS6_6detail12ObjectHolder24ObjectHolderAllocatorTagEEEEEE13ServiceObjectESP_E6Object12AddReferenceEv
 00000000:00000071000B2A70       _ZN2nn2sf6detail39ObjectImplFactoryWithStatelessAllocatorINS0_4cmif6client16CmifProxyFactoryINS_7account7profile14IProfileEditorENS4_15CmifDomainProxyINS0_4hipc6client38Hipc2ClientSessionManagedProxyKindBaseINSB_18Hipc2ProxyKindBaseILNSA_6detail11MessageTypeE4EEEEEEENS0_25StatelessAllocationPolicyINS0_22ExpHeapStaticAllocatorILm2048ENS6_6detail12ObjectHolder24ObjectHolderAllocatorTagEEEEEE13ServiceObjectESP_E6Object7ReleaseEv
 00000000:00000071000B2AE4       _ZN2nn2sf4cmif6client6detail13CmifProxyImplINS_7account7profile8IProfileENS2_15CmifDomainProxyINS0_4hipc6client38Hipc2ClientSessionManagedProxyKindBaseINSA_18Hipc2ProxyKindBaseILNS9_6detail11MessageTypeE4EEEEEEENS0_25StatelessAllocationPolicyINS0_22ExpHeapStaticAllocatorILm2048ENS5_6detail12ObjectHolder24ObjectHolderAllocatorTagEEEEENS6_14IProfileEditorEE12GetProxyInfoEv
 00000000:00000071000B2AEC       _ZN2nn2sf4cmif6client6detail13CmifProxyImplINS_7account7profile8IProfileENS2_15CmifDomainProxyINS0_4hipc6client38Hipc2ClientSessionManagedProxyKindBaseINSA_18Hipc2ProxyKindBaseILNS9_6detail11MessageTypeE4EEEEEEENS0_25StatelessAllocationPolicyINS0_22ExpHeapStaticAllocatorILm2048ENS5_6detail12ObjectHolder24ObjectHolderAllocatorTagEEEEENS6_14IProfileEditorEE15_nn_sf_sync_GetENS0_3OutINS6_11ProfileBaseEvEENSR_INS6_8UserDataEvEE
 00000000:00000071000B2B10       _ZN2nn2sf4cmif6client6detail13CmifProxyImplINS_7account7profile8IProfileENS2_15CmifDomainProxyINS0_4hipc6client38Hipc2ClientSessionManagedProxyKindBaseINSA_18Hipc2ProxyKindBaseILNS9_6detail11MessageTypeE4EEEEEEENS0_25StatelessAllocationPolicyINS0_22ExpHeapStaticAllocatorILm2048ENS5_6detail12ObjectHolder24ObjectHolderAllocatorTagEEEEENS6_14IProfileEditorEE19_nn_sf_sync_GetBaseENS0_3OutINS6_11ProfileBaseEvEE
 00000000:00000071000B2B30       _ZN2nn2sf4cmif6client6detail13CmifProxyImplINS_7account7profile8IProfileENS2_15CmifDomainProxyINS0_4hipc6client38Hipc2ClientSessionManagedProxyKindBaseINSA_18Hipc2ProxyKindBaseILNS9_6detail11MessageTypeE4EEEEEEENS0_25StatelessAllocationPolicyINS0_22ExpHeapStaticAllocatorILm2048ENS5_6detail12ObjectHolder24ObjectHolderAllocatorTagEEEEENS6_14IProfileEditorEE24_nn_sf_sync_GetImageSizeENS0_3OutIjvEE
 00000000:00000071000B2B50       _ZN2nn2sf4cmif6client6detail13CmifProxyImplINS_7account7profile8IProfileENS2_15CmifDomainProxyINS0_4hipc6client38Hipc2ClientSessionManagedProxyKindBaseINSA_18Hipc2ProxyKindBaseILNS9_6detail11MessageTypeE4EEEEEEENS0_25StatelessAllocationPolicyINS0_22ExpHeapStaticAllocatorILm2048ENS5_6detail12ObjectHolder24ObjectHolderAllocatorTagEEEEENS6_14IProfileEditorEE21_nn_sf_sync_LoadImageENS0_3OutIjvEERKNS0_9OutBufferE
 00000000:00000071000B2B78       _ZN2nn2sf4cmif6client6detail13CmifProxyImplINS_7account7profile14IProfileEditorENS2_15CmifDomainProxyINS0_4hipc6client38Hipc2ClientSessionManagedProxyKindBaseINSA_18Hipc2ProxyKindBaseILNS9_6detail11MessageTypeE4EEEEEEENS0_25StatelessAllocationPolicyINS0_22ExpHeapStaticAllocatorILm2048ENS5_6detail12ObjectHolder24ObjectHolderAllocatorTagEEEEES7_E17_nn_sf_sync_StoreERKNS6_11ProfileBaseERKNS6_8UserDataE
 00000000:00000071000B2B9C       _ZN2nn2sf4cmif6client6detail13CmifProxyImplINS_7account7profile14IProfileEditorENS2_15CmifDomainProxyINS0_4hipc6client38Hipc2ClientSessionManagedProxyKindBaseINSA_18Hipc2ProxyKindBaseILNS9_6detail11MessageTypeE4EEEEEEENS0_25StatelessAllocationPolicyINS0_22ExpHeapStaticAllocatorILm2048ENS5_6detail12ObjectHolder24ObjectHolderAllocatorTagEEEEES7_E26_nn_sf_sync_StoreWithImageERKNS6_11ProfileBaseERKNS6_8UserDataERKNS0_8InBufferE
 00000000:00000071000B2BC4       _ZN2nn2sf4cmif6client6detail13CmifProxyImplINS_7account7profile8IProfileENS2_15CmifDomainProxyINS0_4hipc6client38Hipc2ClientSessionManagedProxyKindBaseINSA_18Hipc2ProxyKindBaseILNS9_6detail11MessageTypeE4EEEEEEENS0_25StatelessAllocationPolicyINS0_22ExpHeapStaticAllocatorILm2048ENS5_6detail12ObjectHolder24ObjectHolderAllocatorTagEEEEENS6_14IProfileEditorEE17GetCmifBaseObjectEv
 00000000:00000071000B2BD4       _ZThn32_N2nn2sf4cmif6client6detail13CmifProxyImplINS_7account7profile8IProfileENS2_15CmifDomainProxyINS0_4hipc6client38Hipc2ClientSessionManagedProxyKindBaseINSA_18Hipc2ProxyKindBaseILNS9_6detail11MessageTypeE4EEEEEEENS0_25StatelessAllocationPolicyINS0_22ExpHeapStaticAllocatorILm2048ENS5_6detail12ObjectHolder24ObjectHolderAllocatorTagEEEEENS6_14IProfileEditorEE17GetCmifBaseObjectEv
 00000000:00000071000B2BDC       _ZN2nn2sf4cmif6client34CmifDomainProxyClientCoreProcessorINS0_4hipc6client38Hipc2ClientSessionManagedProxyKindBaseINS5_18Hipc2ProxyKindBaseILNS4_6detail11MessageTypeE4EEEEENS1_6detail14CoreMethodInfoINSt3__15tupleIJNSC_17InRawArgumentInfoILm56ELm8ELl0EEENSC_18BufferArgumentInfoILi0ELi25ELm128EEEEEELm56ELm0ELb0EEESK_E7ProcessEPNS2_23CmifDomainClientMessageISB_E15ProxyBaseObjectENS2_23InRawClientArgumentTypeILm56ELm8EvEENS2_24BufferClientArgumentTypeEj
 00000000:00000071000B2DB4       _ZN2nn2sf4cmif6client34CmifDomainProxyClientCoreProcessorINS0_4hipc6client38Hipc2ClientSessionManagedProxyKindBaseINS5_18Hipc2ProxyKindBaseILNS4_6detail11MessageTypeE4EEEEENS1_6detail14CoreMethodInfoINSt3__15tupleIJNSC_17InRawArgumentInfoILm56ELm8ELl0EEENSC_18BufferArgumentInfoILi0ELi25ELm128EEENSI_ILi1ELi5ELm0EEEEEELm56ELm0ELb0EEESL_E7ProcessEPNS2_23CmifDomainClientMessageISB_E15ProxyBaseObjectENS2_23InRawClientArgumentTypeILm56ELm8EvEENS2_24BufferClientArgumentTypeESU_j
 00000000:00000071000B2FA4       _ZN2nn2sf4cmif6client32GetClientProcessorWithObjectBaseINS2_15CmifDomainProxyINS0_4hipc6client38Hipc2ClientSessionManagedProxyKindBaseINS6_18Hipc2ProxyKindBaseILNS5_6detail11MessageTypeE4EEEEEEEE14ObjectAssignerINS0_25StatelessAllocationPolicyINS0_22ExpHeapStaticAllocatorILm2048ENS_7account6detail12ObjectHolder24ObjectHolderAllocatorTagEEEEENS0_6detail23StatelessDummyAllocatorEE14AllocateObjectINSI_4baas28IFloatingRegistrationRequestEEEvi
 00000000:00000071000B3058       _ZN2nn2sf6detail39ObjectImplFactoryWithStatelessAllocatorINS0_4cmif6client16CmifProxyFactoryINS_7account4baas28IFloatingRegistrationRequestENS4_15CmifDomainProxyINS0_4hipc6client38Hipc2ClientSessionManagedProxyKindBaseINSB_18Hipc2ProxyKindBaseILNSA_6detail11MessageTypeE4EEEEEEENS0_25StatelessAllocationPolicyINS0_22ExpHeapStaticAllocatorILm2048ENS6_6detail12ObjectHolder24ObjectHolderAllocatorTagEEEEEE13ServiceObjectESP_E6Object12AddReferenceEv
 00000000:00000071000B3060       _ZN2nn2sf6detail39ObjectImplFactoryWithStatelessAllocatorINS0_4cmif6client16CmifProxyFactoryINS_7account4baas28IFloatingRegistrationRequestENS4_15CmifDomainProxyINS0_4hipc6client38Hipc2ClientSessionManagedProxyKindBaseINSB_18Hipc2ProxyKindBaseILNSA_6detail11MessageTypeE4EEEEEEENS0_25StatelessAllocationPolicyINS0_22ExpHeapStaticAllocatorILm2048ENS6_6detail12ObjectHolder24ObjectHolderAllocatorTagEEEEEE13ServiceObjectESP_E6Object7ReleaseEv
 00000000:00000071000B30D4       _ZN2nn2sf4cmif6client6detail13CmifProxyImplINS_7account4baas18IGuestLoginRequestENS2_15CmifDomainProxyINS0_4hipc6client38Hipc2ClientSessionManagedProxyKindBaseINSA_18Hipc2ProxyKindBaseILNS9_6detail11MessageTypeE4EEEEEEENS0_25StatelessAllocationPolicyINS0_22ExpHeapStaticAllocatorILm2048ENS5_6detail12ObjectHolder24ObjectHolderAllocatorTagEEEEENS6_28IFloatingRegistrationRequestEE12GetProxyInfoEv
 00000000:00000071000B30DC       _ZN2nn2sf4cmif6client6detail13CmifProxyImplINS_7account4baas18IGuestLoginRequestENS2_15CmifDomainProxyINS0_4hipc6client38Hipc2ClientSessionManagedProxyKindBaseINSA_18Hipc2ProxyKindBaseILNS9_6detail11MessageTypeE4EEEEEEENS0_25StatelessAllocationPolicyINS0_22ExpHeapStaticAllocatorILm2048ENS5_6detail12ObjectHolder24ObjectHolderAllocatorTagEEEEENS6_28IFloatingRegistrationRequestEE24_nn_sf_sync_GetSessionIdENS0_3OutINSK_4UuidEvEE
 00000000:00000071000B30FC       _ZN2nn2sf4cmif6client6detail13CmifProxyImplINS_7account4baas18IGuestLoginRequestENS2_15CmifDomainProxyINS0_4hipc6client38Hipc2ClientSessionManagedProxyKindBaseINSA_18Hipc2ProxyKindBaseILNS9_6detail11MessageTypeE4EEEEEEENS0_25StatelessAllocationPolicyINS0_22ExpHeapStaticAllocatorILm2048ENS5_6detail12ObjectHolder24ObjectHolderAllocatorTagEEEEENS6_28IFloatingRegistrationRequestEE24_nn_sf_sync_GetAccountIdENS0_3OutINS5_23NetworkServiceAccountIdEvEE
 00000000:00000071000B311C       _ZN2nn2sf4cmif6client6detail13CmifProxyImplINS_7account4baas18IGuestLoginRequestENS2_15CmifDomainProxyINS0_4hipc6client38Hipc2ClientSessionManagedProxyKindBaseINSA_18Hipc2ProxyKindBaseILNS9_6detail11MessageTypeE4EEEEEEENS0_25StatelessAllocationPolicyINS0_22ExpHeapStaticAllocatorILm2048ENS5_6detail12ObjectHolder24ObjectHolderAllocatorTagEEEEENS6_28IFloatingRegistrationRequestEE38_nn_sf_sync_GetLinkedNintendoAccountIdENS0_3OutINS5_17NintendoAccountIdEvEE
 00000000:00000071000B313C       _ZN2nn2sf4cmif6client6detail13CmifProxyImplINS_7account4baas18IGuestLoginRequestENS2_15CmifDomainProxyINS0_4hipc6client38Hipc2ClientSessionManagedProxyKindBaseINSA_18Hipc2ProxyKindBaseILNS9_6detail11MessageTypeE4EEEEEEENS0_25StatelessAllocationPolicyINS0_22ExpHeapStaticAllocatorILm2048ENS5_6detail12ObjectHolder24ObjectHolderAllocatorTagEEEEENS6_28IFloatingRegistrationRequestEE23_nn_sf_sync_GetNicknameERKNS0_8OutArrayIcEE
 00000000:00000071000B3164       _ZN2nn2sf4cmif6client6detail13CmifProxyImplINS_7account4baas18IGuestLoginRequestENS2_15CmifDomainProxyINS0_4hipc6client38Hipc2ClientSessionManagedProxyKindBaseINSA_18Hipc2ProxyKindBaseILNS9_6detail11MessageTypeE4EEEEEEENS0_25StatelessAllocationPolicyINS0_22ExpHeapStaticAllocatorILm2048ENS5_6detail12ObjectHolder24ObjectHolderAllocatorTagEEEEENS6_28IFloatingRegistrationRequestEE27_nn_sf_sync_GetProfileImageENS0_3OutIjvEERKNS0_9OutBufferE
 00000000:00000071000B318C       _ZN2nn2sf4cmif6client6detail13CmifProxyImplINS_7account4baas18IGuestLoginRequestENS2_15CmifDomainProxyINS0_4hipc6client38Hipc2ClientSessionManagedProxyKindBaseINSA_18Hipc2ProxyKindBaseILNS9_6detail11MessageTypeE4EEEEEEENS0_25StatelessAllocationPolicyINS0_22ExpHeapStaticAllocatorILm2048ENS5_6detail12ObjectHolder24ObjectHolderAllocatorTagEEEEENS6_28IFloatingRegistrationRequestEE28_nn_sf_sync_LoadIdTokenCacheENS0_3OutIjvEERKNS0_9OutBufferE
 00000000:00000071000B31B4       _ZN2nn2sf4cmif6client6detail13CmifProxyImplINS_7account4baas28IFloatingRegistrationRequestENS2_15CmifDomainProxyINS0_4hipc6client38Hipc2ClientSessionManagedProxyKindBaseINSA_18Hipc2ProxyKindBaseILNS9_6detail11MessageTypeE4EEEEEEENS0_25StatelessAllocationPolicyINS0_22ExpHeapStaticAllocatorILm2048ENS5_6detail12ObjectHolder24ObjectHolderAllocatorTagEEEEES7_E25_nn_sf_sync_RegisterAsyncENS0_3OutINS5_3UidEvEENSQ_INS0_13SharedPointerINSK_13IAsyncContextEEEvEE
 00000000:00000071000B3248       _ZN2nn2sf4cmif6client6detail13CmifProxyImplINS_7account4baas28IFloatingRegistrationRequestENS2_15CmifDomainProxyINS0_4hipc6client38Hipc2ClientSessionManagedProxyKindBaseINSA_18Hipc2ProxyKindBaseILNS9_6detail11MessageTypeE4EEEEEEENS0_25StatelessAllocationPolicyINS0_22ExpHeapStaticAllocatorILm2048ENS5_6detail12ObjectHolder24ObjectHolderAllocatorTagEEEEES7_E32_nn_sf_sync_RegisterWithUidAsyncENS0_3OutINS0_13SharedPointerINSK_13IAsyncContextEEEvEERKNS5_3UidE
 00000000:00000071000B32DC       _ZN2nn2sf4cmif6client6detail13CmifProxyImplINS_7account4baas28IFloatingRegistrationRequestENS2_15CmifDomainProxyINS0_4hipc6client38Hipc2ClientSessionManagedProxyKindBaseINSA_18Hipc2ProxyKindBaseILNS9_6detail11MessageTypeE4EEEEEEENS0_25StatelessAllocationPolicyINS0_22ExpHeapStaticAllocatorILm2048ENS5_6detail12ObjectHolder24ObjectHolderAllocatorTagEEEEES7_E42_nn_sf_sync_SetSystemProgramIdentificationERKNS5_27SystemProgramIdentificationEm
 00000000:00000071000B3308       _ZN2nn2sf4cmif6client6detail13CmifProxyImplINS_7account4baas28IFloatingRegistrationRequestENS2_15CmifDomainProxyINS0_4hipc6client38Hipc2ClientSessionManagedProxyKindBaseINSA_18Hipc2ProxyKindBaseILNS9_6detail11MessageTypeE4EEEEEEENS0_25StatelessAllocationPolicyINS0_22ExpHeapStaticAllocatorILm2048ENS5_6detail12ObjectHolder24ObjectHolderAllocatorTagEEEEES7_E35_nn_sf_sync_EnsureIdTokenCacheAsyncENS0_3OutINS0_13SharedPointerINSK_13IAsyncContextEEEvEE
 00000000:00000071000B3390       _ZN2nn2sf4cmif6client6detail13CmifProxyImplINS_7account4baas18IGuestLoginRequestENS2_15CmifDomainProxyINS0_4hipc6client38Hipc2ClientSessionManagedProxyKindBaseINSA_18Hipc2ProxyKindBaseILNS9_6detail11MessageTypeE4EEEEEEENS0_25StatelessAllocationPolicyINS0_22ExpHeapStaticAllocatorILm2048ENS5_6detail12ObjectHolder24ObjectHolderAllocatorTagEEEEENS6_28IFloatingRegistrationRequestEE17GetCmifBaseObjectEv
 00000000:00000071000B33A0       _ZThn32_N2nn2sf4cmif6client6detail13CmifProxyImplINS_7account4baas18IGuestLoginRequestENS2_15CmifDomainProxyINS0_4hipc6client38Hipc2ClientSessionManagedProxyKindBaseINSA_18Hipc2ProxyKindBaseILNS9_6detail11MessageTypeE4EEEEEEENS0_25StatelessAllocationPolicyINS0_22ExpHeapStaticAllocatorILm2048ENS5_6detail12ObjectHolder24ObjectHolderAllocatorTagEEEEENS6_28IFloatingRegistrationRequestEE17GetCmifBaseObjectEv
 00000000:00000071000B33A8       _ZN2nn2sf4cmif6client34CmifDomainProxyClientCoreProcessorINS0_4hipc6client38Hipc2ClientSessionManagedProxyKindBaseINS5_18Hipc2ProxyKindBaseILNS4_6detail11MessageTypeE4EEEEENS1_6detail14CoreMethodInfoINSt3__15tupleIJNSC_18OutRawArgumentInfoILm16ELm8ELl0EEENSC_21OutObjectArgumentInfoILi0ELi0EEEEEELm0ELm16ELb0EEESK_E21ProcessWithOutObjectsEPNS2_23CmifDomainClientMessageISB_E15ProxyBaseObjectENS2_24OutRawClientArgumentTypeILm16ELm8EEENS2_27OutObjectClientArgumentTypeEjPNS0_13SharedPointerINS0_14IServiceObjectEEE
 00000000:00000071000B3580       _ZN2nn2sf4cmif6client32GetClientProcessorWithObjectBaseINS2_15CmifDomainProxyINS0_4hipc6client38Hipc2ClientSessionManagedProxyKindBaseINS6_18Hipc2ProxyKindBaseILNS5_6detail11MessageTypeE4EEEEEEEE14ObjectAssignerINS0_25StatelessAllocationPolicyINS0_22ExpHeapStaticAllocatorILm2048ENS_7account6detail12ObjectHolder24ObjectHolderAllocatorTagEEEEENS0_6detail23StatelessDummyAllocatorEE14AllocateObjectINSI_4baas14IAdministratorEEEvi
 00000000:00000071000B3634       _ZN2nn2sf6detail39ObjectImplFactoryWithStatelessAllocatorINS0_4cmif6client16CmifProxyFactoryINS_7account4baas14IAdministratorENS4_15CmifDomainProxyINS0_4hipc6client38Hipc2ClientSessionManagedProxyKindBaseINSB_18Hipc2ProxyKindBaseILNSA_6detail11MessageTypeE4EEEEEEENS0_25StatelessAllocationPolicyINS0_22ExpHeapStaticAllocatorILm2048ENS6_6detail12ObjectHolder24ObjectHolderAllocatorTagEEEEEE13ServiceObjectESP_E6Object12AddReferenceEv
 00000000:00000071000B363C       _ZN2nn2sf6detail39ObjectImplFactoryWithStatelessAllocatorINS0_4cmif6client16CmifProxyFactoryINS_7account4baas14IAdministratorENS4_15CmifDomainProxyINS0_4hipc6client38Hipc2ClientSessionManagedProxyKindBaseINSB_18Hipc2ProxyKindBaseILNSA_6detail11MessageTypeE4EEEEEEENS0_25StatelessAllocationPolicyINS0_22ExpHeapStaticAllocatorILm2048ENS6_6detail12ObjectHolder24ObjectHolderAllocatorTagEEEEEE13ServiceObjectESP_E6Object7ReleaseEv
 00000000:00000071000B36B0       _ZN2nn2sf4cmif6client6detail13CmifProxyImplINS_7account4baas12IManagerBaseENS2_15CmifDomainProxyINS0_4hipc6client38Hipc2ClientSessionManagedProxyKindBaseINSA_18Hipc2ProxyKindBaseILNS9_6detail11MessageTypeE4EEEEEEENS0_25StatelessAllocationPolicyINS0_22ExpHeapStaticAllocatorILm2048ENS5_6detail12ObjectHolder24ObjectHolderAllocatorTagEEEEENS6_14IAdministratorEE12GetProxyInfoEv
 00000000:00000071000B36B8       _ZN2nn2sf4cmif6client6detail13CmifProxyImplINS_7account4baas12IManagerBaseENS2_15CmifDomainProxyINS0_4hipc6client38Hipc2ClientSessionManagedProxyKindBaseINSA_18Hipc2ProxyKindBaseILNS9_6detail11MessageTypeE4EEEEEEENS0_25StatelessAllocationPolicyINS0_22ExpHeapStaticAllocatorILm2048ENS5_6detail12ObjectHolder24ObjectHolderAllocatorTagEEEEENS6_14IAdministratorEE29_nn_sf_sync_CheckAvailabilityEv
 00000000:00000071000B36D8       _ZN2nn2sf4cmif6client6detail13CmifProxyImplINS_7account4baas12IManagerBaseENS2_15CmifDomainProxyINS0_4hipc6client38Hipc2ClientSessionManagedProxyKindBaseINSA_18Hipc2ProxyKindBaseILNS9_6detail11MessageTypeE4EEEEEEENS0_25StatelessAllocationPolicyINS0_22ExpHeapStaticAllocatorILm2048ENS5_6detail12ObjectHolder24ObjectHolderAllocatorTagEEEEENS6_14IAdministratorEE24_nn_sf_sync_GetAccountIdENS0_3OutINS5_23NetworkServiceAccountIdEvEE
 00000000:00000071000B36F8       _ZN2nn2sf4cmif6client6detail13CmifProxyImplINS_7account4baas12IManagerBaseENS2_15CmifDomainProxyINS0_4hipc6client38Hipc2ClientSessionManagedProxyKindBaseINSA_18Hipc2ProxyKindBaseILNS9_6detail11MessageTypeE4EEEEEEENS0_25StatelessAllocationPolicyINS0_22ExpHeapStaticAllocatorILm2048ENS5_6detail12ObjectHolder24ObjectHolderAllocatorTagEEEEENS6_14IAdministratorEE35_nn_sf_sync_EnsureIdTokenCacheAsyncENS0_3OutINS0_13SharedPointerINSK_13IAsyncContextEEEvEE
 00000000:00000071000B3780       _ZN2nn2sf4cmif6client6detail13CmifProxyImplINS_7account4baas12IManagerBaseENS2_15CmifDomainProxyINS0_4hipc6client38Hipc2ClientSessionManagedProxyKindBaseINSA_18Hipc2ProxyKindBaseILNS9_6detail11MessageTypeE4EEEEEEENS0_25StatelessAllocationPolicyINS0_22ExpHeapStaticAllocatorILm2048ENS5_6detail12ObjectHolder24ObjectHolderAllocatorTagEEEEENS6_14IAdministratorEE28_nn_sf_sync_LoadIdTokenCacheENS0_3OutIjvEERKNS0_9OutBufferE
 00000000:00000071000B37A8       _ZN2nn2sf4cmif6client6detail13CmifProxyImplINS_7account4baas24IManagerForSystemServiceENS2_15CmifDomainProxyINS0_4hipc6client38Hipc2ClientSessionManagedProxyKindBaseINSA_18Hipc2ProxyKindBaseILNS9_6detail11MessageTypeE4EEEEEEENS0_25StatelessAllocationPolicyINS0_22ExpHeapStaticAllocatorILm2048ENS5_6detail12ObjectHolder24ObjectHolderAllocatorTagEEEEENS6_14IAdministratorEE42_nn_sf_sync_SetSystemProgramIdentificationERKNS5_27SystemProgramIdentificationEm
 00000000:00000071000B37D4       _ZN2nn2sf4cmif6client6detail13CmifProxyImplINS_7account4baas24IManagerForSystemServiceENS2_15CmifDomainProxyINS0_4hipc6client38Hipc2ClientSessionManagedProxyKindBaseINSA_18Hipc2ProxyKindBaseILNS9_6detail11MessageTypeE4EEEEEEENS0_25StatelessAllocationPolicyINS0_22ExpHeapStaticAllocatorILm2048ENS5_6detail12ObjectHolder24ObjectHolderAllocatorTagEEEEENS6_14IAdministratorEE32_nn_sf_sync_GetNintendoAccountIdENS0_3OutINS5_17NintendoAccountIdEvEE
 00000000:00000071000B37F4       _ZN2nn2sf4cmif6client6detail13CmifProxyImplINS_7account4baas24IManagerForSystemServiceENS2_15CmifDomainProxyINS0_4hipc6client38Hipc2ClientSessionManagedProxyKindBaseINSA_18Hipc2ProxyKindBaseILNS9_6detail11MessageTypeE4EEEEEEENS0_25StatelessAllocationPolicyINS0_22ExpHeapStaticAllocatorILm2048ENS5_6detail12ObjectHolder24ObjectHolderAllocatorTagEEEEENS6_14IAdministratorEE47_nn_sf_sync_GetNintendoAccountUserResourceCacheENS0_3OutINS5_17NintendoAccountIdEvEENSR_INS5_3nas11NasUserBaseEvEERKNS0_9OutBufferE
 00000000:00000071000B381C       _ZN2nn2sf4cmif6client6detail13CmifProxyImplINS_7account4baas24IManagerForSystemServiceENS2_15CmifDomainProxyINS0_4hipc6client38Hipc2ClientSessionManagedProxyKindBaseINSA_18Hipc2ProxyKindBaseILNS9_6detail11MessageTypeE4EEEEEEENS0_25StatelessAllocationPolicyINS0_22ExpHeapStaticAllocatorILm2048ENS5_6detail12ObjectHolder24ObjectHolderAllocatorTagEEEEENS6_14IAdministratorEE56_nn_sf_sync_RefreshNintendoAccountUserResourceCacheAsyncENS0_3OutINS0_13SharedPointerINSK_13IAsyncContextEEEvEE
 00000000:00000071000B38A4       _ZN2nn2sf4cmif6client6detail13CmifProxyImplINS_7account4baas24IManagerForSystemServiceENS2_15CmifDomainProxyINS0_4hipc6client38Hipc2ClientSessionManagedProxyKindBaseINSA_18Hipc2ProxyKindBaseILNS9_6detail11MessageTypeE4EEEEEEENS0_25StatelessAllocationPolicyINS0_22ExpHeapStaticAllocatorILm2048ENS5_6detail12ObjectHolder24ObjectHolderAllocatorTagEEEEENS6_14IAdministratorEE72_nn_sf_sync_RefreshNintendoAccountUserResourceCacheAsyncIfSecondsElapsedENS0_3OutIbvEENSR_INS0_13SharedPointerINSK_13IAsyncContextEEEvEEj
 00000000:00000071000B3944       _ZN2nn2sf4cmif6client6detail13CmifProxyImplINS_7account4baas24IManagerForSystemServiceENS2_15CmifDomainProxyINS0_4hipc6client38Hipc2ClientSessionManagedProxyKindBaseINSA_18Hipc2ProxyKindBaseILNS9_6detail11MessageTypeE4EEEEEEENS0_25StatelessAllocationPolicyINS0_22ExpHeapStaticAllocatorILm2048ENS5_6detail12ObjectHolder24ObjectHolderAllocatorTagEEEEENS6_14IAdministratorEE38_nn_sf_sync_CreateAuthorizationRequestENS0_3OutINS0_13SharedPointerINS5_3nas21IAuthorizationRequestEEEvEERKNST_13NasClientInfoERKNS5_45NintendoAccountAuthorizationRequestParametersEONS0_12NativeHandleEj
 00000000:00000071000B3A0C       _ZN2nn2sf4cmif6client6detail13CmifProxyImplINS_7account4baas14IAdministratorENS2_15CmifDomainProxyINS0_4hipc6client38Hipc2ClientSessionManagedProxyKindBaseINSA_18Hipc2ProxyKindBaseILNS9_6detail11MessageTypeE4EEEEEEENS0_25StatelessAllocationPolicyINS0_22ExpHeapStaticAllocatorILm2048ENS5_6detail12ObjectHolder24ObjectHolderAllocatorTagEEEEES7_E24_nn_sf_sync_IsRegisteredENS0_3OutIbvEE
 00000000:00000071000B3A2C       _ZN2nn2sf4cmif6client6detail13CmifProxyImplINS_7account4baas14IAdministratorENS2_15CmifDomainProxyINS0_4hipc6client38Hipc2ClientSessionManagedProxyKindBaseINSA_18Hipc2ProxyKindBaseILNS9_6detail11MessageTypeE4EEEEEEENS0_25StatelessAllocationPolicyINS0_22ExpHeapStaticAllocatorILm2048ENS5_6detail12ObjectHolder24ObjectHolderAllocatorTagEEEEES7_E25_nn_sf_sync_RegisterAsyncENS0_3OutINS0_13SharedPointerINSK_13IAsyncContextEEEvEE
 00000000:00000071000B3AB4       _ZN2nn2sf4cmif6client6detail13CmifProxyImplINS_7account4baas14IAdministratorENS2_15CmifDomainProxyINS0_4hipc6client38Hipc2ClientSessionManagedProxyKindBaseINSA_18Hipc2ProxyKindBaseILNS9_6detail11MessageTypeE4EEEEEEENS0_25StatelessAllocationPolicyINS0_22ExpHeapStaticAllocatorILm2048ENS5_6detail12ObjectHolder24ObjectHolderAllocatorTagEEEEES7_E27_nn_sf_sync_UnregisterAsyncENS0_3OutINS0_13SharedPointerINSK_13IAsyncContextEEEvEE
 00000000:00000071000B3B3C       _ZN2nn2sf4cmif6client6detail13CmifProxyImplINS_7account4baas14IAdministratorENS2_15CmifDomainProxyINS0_4hipc6client38Hipc2ClientSessionManagedProxyKindBaseINSA_18Hipc2ProxyKindBaseILNS9_6detail11MessageTypeE4EEEEEEENS0_25StatelessAllocationPolicyINS0_22ExpHeapStaticAllocatorILm2048ENS5_6detail12ObjectHolder24ObjectHolderAllocatorTagEEEEES7_E41_nn_sf_sync_DeleteRegistrationInfoLocallyEv
 00000000:00000071000B3B5C       _ZN2nn2sf4cmif6client6detail13CmifProxyImplINS_7account4baas14IAdministratorENS2_15CmifDomainProxyINS0_4hipc6client38Hipc2ClientSessionManagedProxyKindBaseINSA_18Hipc2ProxyKindBaseILNS9_6detail11MessageTypeE4EEEEEEENS0_25StatelessAllocationPolicyINS0_22ExpHeapStaticAllocatorILm2048ENS5_6detail12ObjectHolder24ObjectHolderAllocatorTagEEEEES7_E35_nn_sf_sync_SynchronizeProfileAsyncENS0_3OutINS0_13SharedPointerINSK_13IAsyncContextEEEvEE
 00000000:00000071000B3BE4       _ZN2nn2sf4cmif6client6detail13CmifProxyImplINS_7account4baas14IAdministratorENS2_15CmifDomainProxyINS0_4hipc6client38Hipc2ClientSessionManagedProxyKindBaseINSA_18Hipc2ProxyKindBaseILNS9_6detail11MessageTypeE4EEEEEEENS0_25StatelessAllocationPolicyINS0_22ExpHeapStaticAllocatorILm2048ENS5_6detail12ObjectHolder24ObjectHolderAllocatorTagEEEEES7_E30_nn_sf_sync_UploadProfileAsyncENS0_3OutINS0_13SharedPointerINSK_13IAsyncContextEEEvEE
 00000000:00000071000B3C6C       _ZN2nn2sf4cmif6client6detail13CmifProxyImplINS_7account4baas14IAdministratorENS2_15CmifDomainProxyINS0_4hipc6client38Hipc2ClientSessionManagedProxyKindBaseINSA_18Hipc2ProxyKindBaseILNS9_6detail11MessageTypeE4EEEEEEENS0_25StatelessAllocationPolicyINS0_22ExpHeapStaticAllocatorILm2048ENS5_6detail12ObjectHolder24ObjectHolderAllocatorTagEEEEES7_E51_nn_sf_sync_SynchronizeProfileAsyncIfSecondsElapsedENS0_3OutIbvEENSQ_INS0_13SharedPointerINSK_13IAsyncContextEEEvEEj
 00000000:00000071000B3D0C       _ZN2nn2sf4cmif6client6detail13CmifProxyImplINS_7account4baas14IAdministratorENS2_15CmifDomainProxyINS0_4hipc6client38Hipc2ClientSessionManagedProxyKindBaseINSA_18Hipc2ProxyKindBaseILNS9_6detail11MessageTypeE4EEEEEEENS0_25StatelessAllocationPolicyINS0_22ExpHeapStaticAllocatorILm2048ENS5_6detail12ObjectHolder24ObjectHolderAllocatorTagEEEEES7_E39_nn_sf_sync_IsLinkedWithNintendoAccountENS0_3OutIbvEE
 00000000:00000071000B3D2C       _ZN2nn2sf4cmif6client6detail13CmifProxyImplINS_7account4baas14IAdministratorENS2_15CmifDomainProxyINS0_4hipc6client38Hipc2ClientSessionManagedProxyKindBaseINSA_18Hipc2ProxyKindBaseILNS9_6detail11MessageTypeE4EEEEEEENS0_25StatelessAllocationPolicyINS0_22ExpHeapStaticAllocatorILm2048ENS5_6detail12ObjectHolder24ObjectHolderAllocatorTagEEEEES7_E52_nn_sf_sync_CreateProcedureToLinkWithNintendoAccountENS0_3OutINS0_13SharedPointerINS5_3nas40IOAuthProcedureForNintendoAccountLinkageEEEvEE
 00000000:00000071000B3DB4       _ZN2nn2sf4cmif6client6detail13CmifProxyImplINS_7account4baas14IAdministratorENS2_15CmifDomainProxyINS0_4hipc6client38Hipc2ClientSessionManagedProxyKindBaseINSA_18Hipc2ProxyKindBaseILNS9_6detail11MessageTypeE4EEEEEEENS0_25StatelessAllocationPolicyINS0_22ExpHeapStaticAllocatorILm2048ENS5_6detail12ObjectHolder24ObjectHolderAllocatorTagEEEEES7_E52_nn_sf_sync_ResumeProcedureToLinkWithNintendoAccountENS0_3OutINS0_13SharedPointerINS5_3nas40IOAuthProcedureForNintendoAccountLinkageEEEvEERKNSK_4UuidE
 00000000:00000071000B3E48       _ZN2nn2sf4cmif6client6detail13CmifProxyImplINS_7account4baas14IAdministratorENS2_15CmifDomainProxyINS0_4hipc6client38Hipc2ClientSessionManagedProxyKindBaseINSA_18Hipc2ProxyKindBaseILNS9_6detail11MessageTypeE4EEEEEEENS0_25StatelessAllocationPolicyINS0_22ExpHeapStaticAllocatorILm2048ENS5_6detail12ObjectHolder24ObjectHolderAllocatorTagEEEEES7_E64_nn_sf_sync_CreateProcedureToUpdateLinkageStateOfNintendoAccountENS0_3OutINS0_13SharedPointerINS5_4http15IOAuthProcedureEEEvEE
 00000000:00000071000B3ED0       _ZN2nn2sf4cmif6client6detail13CmifProxyImplINS_7account4baas14IAdministratorENS2_15CmifDomainProxyINS0_4hipc6client38Hipc2ClientSessionManagedProxyKindBaseINSA_18Hipc2ProxyKindBaseILNS9_6detail11MessageTypeE4EEEEEEENS0_25StatelessAllocationPolicyINS0_22ExpHeapStaticAllocatorILm2048ENS5_6detail12ObjectHolder24ObjectHolderAllocatorTagEEEEES7_E64_nn_sf_sync_ResumeProcedureToUpdateLinkageStateOfNintendoAccountENS0_3OutINS0_13SharedPointerINS5_4http15IOAuthProcedureEEEvEERKNSK_4UuidE
 00000000:00000071000B3F64       _ZN2nn2sf4cmif6client6detail13CmifProxyImplINS_7account4baas14IAdministratorENS2_15CmifDomainProxyINS0_4hipc6client38Hipc2ClientSessionManagedProxyKindBaseINSA_18Hipc2ProxyKindBaseILNS9_6detail11MessageTypeE4EEEEEEENS0_25StatelessAllocationPolicyINS0_22ExpHeapStaticAllocatorILm2048ENS5_6detail12ObjectHolder24ObjectHolderAllocatorTagEEEEES7_E56_nn_sf_sync_CreateProcedureToLinkNnidWithNintendoAccountENS0_3OutINS0_13SharedPointerINS5_4http15IOAuthProcedureEEEvEE
 00000000:00000071000B3FEC       _ZN2nn2sf4cmif6client6detail13CmifProxyImplINS_7account4baas14IAdministratorENS2_15CmifDomainProxyINS0_4hipc6client38Hipc2ClientSessionManagedProxyKindBaseINSA_18Hipc2ProxyKindBaseILNS9_6detail11MessageTypeE4EEEEEEENS0_25StatelessAllocationPolicyINS0_22ExpHeapStaticAllocatorILm2048ENS5_6detail12ObjectHolder24ObjectHolderAllocatorTagEEEEES7_E56_nn_sf_sync_ResumeProcedureToLinkNnidWithNintendoAccountENS0_3OutINS0_13SharedPointerINS5_4http15IOAuthProcedureEEEvEERKNSK_4UuidE
 00000000:00000071000B4080       _ZN2nn2sf4cmif6client6detail13CmifProxyImplINS_7account4baas14IAdministratorENS2_15CmifDomainProxyINS0_4hipc6client38Hipc2ClientSessionManagedProxyKindBaseINSA_18Hipc2ProxyKindBaseILNS9_6detail11MessageTypeE4EEEEEEENS0_25StatelessAllocationPolicyINS0_22ExpHeapStaticAllocatorILm2048ENS5_6detail12ObjectHolder24ObjectHolderAllocatorTagEEEEES7_E77_nn_sf_sync_ProxyProcedureToAcquireApplicationAuthorizationForNintendoAccountENS0_3OutINS0_13SharedPointerINS5_4http15IOAuthProcedureEEEvEERKNSK_4UuidE
 00000000:00000071000B4114       _ZN2nn2sf4cmif6client6detail13CmifProxyImplINS_7account4baas14IAdministratorENS2_15CmifDomainProxyINS0_4hipc6client38Hipc2ClientSessionManagedProxyKindBaseINSA_18Hipc2ProxyKindBaseILNS9_6detail11MessageTypeE4EEEEEEENS0_25StatelessAllocationPolicyINS0_22ExpHeapStaticAllocatorILm2048ENS5_6detail12ObjectHolder24ObjectHolderAllocatorTagEEEEES7_E43_nn_sf_sync_DebugUnlinkNintendoAccountAsyncENS0_3OutINS0_13SharedPointerINSK_13IAsyncContextEEEvEE
 00000000:00000071000B419C       _ZN2nn2sf4cmif6client6detail13CmifProxyImplINS_7account4baas14IAdministratorENS2_15CmifDomainProxyINS0_4hipc6client38Hipc2ClientSessionManagedProxyKindBaseINSA_18Hipc2ProxyKindBaseILNS9_6detail11MessageTypeE4EEEEEEENS0_25StatelessAllocationPolicyINS0_22ExpHeapStaticAllocatorILm2048ENS5_6detail12ObjectHolder24ObjectHolderAllocatorTagEEEEES7_E43_nn_sf_sync_DebugSetAvailabilityErrorDetailEj
 00000000:00000071000B41C0       _ZN2nn2sf4cmif6client6detail13CmifProxyImplINS_7account4baas12IManagerBaseENS2_15CmifDomainProxyINS0_4hipc6client38Hipc2ClientSessionManagedProxyKindBaseINSA_18Hipc2ProxyKindBaseILNS9_6detail11MessageTypeE4EEEEEEENS0_25StatelessAllocationPolicyINS0_22ExpHeapStaticAllocatorILm2048ENS5_6detail12ObjectHolder24ObjectHolderAllocatorTagEEEEENS6_14IAdministratorEE17GetCmifBaseObjectEv
 00000000:00000071000B41D0       _ZThn32_N2nn2sf4cmif6client6detail13CmifProxyImplINS_7account4baas12IManagerBaseENS2_15CmifDomainProxyINS0_4hipc6client38Hipc2ClientSessionManagedProxyKindBaseINSA_18Hipc2ProxyKindBaseILNS9_6detail11MessageTypeE4EEEEEEENS0_25StatelessAllocationPolicyINS0_22ExpHeapStaticAllocatorILm2048ENS5_6detail12ObjectHolder24ObjectHolderAllocatorTagEEEEENS6_14IAdministratorEE17GetCmifBaseObjectEv
 00000000:00000071000B41D8       _ZN2nn2sf4cmif6client32GetClientProcessorWithObjectBaseINS2_15CmifDomainProxyINS0_4hipc6client38Hipc2ClientSessionManagedProxyKindBaseINS6_18Hipc2ProxyKindBaseILNS5_6detail11MessageTypeE4EEEEEEEE14ObjectAssignerINS0_25StatelessAllocationPolicyINS0_22ExpHeapStaticAllocatorILm2048ENS_7account6detail12ObjectHolder24ObjectHolderAllocatorTagEEEEENS0_6detail23StatelessDummyAllocatorEE14AllocateObjectINSI_3nas40IOAuthProcedureForNintendoAccountLinkageEEEvi
 00000000:00000071000B428C       _ZN2nn2sf6detail39ObjectImplFactoryWithStatelessAllocatorINS0_4cmif6client16CmifProxyFactoryINS_7account3nas40IOAuthProcedureForNintendoAccountLinkageENS4_15CmifDomainProxyINS0_4hipc6client38Hipc2ClientSessionManagedProxyKindBaseINSB_18Hipc2ProxyKindBaseILNSA_6detail11MessageTypeE4EEEEEEENS0_25StatelessAllocationPolicyINS0_22ExpHeapStaticAllocatorILm2048ENS6_6detail12ObjectHolder24ObjectHolderAllocatorTagEEEEEE13ServiceObjectESP_E6Object12AddReferenceEv
 00000000:00000071000B4294       _ZN2nn2sf6detail39ObjectImplFactoryWithStatelessAllocatorINS0_4cmif6client16CmifProxyFactoryINS_7account3nas40IOAuthProcedureForNintendoAccountLinkageENS4_15CmifDomainProxyINS0_4hipc6client38Hipc2ClientSessionManagedProxyKindBaseINSB_18Hipc2ProxyKindBaseILNSA_6detail11MessageTypeE4EEEEEEENS0_25StatelessAllocationPolicyINS0_22ExpHeapStaticAllocatorILm2048ENS6_6detail12ObjectHolder24ObjectHolderAllocatorTagEEEEEE13ServiceObjectESP_E6Object7ReleaseEv
 00000000:00000071000B4308       _ZN2nn2sf4cmif6client6detail13CmifProxyImplINS_7account4http15IOAuthProcedureENS2_15CmifDomainProxyINS0_4hipc6client38Hipc2ClientSessionManagedProxyKindBaseINSA_18Hipc2ProxyKindBaseILNS9_6detail11MessageTypeE4EEEEEEENS0_25StatelessAllocationPolicyINS0_22ExpHeapStaticAllocatorILm2048ENS5_6detail12ObjectHolder24ObjectHolderAllocatorTagEEEEENS5_3nas40IOAuthProcedureForNintendoAccountLinkageEE12GetProxyInfoEv
 00000000:00000071000B4310       _ZN2nn2sf4cmif6client6detail13CmifProxyImplINS_7account4http15IOAuthProcedureENS2_15CmifDomainProxyINS0_4hipc6client38Hipc2ClientSessionManagedProxyKindBaseINSA_18Hipc2ProxyKindBaseILNS9_6detail11MessageTypeE4EEEEEEENS0_25StatelessAllocationPolicyINS0_22ExpHeapStaticAllocatorILm2048ENS5_6detail12ObjectHolder24ObjectHolderAllocatorTagEEEEENS5_3nas40IOAuthProcedureForNintendoAccountLinkageEE24_nn_sf_sync_PrepareAsyncENS0_3OutINS0_13SharedPointerINSK_13IAsyncContextEEEvEE
 00000000:00000071000B4398       _ZN2nn2sf4cmif6client6detail13CmifProxyImplINS_7account4http15IOAuthProcedureENS2_15CmifDomainProxyINS0_4hipc6client38Hipc2ClientSessionManagedProxyKindBaseINSA_18Hipc2ProxyKindBaseILNS9_6detail11MessageTypeE4EEEEEEENS0_25StatelessAllocationPolicyINS0_22ExpHeapStaticAllocatorILm2048ENS5_6detail12ObjectHolder24ObjectHolderAllocatorTagEEEEENS5_3nas40IOAuthProcedureForNintendoAccountLinkageEE22_nn_sf_sync_GetRequestENS0_3OutINS5_10RequestUrlEvEENSS_INS5_11CallbackUriEvEE
 00000000:00000071000B43C8       _ZN2nn2sf4cmif6client6detail13CmifProxyImplINS_7account4http15IOAuthProcedureENS2_15CmifDomainProxyINS0_4hipc6client38Hipc2ClientSessionManagedProxyKindBaseINSA_18Hipc2ProxyKindBaseILNS9_6detail11MessageTypeE4EEEEEEENS0_25StatelessAllocationPolicyINS0_22ExpHeapStaticAllocatorILm2048ENS5_6detail12ObjectHolder24ObjectHolderAllocatorTagEEEEENS5_3nas40IOAuthProcedureForNintendoAccountLinkageEE25_nn_sf_sync_ApplyResponseERKNS0_7InArrayIcEE
 00000000:00000071000B43F0       _ZN2nn2sf4cmif6client6detail13CmifProxyImplINS_7account4http15IOAuthProcedureENS2_15CmifDomainProxyINS0_4hipc6client38Hipc2ClientSessionManagedProxyKindBaseINSA_18Hipc2ProxyKindBaseILNS9_6detail11MessageTypeE4EEEEEEENS0_25StatelessAllocationPolicyINS0_22ExpHeapStaticAllocatorILm2048ENS5_6detail12ObjectHolder24ObjectHolderAllocatorTagEEEEENS5_3nas40IOAuthProcedureForNintendoAccountLinkageEE30_nn_sf_sync_ApplyResponseAsyncENS0_3OutINS0_13SharedPointerINSK_13IAsyncContextEEEvEERKNS0_7InArrayIcEE
 00000000:00000071000B4484       _ZN2nn2sf4cmif6client6detail13CmifProxyImplINS_7account4http15IOAuthProcedureENS2_15CmifDomainProxyINS0_4hipc6client38Hipc2ClientSessionManagedProxyKindBaseINSA_18Hipc2ProxyKindBaseILNS9_6detail11MessageTypeE4EEEEEEENS0_25StatelessAllocationPolicyINS0_22ExpHeapStaticAllocatorILm2048ENS5_6detail12ObjectHolder24ObjectHolderAllocatorTagEEEEENS5_3nas40IOAuthProcedureForNintendoAccountLinkageEE19_nn_sf_sync_SuspendENS0_3OutINSK_4UuidEvEE
 00000000:00000071000B44A4       _ZN2nn2sf4cmif6client6detail13CmifProxyImplINS_7account3nas40IOAuthProcedureForNintendoAccountLinkageENS2_15CmifDomainProxyINS0_4hipc6client38Hipc2ClientSessionManagedProxyKindBaseINSA_18Hipc2ProxyKindBaseILNS9_6detail11MessageTypeE4EEEEEEENS0_25StatelessAllocationPolicyINS0_22ExpHeapStaticAllocatorILm2048ENS5_6detail12ObjectHolder24ObjectHolderAllocatorTagEEEEES7_E31_nn_sf_sync_GetRequestWithThemeENS0_3OutINS5_10RequestUrlEvEENSQ_INS5_11CallbackUriEvEEi
 00000000:00000071000B44D8       _ZN2nn2sf4cmif6client6detail13CmifProxyImplINS_7account3nas40IOAuthProcedureForNintendoAccountLinkageENS2_15CmifDomainProxyINS0_4hipc6client38Hipc2ClientSessionManagedProxyKindBaseINSA_18Hipc2ProxyKindBaseILNS9_6detail11MessageTypeE4EEEEEEENS0_25StatelessAllocationPolicyINS0_22ExpHeapStaticAllocatorILm2048ENS5_6detail12ObjectHolder24ObjectHolderAllocatorTagEEEEES7_E43_nn_sf_sync_IsNetworkServiceAccountReplacedENS0_3OutIbvEE
 00000000:00000071000B44F8       _ZN2nn2sf4cmif6client6detail13CmifProxyImplINS_7account3nas40IOAuthProcedureForNintendoAccountLinkageENS2_15CmifDomainProxyINS0_4hipc6client38Hipc2ClientSessionManagedProxyKindBaseINSA_18Hipc2ProxyKindBaseILNS9_6detail11MessageTypeE4EEEEEEENS0_25StatelessAllocationPolicyINS0_22ExpHeapStaticAllocatorILm2048ENS5_6detail12ObjectHolder24ObjectHolderAllocatorTagEEEEES7_E50_nn_sf_sync_GetUrlForIntroductionOfExtraMembershipENS0_3OutINS5_10RequestUrlEvEE
 00000000:00000071000B451C       _ZN2nn2sf4cmif6client6detail13CmifProxyImplINS_7account4http15IOAuthProcedureENS2_15CmifDomainProxyINS0_4hipc6client38Hipc2ClientSessionManagedProxyKindBaseINSA_18Hipc2ProxyKindBaseILNS9_6detail11MessageTypeE4EEEEEEENS0_25StatelessAllocationPolicyINS0_22ExpHeapStaticAllocatorILm2048ENS5_6detail12ObjectHolder24ObjectHolderAllocatorTagEEEEENS5_3nas40IOAuthProcedureForNintendoAccountLinkageEE17GetCmifBaseObjectEv
 00000000:00000071000B452C       _ZThn32_N2nn2sf4cmif6client6detail13CmifProxyImplINS_7account4http15IOAuthProcedureENS2_15CmifDomainProxyINS0_4hipc6client38Hipc2ClientSessionManagedProxyKindBaseINSA_18Hipc2ProxyKindBaseILNS9_6detail11MessageTypeE4EEEEEEENS0_25StatelessAllocationPolicyINS0_22ExpHeapStaticAllocatorILm2048ENS5_6detail12ObjectHolder24ObjectHolderAllocatorTagEEEEENS5_3nas40IOAuthProcedureForNintendoAccountLinkageEE17GetCmifBaseObjectEv
 00000000:00000071000B4534       _ZN2nn2sf4cmif6client34CmifDomainProxyClientCoreProcessorINS0_4hipc6client38Hipc2ClientSessionManagedProxyKindBaseINS5_18Hipc2ProxyKindBaseILNS4_6detail11MessageTypeE4EEEEENS1_6detail14CoreMethodInfoINSt3__15tupleIJNSC_18BufferArgumentInfoILi0ELi26ELm4096EEENSG_ILi1ELi26ELm256EEEEEELm0ELm0ELb0EEESJ_E7ProcessEPNS2_23CmifDomainClientMessageISB_E15ProxyBaseObjectENS2_24BufferClientArgumentTypeESQ_j
 00000000:00000071000B4704       _ZN2nn2sf4cmif6client34CmifDomainProxyClientCoreProcessorINS0_4hipc6client38Hipc2ClientSessionManagedProxyKindBaseINS5_18Hipc2ProxyKindBaseILNS4_6detail11MessageTypeE4EEEEENS1_6detail14CoreMethodInfoINSt3__15tupleIJNSC_18BufferArgumentInfoILi0ELi9ELm0EEEEEELm0ELm0ELb0EEESI_E7ProcessEPNS2_23CmifDomainClientMessageISB_E15ProxyBaseObjectENS2_24BufferClientArgumentTypeEj
 00000000:00000071000B48C0       _ZN2nn2sf4cmif6client34CmifDomainProxyClientCoreProcessorINS0_4hipc6client38Hipc2ClientSessionManagedProxyKindBaseINS5_18Hipc2ProxyKindBaseILNS4_6detail11MessageTypeE4EEEEENS1_6detail14CoreMethodInfoINSt3__15tupleIJNSC_21OutObjectArgumentInfoILi0ELi0EEENSC_18BufferArgumentInfoILi0ELi9ELm0EEEEEELm0ELm0ELb0EEESK_E21ProcessWithOutObjectsEPNS2_23CmifDomainClientMessageISB_E15ProxyBaseObjectENS2_27OutObjectClientArgumentTypeENS2_24BufferClientArgumentTypeEjPNS0_13SharedPointerINS0_14IServiceObjectEEE
 00000000:00000071000B4B0C       _ZN2nn2sf4cmif6client34CmifDomainProxyClientCoreProcessorINS0_4hipc6client38Hipc2ClientSessionManagedProxyKindBaseINS5_18Hipc2ProxyKindBaseILNS4_6detail11MessageTypeE4EEEEENS1_6detail14CoreMethodInfoINSt3__15tupleIJNSC_18BufferArgumentInfoILi0ELi26ELm4096EEENSG_ILi1ELi26ELm256EEENSC_17InRawArgumentInfoILm4ELm4ELl0EEEEEELm4ELm0ELb0EEESL_E7ProcessEPNS2_23CmifDomainClientMessageISB_E15ProxyBaseObjectENS2_24BufferClientArgumentTypeESS_NS2_23InRawClientArgumentTypeILm4ELm4EvEEj
 00000000:00000071000B4CE8       _ZN2nn2sf4cmif6client34CmifDomainProxyClientCoreProcessorINS0_4hipc6client38Hipc2ClientSessionManagedProxyKindBaseINS5_18Hipc2ProxyKindBaseILNS4_6detail11MessageTypeE4EEEEENS1_6detail14CoreMethodInfoINSt3__15tupleIJNSC_18BufferArgumentInfoILi0ELi26ELm4096EEEEEELm0ELm0ELb0EEESI_E7ProcessEPNS2_23CmifDomainClientMessageISB_E15ProxyBaseObjectENS2_24BufferClientArgumentTypeEj
 00000000:00000071000B4EA0       _ZN2nn2sf4cmif6client34CmifDomainProxyClientCoreProcessorINS0_4hipc6client38Hipc2ClientSessionManagedProxyKindBaseINS5_18Hipc2ProxyKindBaseILNS4_6detail11MessageTypeE4EEEEENS1_6detail14CoreMethodInfoINSt3__15tupleIJNSC_21OutObjectArgumentInfoILi0ELi0EEENSC_17InRawArgumentInfoILm16ELm4ELl0EEEEEELm16ELm0ELb0EEESK_E21ProcessWithOutObjectsEPNS2_23CmifDomainClientMessageISB_E15ProxyBaseObjectENS2_27OutObjectClientArgumentTypeENS2_23InRawClientArgumentTypeILm16ELm4EvEEjPNS0_13SharedPointerINS0_14IServiceObjectEEE
 00000000:00000071000B5078       _ZN2nn2sf4cmif6client32GetClientProcessorWithObjectBaseINS2_15CmifDomainProxyINS0_4hipc6client38Hipc2ClientSessionManagedProxyKindBaseINS6_18Hipc2ProxyKindBaseILNS5_6detail11MessageTypeE4EEEEEEEE14ObjectAssignerINS0_25StatelessAllocationPolicyINS0_22ExpHeapStaticAllocatorILm2048ENS_7account6detail12ObjectHolder24ObjectHolderAllocatorTagEEEEENS0_6detail23StatelessDummyAllocatorEE14AllocateObjectINSI_4http15IOAuthProcedureEEEvi
 00000000:00000071000B512C       _ZN2nn2sf6detail39ObjectImplFactoryWithStatelessAllocatorINS0_4cmif6client16CmifProxyFactoryINS_7account4http15IOAuthProcedureENS4_15CmifDomainProxyINS0_4hipc6client38Hipc2ClientSessionManagedProxyKindBaseINSB_18Hipc2ProxyKindBaseILNSA_6detail11MessageTypeE4EEEEEEENS0_25StatelessAllocationPolicyINS0_22ExpHeapStaticAllocatorILm2048ENS6_6detail12ObjectHolder24ObjectHolderAllocatorTagEEEEEE13ServiceObjectESP_E6Object12AddReferenceEv
 00000000:00000071000B5134       _ZN2nn2sf6detail39ObjectImplFactoryWithStatelessAllocatorINS0_4cmif6client16CmifProxyFactoryINS_7account4http15IOAuthProcedureENS4_15CmifDomainProxyINS0_4hipc6client38Hipc2ClientSessionManagedProxyKindBaseINSB_18Hipc2ProxyKindBaseILNSA_6detail11MessageTypeE4EEEEEEENS0_25StatelessAllocationPolicyINS0_22ExpHeapStaticAllocatorILm2048ENS6_6detail12ObjectHolder24ObjectHolderAllocatorTagEEEEEE13ServiceObjectESP_E6Object7ReleaseEv
 00000000:00000071000B51A8       _ZN2nn2sf4cmif6client6detail13CmifProxyImplINS_7account4http15IOAuthProcedureENS2_15CmifDomainProxyINS0_4hipc6client38Hipc2ClientSessionManagedProxyKindBaseINSA_18Hipc2ProxyKindBaseILNS9_6detail11MessageTypeE4EEEEEEENS0_25StatelessAllocationPolicyINS0_22ExpHeapStaticAllocatorILm2048ENS5_6detail12ObjectHolder24ObjectHolderAllocatorTagEEEEES7_E12GetProxyInfoEv
 00000000:00000071000B51B0       _ZN2nn2sf4cmif6client6detail13CmifProxyImplINS_7account4http15IOAuthProcedureENS2_15CmifDomainProxyINS0_4hipc6client38Hipc2ClientSessionManagedProxyKindBaseINSA_18Hipc2ProxyKindBaseILNS9_6detail11MessageTypeE4EEEEEEENS0_25StatelessAllocationPolicyINS0_22ExpHeapStaticAllocatorILm2048ENS5_6detail12ObjectHolder24ObjectHolderAllocatorTagEEEEES7_E24_nn_sf_sync_PrepareAsyncENS0_3OutINS0_13SharedPointerINSK_13IAsyncContextEEEvEE
 00000000:00000071000B5238       _ZN2nn2sf4cmif6client6detail13CmifProxyImplINS_7account4http15IOAuthProcedureENS2_15CmifDomainProxyINS0_4hipc6client38Hipc2ClientSessionManagedProxyKindBaseINSA_18Hipc2ProxyKindBaseILNS9_6detail11MessageTypeE4EEEEEEENS0_25StatelessAllocationPolicyINS0_22ExpHeapStaticAllocatorILm2048ENS5_6detail12ObjectHolder24ObjectHolderAllocatorTagEEEEES7_E22_nn_sf_sync_GetRequestENS0_3OutINS5_10RequestUrlEvEENSQ_INS5_11CallbackUriEvEE
 00000000:00000071000B5268       _ZN2nn2sf4cmif6client6detail13CmifProxyImplINS_7account4http15IOAuthProcedureENS2_15CmifDomainProxyINS0_4hipc6client38Hipc2ClientSessionManagedProxyKindBaseINSA_18Hipc2ProxyKindBaseILNS9_6detail11MessageTypeE4EEEEEEENS0_25StatelessAllocationPolicyINS0_22ExpHeapStaticAllocatorILm2048ENS5_6detail12ObjectHolder24ObjectHolderAllocatorTagEEEEES7_E25_nn_sf_sync_ApplyResponseERKNS0_7InArrayIcEE
 00000000:00000071000B5290       _ZN2nn2sf4cmif6client6detail13CmifProxyImplINS_7account4http15IOAuthProcedureENS2_15CmifDomainProxyINS0_4hipc6client38Hipc2ClientSessionManagedProxyKindBaseINSA_18Hipc2ProxyKindBaseILNS9_6detail11MessageTypeE4EEEEEEENS0_25StatelessAllocationPolicyINS0_22ExpHeapStaticAllocatorILm2048ENS5_6detail12ObjectHolder24ObjectHolderAllocatorTagEEEEES7_E30_nn_sf_sync_ApplyResponseAsyncENS0_3OutINS0_13SharedPointerINSK_13IAsyncContextEEEvEERKNS0_7InArrayIcEE
 00000000:00000071000B5324       _ZN2nn2sf4cmif6client6detail13CmifProxyImplINS_7account4http15IOAuthProcedureENS2_15CmifDomainProxyINS0_4hipc6client38Hipc2ClientSessionManagedProxyKindBaseINSA_18Hipc2ProxyKindBaseILNS9_6detail11MessageTypeE4EEEEEEENS0_25StatelessAllocationPolicyINS0_22ExpHeapStaticAllocatorILm2048ENS5_6detail12ObjectHolder24ObjectHolderAllocatorTagEEEEES7_E19_nn_sf_sync_SuspendENS0_3OutINSK_4UuidEvEE
 00000000:00000071000B5344       _ZN2nn2sf4cmif6client6detail13CmifProxyImplINS_7account4http15IOAuthProcedureENS2_15CmifDomainProxyINS0_4hipc6client38Hipc2ClientSessionManagedProxyKindBaseINSA_18Hipc2ProxyKindBaseILNS9_6detail11MessageTypeE4EEEEEEENS0_25StatelessAllocationPolicyINS0_22ExpHeapStaticAllocatorILm2048ENS5_6detail12ObjectHolder24ObjectHolderAllocatorTagEEEEES7_E17GetCmifBaseObjectEv
 00000000:00000071000B5354       _ZThn32_N2nn2sf4cmif6client6detail13CmifProxyImplINS_7account4http15IOAuthProcedureENS2_15CmifDomainProxyINS0_4hipc6client38Hipc2ClientSessionManagedProxyKindBaseINSA_18Hipc2ProxyKindBaseILNS9_6detail11MessageTypeE4EEEEEEENS0_25StatelessAllocationPolicyINS0_22ExpHeapStaticAllocatorILm2048ENS5_6detail12ObjectHolder24ObjectHolderAllocatorTagEEEEES7_E17GetCmifBaseObjectEv
 00000000:00000071000B535C       _ZN2nn2sf4cmif6client32GetClientProcessorWithObjectBaseINS2_15CmifDomainProxyINS0_4hipc6client38Hipc2ClientSessionManagedProxyKindBaseINS6_18Hipc2ProxyKindBaseILNS5_6detail11MessageTypeE4EEEEEEEE14ObjectAssignerINS0_25StatelessAllocationPolicyINS0_22ExpHeapStaticAllocatorILm2048ENS_7account6detail12ObjectHolder24ObjectHolderAllocatorTagEEEEENS0_6detail23StatelessDummyAllocatorEE14AllocateObjectINSI_3nas29IOAuthProcedureForExternalNsaEEEvi
 00000000:00000071000B5410       _ZN2nn2sf6detail39ObjectImplFactoryWithStatelessAllocatorINS0_4cmif6client16CmifProxyFactoryINS_7account3nas29IOAuthProcedureForExternalNsaENS4_15CmifDomainProxyINS0_4hipc6client38Hipc2ClientSessionManagedProxyKindBaseINSB_18Hipc2ProxyKindBaseILNSA_6detail11MessageTypeE4EEEEEEENS0_25StatelessAllocationPolicyINS0_22ExpHeapStaticAllocatorILm2048ENS6_6detail12ObjectHolder24ObjectHolderAllocatorTagEEEEEE13ServiceObjectESP_E6Object12AddReferenceEv
 00000000:00000071000B5418       _ZN2nn2sf6detail39ObjectImplFactoryWithStatelessAllocatorINS0_4cmif6client16CmifProxyFactoryINS_7account3nas29IOAuthProcedureForExternalNsaENS4_15CmifDomainProxyINS0_4hipc6client38Hipc2ClientSessionManagedProxyKindBaseINSB_18Hipc2ProxyKindBaseILNSA_6detail11MessageTypeE4EEEEEEENS0_25StatelessAllocationPolicyINS0_22ExpHeapStaticAllocatorILm2048ENS6_6detail12ObjectHolder24ObjectHolderAllocatorTagEEEEEE13ServiceObjectESP_E6Object7ReleaseEv
 00000000:00000071000B548C       _ZN2nn2sf4cmif6client6detail13CmifProxyImplINS_7account4http15IOAuthProcedureENS2_15CmifDomainProxyINS0_4hipc6client38Hipc2ClientSessionManagedProxyKindBaseINSA_18Hipc2ProxyKindBaseILNS9_6detail11MessageTypeE4EEEEEEENS0_25StatelessAllocationPolicyINS0_22ExpHeapStaticAllocatorILm2048ENS5_6detail12ObjectHolder24ObjectHolderAllocatorTagEEEEENS5_3nas29IOAuthProcedureForExternalNsaEE12GetProxyInfoEv
 00000000:00000071000B5494       _ZN2nn2sf4cmif6client6detail13CmifProxyImplINS_7account4http15IOAuthProcedureENS2_15CmifDomainProxyINS0_4hipc6client38Hipc2ClientSessionManagedProxyKindBaseINSA_18Hipc2ProxyKindBaseILNS9_6detail11MessageTypeE4EEEEEEENS0_25StatelessAllocationPolicyINS0_22ExpHeapStaticAllocatorILm2048ENS5_6detail12ObjectHolder24ObjectHolderAllocatorTagEEEEENS5_3nas29IOAuthProcedureForExternalNsaEE24_nn_sf_sync_PrepareAsyncENS0_3OutINS0_13SharedPointerINSK_13IAsyncContextEEEvEE
 00000000:00000071000B551C       _ZN2nn2sf4cmif6client6detail13CmifProxyImplINS_7account4http15IOAuthProcedureENS2_15CmifDomainProxyINS0_4hipc6client38Hipc2ClientSessionManagedProxyKindBaseINSA_18Hipc2ProxyKindBaseILNS9_6detail11MessageTypeE4EEEEEEENS0_25StatelessAllocationPolicyINS0_22ExpHeapStaticAllocatorILm2048ENS5_6detail12ObjectHolder24ObjectHolderAllocatorTagEEEEENS5_3nas29IOAuthProcedureForExternalNsaEE22_nn_sf_sync_GetRequestENS0_3OutINS5_10RequestUrlEvEENSS_INS5_11CallbackUriEvEE
 00000000:00000071000B554C       _ZN2nn2sf4cmif6client6detail13CmifProxyImplINS_7account4http15IOAuthProcedureENS2_15CmifDomainProxyINS0_4hipc6client38Hipc2ClientSessionManagedProxyKindBaseINSA_18Hipc2ProxyKindBaseILNS9_6detail11MessageTypeE4EEEEEEENS0_25StatelessAllocationPolicyINS0_22ExpHeapStaticAllocatorILm2048ENS5_6detail12ObjectHolder24ObjectHolderAllocatorTagEEEEENS5_3nas29IOAuthProcedureForExternalNsaEE25_nn_sf_sync_ApplyResponseERKNS0_7InArrayIcEE
 00000000:00000071000B5574       _ZN2nn2sf4cmif6client6detail13CmifProxyImplINS_7account4http15IOAuthProcedureENS2_15CmifDomainProxyINS0_4hipc6client38Hipc2ClientSessionManagedProxyKindBaseINSA_18Hipc2ProxyKindBaseILNS9_6detail11MessageTypeE4EEEEEEENS0_25StatelessAllocationPolicyINS0_22ExpHeapStaticAllocatorILm2048ENS5_6detail12ObjectHolder24ObjectHolderAllocatorTagEEEEENS5_3nas29IOAuthProcedureForExternalNsaEE30_nn_sf_sync_ApplyResponseAsyncENS0_3OutINS0_13SharedPointerINSK_13IAsyncContextEEEvEERKNS0_7InArrayIcEE
 00000000:00000071000B5608       _ZN2nn2sf4cmif6client6detail13CmifProxyImplINS_7account4http15IOAuthProcedureENS2_15CmifDomainProxyINS0_4hipc6client38Hipc2ClientSessionManagedProxyKindBaseINSA_18Hipc2ProxyKindBaseILNS9_6detail11MessageTypeE4EEEEEEENS0_25StatelessAllocationPolicyINS0_22ExpHeapStaticAllocatorILm2048ENS5_6detail12ObjectHolder24ObjectHolderAllocatorTagEEEEENS5_3nas29IOAuthProcedureForExternalNsaEE19_nn_sf_sync_SuspendENS0_3OutINSK_4UuidEvEE
 00000000:00000071000B5628       _ZN2nn2sf4cmif6client6detail13CmifProxyImplINS_7account3nas29IOAuthProcedureForExternalNsaENS2_15CmifDomainProxyINS0_4hipc6client38Hipc2ClientSessionManagedProxyKindBaseINSA_18Hipc2ProxyKindBaseILNS9_6detail11MessageTypeE4EEEEEEENS0_25StatelessAllocationPolicyINS0_22ExpHeapStaticAllocatorILm2048ENS5_6detail12ObjectHolder24ObjectHolderAllocatorTagEEEEES7_E24_nn_sf_sync_GetAccountIdENS0_3OutINS5_23NetworkServiceAccountIdEvEE
 00000000:00000071000B5648       _ZN2nn2sf4cmif6client6detail13CmifProxyImplINS_7account3nas29IOAuthProcedureForExternalNsaENS2_15CmifDomainProxyINS0_4hipc6client38Hipc2ClientSessionManagedProxyKindBaseINSA_18Hipc2ProxyKindBaseILNS9_6detail11MessageTypeE4EEEEEEENS0_25StatelessAllocationPolicyINS0_22ExpHeapStaticAllocatorILm2048ENS5_6detail12ObjectHolder24ObjectHolderAllocatorTagEEEEES7_E38_nn_sf_sync_GetLinkedNintendoAccountIdENS0_3OutINS5_17NintendoAccountIdEvEE
 00000000:00000071000B5668       _ZN2nn2sf4cmif6client6detail13CmifProxyImplINS_7account3nas29IOAuthProcedureForExternalNsaENS2_15CmifDomainProxyINS0_4hipc6client38Hipc2ClientSessionManagedProxyKindBaseINSA_18Hipc2ProxyKindBaseILNS9_6detail11MessageTypeE4EEEEEEENS0_25StatelessAllocationPolicyINS0_22ExpHeapStaticAllocatorILm2048ENS5_6detail12ObjectHolder24ObjectHolderAllocatorTagEEEEES7_E23_nn_sf_sync_GetNicknameERKNS0_8OutArrayIcEE
 00000000:00000071000B5690       _ZN2nn2sf4cmif6client6detail13CmifProxyImplINS_7account3nas29IOAuthProcedureForExternalNsaENS2_15CmifDomainProxyINS0_4hipc6client38Hipc2ClientSessionManagedProxyKindBaseINSA_18Hipc2ProxyKindBaseILNS9_6detail11MessageTypeE4EEEEEEENS0_25StatelessAllocationPolicyINS0_22ExpHeapStaticAllocatorILm2048ENS5_6detail12ObjectHolder24ObjectHolderAllocatorTagEEEEES7_E27_nn_sf_sync_GetProfileImageENS0_3OutIjvEERKNS0_9OutBufferE
 00000000:00000071000B56B8       _ZN2nn2sf4cmif6client6detail13CmifProxyImplINS_7account4http15IOAuthProcedureENS2_15CmifDomainProxyINS0_4hipc6client38Hipc2ClientSessionManagedProxyKindBaseINSA_18Hipc2ProxyKindBaseILNS9_6detail11MessageTypeE4EEEEEEENS0_25StatelessAllocationPolicyINS0_22ExpHeapStaticAllocatorILm2048ENS5_6detail12ObjectHolder24ObjectHolderAllocatorTagEEEEENS5_3nas29IOAuthProcedureForExternalNsaEE17GetCmifBaseObjectEv
 00000000:00000071000B56C8       _ZThn32_N2nn2sf4cmif6client6detail13CmifProxyImplINS_7account4http15IOAuthProcedureENS2_15CmifDomainProxyINS0_4hipc6client38Hipc2ClientSessionManagedProxyKindBaseINSA_18Hipc2ProxyKindBaseILNS9_6detail11MessageTypeE4EEEEEEENS0_25StatelessAllocationPolicyINS0_22ExpHeapStaticAllocatorILm2048ENS5_6detail12ObjectHolder24ObjectHolderAllocatorTagEEEEENS5_3nas29IOAuthProcedureForExternalNsaEE17GetCmifBaseObjectEv
 00000000:00000071000B56D0       _ZN2nn2sf4cmif6client32GetClientProcessorWithObjectBaseINS2_15CmifDomainProxyINS0_4hipc6client38Hipc2ClientSessionManagedProxyKindBaseINS6_18Hipc2ProxyKindBaseILNS5_6detail11MessageTypeE4EEEEEEEE14ObjectAssignerINS0_25StatelessAllocationPolicyINS0_22ExpHeapStaticAllocatorILm2048ENS_7account6detail12ObjectHolder24ObjectHolderAllocatorTagEEEEENS0_6detail23StatelessDummyAllocatorEE14AllocateObjectINSJ_14ISessionObjectEEEvi
 00000000:00000071000B5784       _ZN2nn2sf6detail39ObjectImplFactoryWithStatelessAllocatorINS0_4cmif6client16CmifProxyFactoryINS_7account6detail14ISessionObjectENS4_15CmifDomainProxyINS0_4hipc6client38Hipc2ClientSessionManagedProxyKindBaseINSB_18Hipc2ProxyKindBaseILNSA_6detail11MessageTypeE4EEEEEEENS0_25StatelessAllocationPolicyINS0_22ExpHeapStaticAllocatorILm2048ENS7_12ObjectHolder24ObjectHolderAllocatorTagEEEEEE13ServiceObjectESO_E6Object12AddReferenceEv
 00000000:00000071000B578C       _ZN2nn2sf6detail39ObjectImplFactoryWithStatelessAllocatorINS0_4cmif6client16CmifProxyFactoryINS_7account6detail14ISessionObjectENS4_15CmifDomainProxyINS0_4hipc6client38Hipc2ClientSessionManagedProxyKindBaseINSB_18Hipc2ProxyKindBaseILNSA_6detail11MessageTypeE4EEEEEEENS0_25StatelessAllocationPolicyINS0_22ExpHeapStaticAllocatorILm2048ENS7_12ObjectHolder24ObjectHolderAllocatorTagEEEEEE13ServiceObjectESO_E6Object7ReleaseEv
 00000000:00000071000B5800       _ZN2nn2sf4cmif6client6detail13CmifProxyImplINS_7account6detail14ISessionObjectENS2_15CmifDomainProxyINS0_4hipc6client38Hipc2ClientSessionManagedProxyKindBaseINSA_18Hipc2ProxyKindBaseILNS9_6detail11MessageTypeE4EEEEEEENS0_25StatelessAllocationPolicyINS0_22ExpHeapStaticAllocatorILm2048ENS6_12ObjectHolder24ObjectHolderAllocatorTagEEEEES7_E12GetProxyInfoEv
 00000000:00000071000B5808       _ZN2nn2sf4cmif6client6detail13CmifProxyImplINS_7account6detail14ISessionObjectENS2_15CmifDomainProxyINS0_4hipc6client38Hipc2ClientSessionManagedProxyKindBaseINSA_18Hipc2ProxyKindBaseILNS9_6detail11MessageTypeE4EEEEEEENS0_25StatelessAllocationPolicyINS0_22ExpHeapStaticAllocatorILm2048ENS6_12ObjectHolder24ObjectHolderAllocatorTagEEEEES7_E17_nn_sf_sync_DummyEv
 00000000:00000071000B5828       _ZN2nn2sf4cmif6client6detail13CmifProxyImplINS_7account6detail14ISessionObjectENS2_15CmifDomainProxyINS0_4hipc6client38Hipc2ClientSessionManagedProxyKindBaseINSA_18Hipc2ProxyKindBaseILNS9_6detail11MessageTypeE4EEEEEEENS0_25StatelessAllocationPolicyINS0_22ExpHeapStaticAllocatorILm2048ENS6_12ObjectHolder24ObjectHolderAllocatorTagEEEEES7_E17GetCmifBaseObjectEv
 00000000:00000071000B5838       _ZThn32_N2nn2sf4cmif6client6detail13CmifProxyImplINS_7account6detail14ISessionObjectENS2_15CmifDomainProxyINS0_4hipc6client38Hipc2ClientSessionManagedProxyKindBaseINSA_18Hipc2ProxyKindBaseILNS9_6detail11MessageTypeE4EEEEEEENS0_25StatelessAllocationPolicyINS0_22ExpHeapStaticAllocatorILm2048ENS6_12ObjectHolder24ObjectHolderAllocatorTagEEEEES7_E17GetCmifBaseObjectEv
 00000000:00000071000B5890       _ZN2nn7account12AsyncContext4SwapERS1_
 00000000:00000071000B58D8       _ZN2nn7account12AsyncContextC1EOS1_
 00000000:00000071000B590C       _ZN2nn7account12AsyncContextaSEOS1_
 00000000:00000071000B59F8       _ZN2nn7account12AsyncContextC1EPNS0_6detail13IAsyncContextE
 00000000:00000071000B5A14       _ZN2nn7account12AsyncContextC1EPNS0_6detail13IAsyncContextERKNS0_3UidE
 00000000:00000071000B5A3C       _ZN2nn7account12AsyncContextC2Ev
 00000000:00000071000B5A54       _ZN2nn7account12AsyncContextD2Ev
 00000000:00000071000B5AF4       _ZNK2nn7account12AsyncContextcvbEv
 00000000:00000071000B5B04       _ZN2nn7account12AsyncContextD0Ev
 00000000:00000071000B5BAC       _ZN2nn7account12AsyncContext14GetSystemEventEPNS_2os11SystemEventE
 00000000:00000071000B5C24       _ZN2nn7account12AsyncContext6CancelEv
 00000000:00000071000B5C48       _ZN2nn7account12AsyncContext7HasDoneEPb
 00000000:00000071000B5C6C       _ZN2nn7account12AsyncContext9GetResultEv
 00000000:00000071000B5C90       _ZN2nn7account33InitializeBaasAccessTokenAccessorEv
 00000000:00000071000B5D84       _ZN2nn7account37InitializeBaasAccessTokenAccessorWithEONS_2sf13SharedPointerINS0_24IBaasAccessTokenAccessorEEE
 00000000:00000071000B5E30       _ZN2nn7account31FinalizeBaasAccessTokenAccessorEv
 00000000:00000071000B5E98       _ZN2nn7account31EnsureBaasAccessTokenCacheAsyncEPNS0_12AsyncContextERKNS0_3UidE
 00000000:00000071000B5F70       _ZN2nn7account24LoadBaasAccessTokenCacheEPmPcmRKNS0_3UidE
 00000000:00000071000B601C       _ZN2nn7account22GetBaasDeviceAccountIdEPmRKNS0_3UidE
 00000000:00000071000B6094       _ZN2nn7account27PutBaasChannelResourceAsyncEPNS0_12AsyncContextERKNS0_3UidERKNS_4npns17NotificationTokenE
 00000000:00000071000B6174       _ZN2nn7account30DeleteBaasChannelResourceAsyncEPNS0_12AsyncContextERKNS0_3UidE
 00000000:00000071000B624C       _ZZN2nn2sf40SimpleAllInOneHipcSubDomainClientManagerILm17EE27InitializeShimLibraryHolderINS_7account24IBaasAccessTokenAccessorEEENS_6ResultEPNS0_23ShimLibraryObjectHolderIT_EEPKcPNS_14MemoryResourceEENUlPNS0_13SharedPointerIS5_EEE_clESH_
 00000000:00000071000B656C       _ZN2nn2sf22UnitHeapMemoryResourceD0Ev
 00000000:00000071000B6570       _ZN2nn2sf22UnitHeapMemoryResource11do_allocateEmm
 00000000:00000071000B6578       _ZN2nn2sf22UnitHeapMemoryResource13do_deallocateEPvmm
 00000000:00000071000B6580       _ZNK2nn2sf22UnitHeapMemoryResource11do_is_equalERKNS_14MemoryResourceE
 00000000:00000071000B658C       _ZN2nn2sf4hipc6client34HipcSimpleClientSessionManagerBase4Impl18InitializeByHandleINS_7account24IBaasAccessTokenAccessorENS0_30MemoryResourceAllocationPolicyEEENS_6ResultEPNS0_13SharedPointerIT_EEPNT0_9AllocatorENS_3svc6HandleE
 00000000:00000071000B6690       _ZN2nn2sf6detail38ObjectImplFactoryWithStatefulAllocatorINS0_4cmif6client16CmifProxyFactoryINS_7account24IBaasAccessTokenAccessorENS4_15CmifDomainProxyINS0_4hipc6client38Hipc2ClientSessionManagedProxyKindBaseINSA_18Hipc2ProxyKindBaseILNS9_6detail11MessageTypeE4EEEEEEENS0_30MemoryResourceAllocationPolicyEE13ServiceObjectESI_E6Object12AddReferenceEv
 00000000:00000071000B6698       _ZN2nn2sf6detail38ObjectImplFactoryWithStatefulAllocatorINS0_4cmif6client16CmifProxyFactoryINS_7account24IBaasAccessTokenAccessorENS4_15CmifDomainProxyINS0_4hipc6client38Hipc2ClientSessionManagedProxyKindBaseINSA_18Hipc2ProxyKindBaseILNS9_6detail11MessageTypeE4EEEEEEENS0_30MemoryResourceAllocationPolicyEE13ServiceObjectESI_E6Object7ReleaseEv
 00000000:00000071000B66F0       _ZN2nn2sf4cmif6client6detail13CmifProxyImplINS_7account24IBaasAccessTokenAccessorENS2_15CmifDomainProxyINS0_4hipc6client38Hipc2ClientSessionManagedProxyKindBaseINS9_18Hipc2ProxyKindBaseILNS8_6detail11MessageTypeE4EEEEEEENS0_30MemoryResourceAllocationPolicyES6_E12GetProxyInfoEv
 00000000:00000071000B66F8       _ZN2nn2sf4cmif6client6detail13CmifProxyImplINS_7account24IBaasAccessTokenAccessorENS2_15CmifDomainProxyINS0_4hipc6client38Hipc2ClientSessionManagedProxyKindBaseINS9_18Hipc2ProxyKindBaseILNS8_6detail11MessageTypeE4EEEEEEENS0_30MemoryResourceAllocationPolicyES6_E28_nn_sf_sync_EnsureCacheAsyncENS0_3OutINS0_13SharedPointerINS5_6detail13IAsyncContextEEEvEERKNS5_3UidE
 00000000:00000071000B6790       _ZN2nn2sf4cmif6client6detail13CmifProxyImplINS_7account24IBaasAccessTokenAccessorENS2_15CmifDomainProxyINS0_4hipc6client38Hipc2ClientSessionManagedProxyKindBaseINS9_18Hipc2ProxyKindBaseILNS8_6detail11MessageTypeE4EEEEEEENS0_30MemoryResourceAllocationPolicyES6_E21_nn_sf_sync_LoadCacheENS0_3OutIjvEERKNS0_9OutBufferERKNS5_3UidE
 00000000:00000071000B67C0       _ZN2nn2sf4cmif6client6detail13CmifProxyImplINS_7account24IBaasAccessTokenAccessorENS2_15CmifDomainProxyINS0_4hipc6client38Hipc2ClientSessionManagedProxyKindBaseINS9_18Hipc2ProxyKindBaseILNS8_6detail11MessageTypeE4EEEEEEENS0_30MemoryResourceAllocationPolicyES6_E30_nn_sf_sync_GetDeviceAccountIdENS0_3OutImvEERKNS5_3UidE
 00000000:00000071000B67E0       _ZN2nn2sf4cmif6client6detail13CmifProxyImplINS_7account24IBaasAccessTokenAccessorENS2_15CmifDomainProxyINS0_4hipc6client38Hipc2ClientSessionManagedProxyKindBaseINS9_18Hipc2ProxyKindBaseILNS8_6detail11MessageTypeE4EEEEEEENS0_30MemoryResourceAllocationPolicyES6_E42_nn_sf_sync_RegisterNotificationTokenAsyncENS0_3OutINS0_13SharedPointerINS5_6detail13IAsyncContextEEEvEERKNS5_3UidERKNS_4npns17NotificationTokenE
 00000000:00000071000B688C       _ZN2nn2sf4cmif6client6detail13CmifProxyImplINS_7account24IBaasAccessTokenAccessorENS2_15CmifDomainProxyINS0_4hipc6client38Hipc2ClientSessionManagedProxyKindBaseINS9_18Hipc2ProxyKindBaseILNS8_6detail11MessageTypeE4EEEEEEENS0_30MemoryResourceAllocationPolicyES6_E44_nn_sf_sync_UnregisterNotificationTokenAsyncENS0_3OutINS0_13SharedPointerINS5_6detail13IAsyncContextEEEvEERKNS5_3UidE
 00000000:00000071000B6924       _ZN2nn2sf4cmif6client6detail13CmifProxyImplINS_7account24IBaasAccessTokenAccessorENS2_15CmifDomainProxyINS0_4hipc6client38Hipc2ClientSessionManagedProxyKindBaseINS9_18Hipc2ProxyKindBaseILNS8_6detail11MessageTypeE4EEEEEEENS0_30MemoryResourceAllocationPolicyES6_E17GetCmifBaseObjectEv
 00000000:00000071000B6934       _ZThn32_N2nn2sf4cmif6client6detail13CmifProxyImplINS_7account24IBaasAccessTokenAccessorENS2_15CmifDomainProxyINS0_4hipc6client38Hipc2ClientSessionManagedProxyKindBaseINS9_18Hipc2ProxyKindBaseILNS8_6detail11MessageTypeE4EEEEEEENS0_30MemoryResourceAllocationPolicyES6_E17GetCmifBaseObjectEv
 00000000:00000071000B693C       _ZN2nn2sf4cmif6client32GetClientProcessorWithObjectBaseINS2_15CmifDomainProxyINS0_4hipc6client38Hipc2ClientSessionManagedProxyKindBaseINS6_18Hipc2ProxyKindBaseILNS5_6detail11MessageTypeE4EEEEEEEE14ObjectAssignerINS0_30MemoryResourceAllocationPolicyENS_14MemoryResourceEE14AllocateObjectINS_7account6detail13IAsyncContextEEEvi
 00000000:00000071000B69E8       _ZN2nn2sf6detail38ObjectImplFactoryWithStatefulAllocatorINS0_4cmif6client16CmifProxyFactoryINS_7account6detail13IAsyncContextENS4_15CmifDomainProxyINS0_4hipc6client38Hipc2ClientSessionManagedProxyKindBaseINSB_18Hipc2ProxyKindBaseILNSA_6detail11MessageTypeE4EEEEEEENS0_30MemoryResourceAllocationPolicyEE13ServiceObjectESJ_E6Object12AddReferenceEv
 00000000:00000071000B69F0       _ZN2nn2sf6detail38ObjectImplFactoryWithStatefulAllocatorINS0_4cmif6client16CmifProxyFactoryINS_7account6detail13IAsyncContextENS4_15CmifDomainProxyINS0_4hipc6client38Hipc2ClientSessionManagedProxyKindBaseINSB_18Hipc2ProxyKindBaseILNSA_6detail11MessageTypeE4EEEEEEENS0_30MemoryResourceAllocationPolicyEE13ServiceObjectESJ_E6Object7ReleaseEv
 00000000:00000071000B6A48       _ZN2nn2sf4cmif6client6detail13CmifProxyImplINS_7account6detail13IAsyncContextENS2_15CmifDomainProxyINS0_4hipc6client38Hipc2ClientSessionManagedProxyKindBaseINSA_18Hipc2ProxyKindBaseILNS9_6detail11MessageTypeE4EEEEEEENS0_30MemoryResourceAllocationPolicyES7_E12GetProxyInfoEv
 00000000:00000071000B6A50       _ZN2nn2sf4cmif6client6detail13CmifProxyImplINS_7account6detail13IAsyncContextENS2_15CmifDomainProxyINS0_4hipc6client38Hipc2ClientSessionManagedProxyKindBaseINSA_18Hipc2ProxyKindBaseILNS9_6detail11MessageTypeE4EEEEEEENS0_30MemoryResourceAllocationPolicyES7_E26_nn_sf_sync_GetSystemEventENS0_3OutINS0_12NativeHandleEvEE
 00000000:00000071000B6A70       _ZN2nn2sf4cmif6client6detail13CmifProxyImplINS_7account6detail13IAsyncContextENS2_15CmifDomainProxyINS0_4hipc6client38Hipc2ClientSessionManagedProxyKindBaseINSA_18Hipc2ProxyKindBaseILNS9_6detail11MessageTypeE4EEEEEEENS0_30MemoryResourceAllocationPolicyES7_E18_nn_sf_sync_CancelEv
 00000000:00000071000B6A90       _ZN2nn2sf4cmif6client6detail13CmifProxyImplINS_7account6detail13IAsyncContextENS2_15CmifDomainProxyINS0_4hipc6client38Hipc2ClientSessionManagedProxyKindBaseINSA_18Hipc2ProxyKindBaseILNS9_6detail11MessageTypeE4EEEEEEENS0_30MemoryResourceAllocationPolicyES7_E19_nn_sf_sync_HasDoneENS0_3OutIbvEE
 00000000:00000071000B6AB0       _ZN2nn2sf4cmif6client6detail13CmifProxyImplINS_7account6detail13IAsyncContextENS2_15CmifDomainProxyINS0_4hipc6client38Hipc2ClientSessionManagedProxyKindBaseINSA_18Hipc2ProxyKindBaseILNS9_6detail11MessageTypeE4EEEEEEENS0_30MemoryResourceAllocationPolicyES7_E21_nn_sf_sync_GetResultEv
 00000000:00000071000B6AD0       _ZN2nn2sf4cmif6client6detail13CmifProxyImplINS_7account6detail13IAsyncContextENS2_15CmifDomainProxyINS0_4hipc6client38Hipc2ClientSessionManagedProxyKindBaseINSA_18Hipc2ProxyKindBaseILNS9_6detail11MessageTypeE4EEEEEEENS0_30MemoryResourceAllocationPolicyES7_E17GetCmifBaseObjectEv
 00000000:00000071000B6AE0       _ZThn32_N2nn2sf4cmif6client6detail13CmifProxyImplINS_7account6detail13IAsyncContextENS2_15CmifDomainProxyINS0_4hipc6client38Hipc2ClientSessionManagedProxyKindBaseINSA_18Hipc2ProxyKindBaseILNS9_6detail11MessageTypeE4EEEEEEENS0_30MemoryResourceAllocationPolicyES7_E17GetCmifBaseObjectEv
 00000000:00000071000B6AE8       _ZN2nn2sf4cmif6client34CmifDomainProxyClientCoreProcessorINS0_4hipc6client38Hipc2ClientSessionManagedProxyKindBaseINS5_18Hipc2ProxyKindBaseILNS4_6detail11MessageTypeE4EEEEENS1_6detail14CoreMethodInfoINSt3__15tupleIJNSC_18OutRawArgumentInfoILm4ELm4ELl0EEENSC_18BufferArgumentInfoILi0ELi6ELm0EEENSC_17InRawArgumentInfoILm16ELm8ELl0EEEEEELm16ELm4ELb0EEESM_E7ProcessEPNS2_23CmifDomainClientMessageISB_E15ProxyBaseObjectENS2_24OutRawClientArgumentTypeILm4ELm4EEENS2_24BufferClientArgumentTypeENS2_23InRawClientArgumentTypeILm16ELm8EvEEj
 00000000:00000071000B6CD4       _ZN2nn2sf4cmif6client34CmifDomainProxyClientCoreProcessorINS0_4hipc6client38Hipc2ClientSessionManagedProxyKindBaseINS5_18Hipc2ProxyKindBaseILNS4_6detail11MessageTypeE4EEEEENS1_6detail14CoreMethodInfoINSt3__15tupleIJNSC_18OutRawArgumentInfoILm8ELm8ELl0EEENSC_17InRawArgumentInfoILm16ELm8ELl0EEEEEELm16ELm8ELb0EEESK_E7ProcessEPNS2_23CmifDomainClientMessageISB_E15ProxyBaseObjectENS2_24OutRawClientArgumentTypeILm8ELm8EEENS2_23InRawClientArgumentTypeILm16ELm8EvEEj
 00000000:00000071000B6E38       _ZN2nn2sf4cmif6client34CmifDomainProxyClientCoreProcessorINS0_4hipc6client38Hipc2ClientSessionManagedProxyKindBaseINS5_18Hipc2ProxyKindBaseILNS4_6detail11MessageTypeE4EEEEENS1_6detail14CoreMethodInfoINSt3__15tupleIJNSC_21OutObjectArgumentInfoILi0ELi0EEENSC_17InRawArgumentInfoILm16ELm8ELl40EEENSI_ILm40ELm1ELl0EEEEEELm56ELm0ELb0EEESL_E21ProcessWithOutObjectsEPNS2_23CmifDomainClientMessageISB_E15ProxyBaseObjectENS2_27OutObjectClientArgumentTypeENS2_23InRawClientArgumentTypeILm16ELm8EvEENST_ILm40ELm1EvEEjPNS0_13SharedPointerINS0_14IServiceObjectEEE
 00000000:00000071000B703C       _ZZN2nn2sf40SimpleAllInOneHipcSubDomainClientManagerILm17EE27InitializeShimLibraryHolderINS_7account24IBaasAccessTokenAccessorEEENS_6ResultEPNS0_23ShimLibraryObjectHolderIT_EEPKcPNS_14MemoryResourceEENUlPvE_8__invokeESF_
 00000000:00000071000B70DC       _ZN2nn7account25CachedNintendoAccountInfoC2Ev
 00000000:00000071000B70E0       _ZNK2nn7account25CachedNintendoAccountInfo11GetBirthdayEPm
 00000000:00000071000B7114       _ZNK2nn7account25CachedNintendoAccountInfo9GetGenderEPm
 00000000:00000071000B714C       _ZNK2nn7account25CachedNintendoAccountInfo10GetCountryEPm
 00000000:00000071000B7184       _ZN2nn7account41CachedNintendoAccountInfoForSystemServiceC2Ev
 00000000:00000071000B718C       _ZNK2nn7account41CachedNintendoAccountInfoForSystemService5GetIdEv
 00000000:00000071000B7190       _ZNK2nn7account41CachedNintendoAccountInfoForSystemService7IsChildEv
 00000000:00000071000B7198       _ZNK2nn7account41CachedNintendoAccountInfoForSystemService13GetScreenNameEPm
 00000000:00000071000B71D0       _ZNK2nn7account41CachedNintendoAccountInfoForSystemService15GetEmailAddressEPm
 00000000:00000071000B7208       _ZNK2nn7account41CachedNintendoAccountInfoForSystemService10GetLoginIdEPm
 00000000:00000071000B7240       _ZNK2nn7account41CachedNintendoAccountInfoForSystemService11GetBirthdayEPm
 00000000:00000071000B7278       _ZNK2nn7account41CachedNintendoAccountInfoForSystemService9GetGenderEPm
 00000000:00000071000B72B0       _ZNK2nn7account41CachedNintendoAccountInfoForSystemService10GetCountryEPm
 00000000:00000071000B72E8       _ZNK2nn7account41CachedNintendoAccountInfoForSystemService9GetRegionEPm
 00000000:00000071000B7320       _ZNK2nn7account41CachedNintendoAccountInfoForSystemService11GetLanguageEPm
 00000000:00000071000B7358       _ZNK2nn7account41CachedNintendoAccountInfoForSystemService23GetAnalyticsOptedInFlagEv
 00000000:00000071000B7360       _ZNK2nn7account41CachedNintendoAccountInfoForSystemService27IsLinkedWithNintendoNetworkEv
 00000000:00000071000B7368       _ZN2nn7account19CalculateCheckDigitERKNS0_23NetworkServiceAccountIdE
 00000000:00000071000B73DC       _ZN2nn7account33ExternalNetworkServiceAccountInfoC2Ev
 00000000:00000071000B73E4       _ZN2nn7account33ExternalNetworkServiceAccountInfoC2EPNS0_4baas18IGuestLoginRequestE
 00000000:00000071000B73EC       _ZN2nn7account33ExternalNetworkServiceAccountInfoC1EOS1_
 00000000:00000071000B73FC       _ZN2nn7account33ExternalNetworkServiceAccountInfoD2Ev
 00000000:00000071000B7414       _ZN2nn7account33ExternalNetworkServiceAccountInfoaSEOS1_
 00000000:00000071000B7454       _ZN2nn7account33ExternalNetworkServiceAccountInfo4SwapERS1_
 00000000:00000071000B7468       _ZNK2nn7account33ExternalNetworkServiceAccountInfo11GetNicknameEPNS0_8NicknameE
 00000000:00000071000B74A8       _ZNK2nn7account33ExternalNetworkServiceAccountInfo15GetProfileImageEPmPvm
 00000000:00000071000B7500       _ZNK2nn7account33ExternalNetworkServiceAccountInfo26GetNetworkServiceAccountIdEPNS0_23NetworkServiceAccountIdE
 00000000:00000071000B752C       _ZNK2nn7account33ExternalNetworkServiceAccountInfo37LoadNetworkServiceAccountIdTokenCacheEPmPcm
 00000000:00000071000B7584       _ZN2nn7account38ExternalNetworkServiceAccountRegistrarC2Ev
 00000000:00000071000B758C       _ZN2nn7account38ExternalNetworkServiceAccountRegistrarC1EPNS0_4baas28IFloatingRegistrationRequestE
 00000000:00000071000B7594       _ZN2nn7account38ExternalNetworkServiceAccountRegistrarC2EOS1_
 00000000:00000071000B75A4       _ZN2nn7account38ExternalNetworkServiceAccountRegistrarD2Ev
 00000000:00000071000B75BC       _ZN2nn7account38ExternalNetworkServiceAccountRegistraraSEOS1_
 00000000:00000071000B75FC       _ZN2nn7account38ExternalNetworkServiceAccountRegistrar4SwapERS1_
 00000000:00000071000B7610       _ZN2nn7account38ExternalNetworkServiceAccountRegistrar13RegisterAsyncEPNS0_3UidEPNS0_12AsyncContextE
 00000000:00000071000B76A0       _ZN2nn7account38ExternalNetworkServiceAccountRegistrar13RegisterAsyncEPNS0_12AsyncContextERKNS0_3UidE
 00000000:00000071000B7730       _ZNK2nn7account38ExternalNetworkServiceAccountRegistrar11GetNicknameEPNS0_8NicknameE
 00000000:00000071000B7770       _ZNK2nn7account38ExternalNetworkServiceAccountRegistrar15GetProfileImageEPmPvm
 00000000:00000071000B77C8       _ZNK2nn7account38ExternalNetworkServiceAccountRegistrar26GetNetworkServiceAccountIdEPNS0_23NetworkServiceAccountIdE
 00000000:00000071000B77F4       _ZN2nn7account38ExternalNetworkServiceAccountRegistrar30SetSystemProgramIdentificationERKNS0_27SystemProgramIdentificationE
 00000000:00000071000B781C       _ZN2nn7account38ExternalNetworkServiceAccountRegistrar44EnsureNetworkServiceAccountIdTokenCacheAsyncEPNS0_12AsyncContextE
 00000000:00000071000B78AC       _ZNK2nn7account38ExternalNetworkServiceAccountRegistrar37LoadNetworkServiceAccountIdTokenCacheEPmPcm
 00000000:00000071000B7904       _ZN2nn7account20MakePreselectionInfoERKNS0_3UidE
 00000000:00000071000B79F4       _ZN2nn7account36EnsureNetworkServiceAccountAvailableERKNS0_10UserHandleE
 00000000:00000071000B7A94       _ZN2nn7account32IsNetworkServiceAccountAvailableEPbRKNS0_10UserHandleE
 00000000:00000071000B7AFC       _ZN2nn7account26GetNetworkServiceAccountIdEPNS0_23NetworkServiceAccountIdERKNS0_10UserHandleE
 00000000:00000071000B7B28       _ZN2nn7account44EnsureNetworkServiceAccountIdTokenCacheAsyncEPNS0_12AsyncContextERKNS0_10UserHandleE
 00000000:00000071000B7BEC       _ZN2nn7account37LoadNetworkServiceAccountIdTokenCacheEPmPcmRKNS0_10UserHandleE
 00000000:00000071000B7C44       _ZN2nn7account41CreateNintendoAccountAuthorizationRequestEPNS0_42NintendoAccountAuthorizationRequestContextERKNS0_10UserHandleERKNS0_45NintendoAccountAuthorizationRequestParametersEPvm
 00000000:00000071000B7DB4       _ZN2nn7account29LoadCachedNintendoAccountInfoEPNS0_25CachedNintendoAccountInfoERKNS0_10UserHandleEPvm
 00000000:00000071000B7E24       _ZN2nn7account28NetworkServiceAccountManagerC2Ev
 00000000:00000071000B7E3C       _ZN2nn7account28NetworkServiceAccountManagerC1ERKNS0_3UidEPNS0_4baas24IManagerForSystemServiceE
 00000000:00000071000B7E64       _ZN2nn7account28NetworkServiceAccountManagerD0Ev
 00000000:00000071000B7EA8       _ZN2nn7account28NetworkServiceAccountManager4SwapERS1_
 00000000:00000071000B7EF0       _ZN2nn7account28NetworkServiceAccountManager36EnsureNetworkServiceAccountAvailableENS0_32NintendoAccountStartupDialogTypeE
 00000000:00000071000B7F88       _ZN2nn7account28NetworkServiceAccountManager38CheckNetworkServiceAccountAvailabilityEv
 00000000:00000071000B7FAC       _ZN2nn7account28NetworkServiceAccountManager32IsNetworkServiceAccountAvailableEPb
 00000000:00000071000B8014       _ZN2nn7account28NetworkServiceAccountManager26GetNetworkServiceAccountIdEPNS0_23NetworkServiceAccountIdE
 00000000:00000071000B8038       _ZN2nn7account28NetworkServiceAccountManager20GetNintendoAccountIdEPNS0_17NintendoAccountIdE
 00000000:00000071000B805C       _ZN2nn7account28NetworkServiceAccountManager29LoadCachedNintendoAccountInfoEPNS0_41CachedNintendoAccountInfoForSystemServiceEPvm
 00000000:00000071000B8098       _ZN2nn7account28NetworkServiceAccountManager37RefreshCachedNintendoAccountInfoAsyncEPNS0_12AsyncContextE
 00000000:00000071000B8130       _ZN2nn7account28NetworkServiceAccountManager50RefreshCachedNintendoAccountInfoAsyncIfTimeElapsedEPbPNS0_12AsyncContextENS_8TimeSpanE
 00000000:00000071000B822C       _ZN2nn7account28NetworkServiceAccountManager44EnsureNetworkServiceAccountIdTokenCacheAsyncEPNS0_12AsyncContextE
 00000000:00000071000B82C4       _ZN2nn7account28NetworkServiceAccountManager37LoadNetworkServiceAccountIdTokenCacheEPmPcm
 00000000:00000071000B831C       _ZN2nn7account28NetworkServiceAccountManager41CreateNintendoAccountAuthorizationRequestEPNS0_42NintendoAccountAuthorizationRequestContextEmPKcmRKNS0_45NintendoAccountAuthorizationRequestParametersEPvm
 00000000:00000071000B84AC       _ZN2nn7account28NetworkServiceAccountManager46DebugCreateNintendoAccountAuthorizationRequestEPNS0_42NintendoAccountAuthorizationRequestContextEmPKcmRKNS0_45NintendoAccountAuthorizationRequestParametersEPvm
 00000000:00000071000B8630       _ZN2nn7account28NetworkServiceAccountManager30SetSystemProgramIdentificationERKNS0_27SystemProgramIdentificationE
 00000000:00000071000B8658       _ZN2nn7account34NetworkServiceAccountAdministratorC2Ev
 00000000:00000071000B8670       _ZN2nn7account34NetworkServiceAccountAdministratorC2ERKNS0_3UidEPNS0_4baas14IAdministratorE
 00000000:00000071000B86A4       _ZN2nn7account34NetworkServiceAccountAdministrator4SwapERS1_
 00000000:00000071000B86EC       _ZN2nn7account34NetworkServiceAccountAdministrator33IsNetworkServiceAccountRegisteredEPb
 00000000:00000071000B8710       _ZN2nn7account34NetworkServiceAccountAdministrator13RegisterAsyncEPNS0_12AsyncContextE
 00000000:00000071000B87B0       _ZN2nn7account34NetworkServiceAccountAdministrator15UnregisterAsyncEPNS0_12AsyncContextE
 00000000:00000071000B8850       _ZN2nn7account34NetworkServiceAccountAdministrator29DeleteRegistrationInfoLocallyEv
 00000000:00000071000B8874       _ZN2nn7account34NetworkServiceAccountAdministrator23SynchronizeProfileAsyncEPNS0_12AsyncContextE
 00000000:00000071000B8914       _ZN2nn7account34NetworkServiceAccountAdministrator36SynchronizeProfileAsyncIfTimeElapsedEPbPNS0_12AsyncContextENS_8TimeSpanE
 00000000:00000071000B8A18       _ZN2nn7account34NetworkServiceAccountAdministrator27IsLinkedWithNintendoAccountEPb
 00000000:00000071000B8A3C       _ZN2nn7account34NetworkServiceAccountAdministrator40CreateProcedureToLinkWithNintendoAccountEPNS0_31NintendoAccountLinkageProcedureE
 00000000:00000071000B8ADC       _ZN2nn7account34NetworkServiceAccountAdministrator40ResumeProcedureToLinkWithNintendoAccountEPNS0_31NintendoAccountLinkageProcedureERKNS0_9SessionIdE
 00000000:00000071000B8B8C       _ZN2nn7account34NetworkServiceAccountAdministrator52CreateProcedureToUpdateLinkageStateOfNintendoAccountEPNS0_6detail24SimpleOAuthProcedureBaseE
 00000000:00000071000B8C2C       _ZN2nn7account34NetworkServiceAccountAdministrator52ResumeProcedureToUpdateLinkageStateOfNintendoAccountEPNS0_6detail24SimpleOAuthProcedureBaseERKNS0_9SessionIdE
 00000000:00000071000B8CDC       _ZN2nn7account34NetworkServiceAccountAdministrator44CreateProcedureToLinkNnidWithNintendoAccountEPNS0_6detail24SimpleOAuthProcedureBaseE
 00000000:00000071000B8D7C       _ZN2nn7account34NetworkServiceAccountAdministrator44ResumeProcedureToLinkNnidWithNintendoAccountEPNS0_6detail24SimpleOAuthProcedureBaseERKNS0_9SessionIdE
 00000000:00000071000B8E2C       _ZN2nn7account34NetworkServiceAccountAdministrator65ProxyProcedureToAcquireApplicationAuthorizationForNintendoAccountEPNS0_48NintendoAccountApplicationAuthorizationProcedureERKNS0_9SessionIdE
 00000000:00000071000B8EDC       _ZN2nn7account34NetworkServiceAccountAdministrator46DebugSetNetworkServiceAccountAvailabilityErrorENS_6ResultE
 00000000:00000071000B9004       _ZN2nn7account34NetworkServiceAccountAdministrator31DebugUnlinkNintendoAccountAsyncEPNS0_12AsyncContextE
 00000000:00000071000B90C0       _ZN2nn7account34NetworkServiceAccountAdministrator18UploadProfileAsyncEPNS0_12AsyncContextE
 00000000:00000071000B917C       _ZN2nn7account28NetworkServiceAccountManagerD2Ev
 00000000:00000071000B91A4       _ZN2nn7account34NetworkServiceAccountAdministratorD0Ev
 00000000:00000071000B91E8       _ZN2nn7account42NintendoAccountAuthorizationRequestContextC2Ev
 00000000:00000071000B91FC       _ZN2nn7account42NintendoAccountAuthorizationRequestContextC2EPNS0_3nas21IAuthorizationRequestERKNS0_3UidE
 00000000:00000071000B9218       _ZN2nn7account42NintendoAccountAuthorizationRequestContextC1EOS1_
 00000000:00000071000B9260       _ZN2nn7account42NintendoAccountAuthorizationRequestContextD2Ev
 00000000:00000071000B9298       _ZN2nn7account42NintendoAccountAuthorizationRequestContextaSEOS1_
 00000000:00000071000B9390       _ZN2nn7account42NintendoAccountAuthorizationRequestContext4SwapERS1_
 00000000:00000071000B9434       _ZN2nn7account42NintendoAccountAuthorizationRequestContext6InvokeEv
 00000000:00000071000B94CC       _ZN2nn7account42NintendoAccountAuthorizationRequestContext14GetSystemEventEPNS_2os11SystemEventE
 00000000:00000071000B94E8       _ZN2nn7account42NintendoAccountAuthorizationRequestContext6CancelEv
 00000000:00000071000B9504       _ZN2nn7account42NintendoAccountAuthorizationRequestContext7HasDoneEPb
 00000000:00000071000B9520       _ZN2nn7account42NintendoAccountAuthorizationRequestContext9GetResultEv
 00000000:00000071000B95A8       _ZN2nn7account42NintendoAccountAuthorizationRequestContext34GetResultWithInteractionIfRequiredEv
 00000000:00000071000B96D4       _ZN2nn7account42NintendoAccountAuthorizationRequestContext20GetAuthorizationCodeEPmPcm
 00000000:00000071000B972C       _ZN2nn7account42NintendoAccountAuthorizationRequestContext10GetIdTokenEPmPcm
 00000000:00000071000B9784       _ZN2nn7account42NintendoAccountAuthorizationRequestContext8GetStateEPmPcm
 00000000:00000071000B9808       _ZN2nn7account42NintendoAccountAuthorizationRequestContext12DebugGetInfoEPmm
 00000000:00000071000B9878       _ZN2nn7account8Notifier4SwapERS1_
 00000000:00000071000B988C       _ZN2nn7account8NotifierC1EPNS0_6detail9INotifierE
 00000000:00000071000B98A4       _ZN2nn7account8NotifierC2Ev
 00000000:00000071000B98B8       _ZN2nn7account8NotifierC1EOS1_
 00000000:00000071000B98D8       _ZN2nn7account8NotifierD2Ev
 00000000:00000071000B9900       _ZN2nn7account8NotifierD0Ev
 00000000:00000071000B9944       _ZN2nn7account8NotifieraSEOS1_
 00000000:00000071000B9984       _ZN2nn7account8Notifier14GetSystemEventEPNS_2os11SystemEventE
 00000000:00000071000B99FC       _ZN2nn7account31NintendoAccountLinkageProcedureC2Ev
 00000000:00000071000B9A2C       _ZN2nn7account31NintendoAccountLinkageProcedureC2ERKNS0_3UidEPNS0_3nas40IOAuthProcedureForNintendoAccountLinkageE
 00000000:00000071000B9A5C       _ZN2nn7account31NintendoAccountLinkageProcedureC1EOS1_
 00000000:00000071000B9A8C       _ZN2nn7account31NintendoAccountLinkageProcedureaSEOS1_
 00000000:00000071000B9AE0       _ZN2nn7account31NintendoAccountLinkageProcedure4SwapERS1_
 00000000:00000071000B9B04       _ZN2nn7account31NintendoAccountLinkageProcedure10GetRequestEPNS0_10RequestUrlEPNS0_11CallbackUriENS0_37NintendoAccountAuthorizationPageThemeE
 00000000:00000071000B9B78       _ZN2nn7account31NintendoAccountLinkageProcedure31IsNetworkServiceAccountReplacedEPb
 00000000:00000071000B9BD4       _ZN2nn7account31NintendoAccountLinkageProcedure38GetUrlForIntroductionOfExtraMembershipEPNS0_10RequestUrlE
 00000000:00000071000B9BF8       _ZN2nn7account48NintendoAccountApplicationAuthorizationProcedureC2Ev
 00000000:00000071000B9C28       _ZN2nn7account48NintendoAccountApplicationAuthorizationProcedureC1ERKNS0_3UidEPNS0_4http15IOAuthProcedureE
 00000000:00000071000B9C58       _ZN2nn7account48NintendoAccountApplicationAuthorizationProcedureC2EOS1_
 00000000:00000071000B9C88       _ZN2nn7account48NintendoAccountApplicationAuthorizationProcedureaSEOS1_
 00000000:00000071000B9CDC       _ZN2nn7account48NintendoAccountApplicationAuthorizationProcedure4SwapERS1_
 00000000:00000071000B9D00       _ZN2nn7account49ExternalNetworkServiceAccountIntroducingProcedureC2Ev
 00000000:00000071000B9D30       _ZN2nn7account49ExternalNetworkServiceAccountIntroducingProcedureC1EPNS0_3nas29IOAuthProcedureForExternalNsaE
 00000000:00000071000B9D70       _ZN2nn7account49ExternalNetworkServiceAccountIntroducingProcedureC1EOS1_
 00000000:00000071000B9DA0       _ZN2nn7account49ExternalNetworkServiceAccountIntroducingProcedureaSEOS1_
 00000000:00000071000B9DF4       _ZN2nn7account49ExternalNetworkServiceAccountIntroducingProcedure4SwapERS1_
 00000000:00000071000B9E18       _ZNK2nn7account49ExternalNetworkServiceAccountIntroducingProcedure11GetNicknameEPNS0_8NicknameE
 00000000:00000071000B9E50       _ZNK2nn7account49ExternalNetworkServiceAccountIntroducingProcedure15GetProfileImageEPmPvm
 00000000:00000071000B9EA8       _ZNK2nn7account49ExternalNetworkServiceAccountIntroducingProcedure26GetNetworkServiceAccountIdEPNS0_23NetworkServiceAccountIdE
 00000000:00000071000B9ECC       _ZNK2nn7account49ExternalNetworkServiceAccountIntroducingProcedure26GetLinkedNintendoAccountIdEPNS0_17NintendoAccountIdE
 00000000:00000071000B9EF0       _ZN2nn7account31NintendoAccountLinkageProcedureD0Ev
 00000000:00000071000B9F14       _ZN2nn7account48NintendoAccountApplicationAuthorizationProcedureD0Ev
 00000000:00000071000B9F38       _ZN2nn7account49ExternalNetworkServiceAccountIntroducingProcedureD0Ev
 00000000:00000071000B9F5C       _ZN2nn7account13ProfileEditor4SwapERS1_
 00000000:00000071000BA040       _ZN2nn7account13ProfileEditorC1ERKNS0_3UidEPNS0_7profile14IProfileEditorE
 00000000:00000071000BA0A8       _ZNK2nn7account13ProfileEditor19GetProfileImageSizeEPm
 00000000:00000071000BA0F0       _ZN2nn7account13ProfileEditorC2Ev
 00000000:00000071000BA148       _ZN2nn7account13ProfileEditorC2EOS1_
 00000000:00000071000BA1F0       _ZN2nn7account13ProfileEditorD2Ev
 00000000:00000071000BA218       _ZN2nn7account13ProfileEditorD0Ev
 00000000:00000071000BA25C       _ZN2nn7account13ProfileEditoraSEOS1_
 00000000:00000071000BA3B8       _ZN2nn7account13ProfileEditor7RefreshEv
 00000000:00000071000BA3F0       _ZNK2nn7account13ProfileEditor13IsLocalOriginEv
 00000000:00000071000BA41C       _ZNK2nn7account13ProfileEditor12GetTimeStampEv
 00000000:00000071000BA424       _ZNK2nn7account13ProfileEditor11GetNicknameEPNS0_8NicknameE
 00000000:00000071000BA454       _ZNK2nn7account13ProfileEditor11GetUserDataEPcm
 00000000:00000071000BA468       _ZNK2nn7account13ProfileEditor16LoadProfileImageEPmPvm
 00000000:00000071000BA4EC       _ZN2nn7account13ProfileEditor11SetNicknameERKNS0_8NicknameE
 00000000:00000071000BA4F8       _ZN2nn7account13ProfileEditor11SetUserDataEPKcm
 00000000:00000071000BA504       _ZN2nn7account13ProfileEditor5FlushEv
 00000000:00000071000BA534       _ZN2nn7account13ProfileEditor14FlushWithImageEPKvm
 00000000:00000071000BA598       _ZN2nn2am23GetApplicationFunctionsEv
 00000000:00000071000BA5E4       _ZN2nn2am20GetSystemAppletProxyEv
 00000000:00000071000BA630       _ZN2nn2am20GetHomeMenuFunctionsEv
 00000000:00000071000BA67C       _ZN2nn2am24GetGlobalStateControllerEv
 00000000:00000071000BA6C8       _ZN2nn2am21GetApplicationCreatorEv
 00000000:00000071000BA714       _ZN2nn2am21GetLibraryAppletProxyEv
 00000000:00000071000BA760       _ZN2nn2am28GetLibraryAppletSelfAccessorEv
 00000000:00000071000BA7AC       _ZN2nn2am21GetOverlayAppletProxyEv
 00000000:00000071000BA7F8       _ZN2nn2am19GetOverlayFunctionsEv
 00000000:00000071000BA844       _ZN2nn2am19GetApplicationProxyEv
 00000000:00000071000BA890       _ZN2nn2am23GetLibraryAppletCreatorEv
 00000000:00000071000BA8DC       _ZN2nn2am27GetProcessWindingControllerEv
 00000000:00000071000BA928       _ZN2nn2am20GetCommonStateGetterEv
 00000000:00000071000BA974       _ZN2nn2am17GetSelfControllerEv
 00000000:00000071000BA9C0       _ZN2nn2am18GetAudioControllerEv
 00000000:00000071000BAA0C       _ZN2nn2am20GetDisplayControllerEv
 00000000:00000071000BAA58       _ZN2nn2am19GetWindowControllerEv
 00000000:00000071000BAAA4       _ZN2nn2am17GetDebugFunctionsEv
 00000000:00000071000BAAF0       _ZN2nn2am26IsInitializedAsApplicationEv
 00000000:00000071000BAB40       _ZN2nn2am27IsInitializedAsSystemAppletEv
 00000000:00000071000BAB90       _ZN2nn2am28IsInitializedAsLibraryAppletEv
 00000000:00000071000BABE0       _ZN2nn2am28IsInitializedAsOverlayAppletEv
 00000000:00000071000BAC30       _ZN2nn2am26InitializeCommonInterfacesEPNS0_7service21IStackableAppletProxyE
 00000000:00000071000BB0F4       _ZN2nn2am24FinalizeCommonInterfacesEv
 00000000:00000071000BB340       _ZN2nn2am32InitializeSystemAppletInterfacesEv
 00000000:00000071000BB718       _ZN2nn2am30FinalizeSystemAppletInterfacesEv
 00000000:00000071000BB8BC       _ZN2nn2am24SetLibraryAppletResolverEPFvvE
 00000000:00000071000BB8C8       _ZN2nn2am35InvokeWithSelfLibraryCreatorEnabledEPFvvE
 00000000:00000071000BBA0C       _ZN2nn2am33InitializeLibraryAppletInterfacesEPKNS0_15AppletAttributeE
 00000000:00000071000BBE28       _ZN2nn2am31FinalizeLibraryAppletInterfacesEv
 00000000:00000071000BBF88       _ZN2nn2am33InitializeOverlayAppletInterfacesEv
 00000000:00000071000BC244       _ZN2nn2am31FinalizeOverlayAppletInterfacesEv
 00000000:00000071000BC358       _ZN2nn2am31InitializeApplicationInterfacesEv
 00000000:00000071000BC60C       _ZN2nn2am29FinalizeApplicationInterfacesEv
 00000000:00000071000BC6CC       _ZN2nn2am37InitializeSystemApplicationInterfacesEv
 00000000:00000071000BC978       _ZN2nn2am35FinalizeSystemApplicationInterfacesEv
 00000000:00000071000BCA38       _ZN2nn2am23GetAppletResourceUserIdEv
 00000000:00000071000BCA58       _ZZN2nn2sf40SimpleAllInOneHipcSubDomainClientManagerILm100EE27InitializeShimLibraryHolderINS_2am7service30IAllSystemAppletProxiesServiceEEENS_6ResultEPNS0_23ShimLibraryObjectHolderIT_EEPKcPNS_14MemoryResourceEENUlPNS0_13SharedPointerIS6_EEE_clESI_
 00000000:00000071000BCD8C       _ZN2nn2sf4hipc6client34HipcSimpleClientSessionManagerBase4Impl18InitializeByHandleINS_2am7service30IAllSystemAppletProxiesServiceENS0_30MemoryResourceAllocationPolicyEEENS_6ResultEPNS0_13SharedPointerIT_EEPNT0_9AllocatorENS_3svc6HandleE
 00000000:00000071000BCE90       _ZN2nn2sf6detail38ObjectImplFactoryWithStatefulAllocatorINS0_4cmif6client16CmifProxyFactoryINS_2am7service30IAllSystemAppletProxiesServiceENS4_15CmifDomainProxyINS0_4hipc6client38Hipc2ClientSessionManagedProxyKindBaseINSB_18Hipc2ProxyKindBaseILNSA_6detail11MessageTypeE4EEEEEEENS0_30MemoryResourceAllocationPolicyEE13ServiceObjectESJ_E6Object12AddReferenceEv
 00000000:00000071000BCE98       _ZN2nn2sf6detail38ObjectImplFactoryWithStatefulAllocatorINS0_4cmif6client16CmifProxyFactoryINS_2am7service30IAllSystemAppletProxiesServiceENS4_15CmifDomainProxyINS0_4hipc6client38Hipc2ClientSessionManagedProxyKindBaseINSB_18Hipc2ProxyKindBaseILNSA_6detail11MessageTypeE4EEEEEEENS0_30MemoryResourceAllocationPolicyEE13ServiceObjectESJ_E6Object7ReleaseEv
 00000000:00000071000BCEF0       _ZN2nn2sf4cmif6client6detail13CmifProxyImplINS_2am7service30IAllSystemAppletProxiesServiceENS2_15CmifDomainProxyINS0_4hipc6client38Hipc2ClientSessionManagedProxyKindBaseINSA_18Hipc2ProxyKindBaseILNS9_6detail11MessageTypeE4EEEEEEENS0_30MemoryResourceAllocationPolicyES7_E12GetProxyInfoEv
 00000000:00000071000BCEF8       _ZN2nn2sf4cmif6client6detail13CmifProxyImplINS_2am7service30IAllSystemAppletProxiesServiceENS2_15CmifDomainProxyINS0_4hipc6client38Hipc2ClientSessionManagedProxyKindBaseINSA_18Hipc2ProxyKindBaseILNS9_6detail11MessageTypeE4EEEEEEENS0_30MemoryResourceAllocationPolicyES7_E33_nn_sf_sync_OpenSystemAppletProxyENS0_3OutINS0_13SharedPointerINS6_18ISystemAppletProxyEEEvEEmONS0_12NativeHandleE
